
AES-256_Crypto-Accelerator.elf:     file format elf32-littlearm

Sections:
Idx Name          Size      VMA       LMA       File off  Algn
  0 .text         00001084  00000000  00000000  00010000  2**2
                  CONTENTS, ALLOC, LOAD, READONLY, CODE
  1 .relocate     00000084  20000000  00001084  00020000  2**2
                  CONTENTS, ALLOC, LOAD, DATA
  2 .lpram        00000000  30000000  30000000  00020084  2**0
                  CONTENTS
  3 .bss          0000008c  20000084  00001108  00020084  2**2
                  ALLOC
  4 .stack        00002000  20000110  00001194  00020084  2**0
                  ALLOC
  5 .ARM.attributes 00000028  00000000  00000000  00020084  2**0
                  CONTENTS, READONLY
  6 .comment      00000059  00000000  00000000  000200ac  2**0
                  CONTENTS, READONLY
  7 .debug_info   00018744  00000000  00000000  00020105  2**0
                  CONTENTS, READONLY, DEBUGGING
  8 .debug_abbrev 00002ff8  00000000  00000000  00038849  2**0
                  CONTENTS, READONLY, DEBUGGING
  9 .debug_loc    000103b8  00000000  00000000  0003b841  2**0
                  CONTENTS, READONLY, DEBUGGING
 10 .debug_aranges 00000608  00000000  00000000  0004bbf9  2**0
                  CONTENTS, READONLY, DEBUGGING
 11 .debug_ranges 00002ef8  00000000  00000000  0004c201  2**0
                  CONTENTS, READONLY, DEBUGGING
 12 .debug_macro  0001bbcf  00000000  00000000  0004f0f9  2**0
                  CONTENTS, READONLY, DEBUGGING
 13 .debug_line   00010483  00000000  00000000  0006acc8  2**0
                  CONTENTS, READONLY, DEBUGGING
 14 .debug_str    0008dcdd  00000000  00000000  0007b14b  2**0
                  CONTENTS, READONLY, DEBUGGING
 15 .debug_frame  000012a8  00000000  00000000  00108e28  2**2
                  CONTENTS, READONLY, DEBUGGING

Disassembly of section .text:

00000000 <exception_table>:
       0:	10 21 00 20 2d 01 00 00 29 01 00 00 29 01 00 00     .!. -...)...)...
	...
      2c:	29 01 00 00 00 00 00 00 00 00 00 00 29 01 00 00     )...........)...
      3c:	29 01 00 00 29 01 00 00 29 01 00 00 29 01 00 00     )...)...)...)...
      4c:	29 01 00 00 b5 08 00 00 29 01 00 00 29 01 00 00     ).......)...)...
      5c:	29 01 00 00 29 01 00 00 29 01 00 00 29 01 00 00     )...)...)...)...
      6c:	29 01 00 00 29 01 00 00 29 01 00 00 29 01 00 00     )...)...)...)...
      7c:	29 01 00 00 29 01 00 00 29 01 00 00 29 01 00 00     )...)...)...)...
      8c:	29 01 00 00 29 01 00 00 29 01 00 00 29 01 00 00     )...)...)...)...
      9c:	29 01 00 00 29 01 00 00 29 01 00 00 29 01 00 00     )...)...)...)...
      ac:	29 01 00 00 00 00 00 00                             ).......

000000b4 <__do_global_dtors_aux>:
      b4:	b510      	push	{r4, lr}
      b6:	4c06      	ldr	r4, [pc, #24]	; (d0 <__do_global_dtors_aux+0x1c>)
      b8:	7823      	ldrb	r3, [r4, #0]
      ba:	2b00      	cmp	r3, #0
      bc:	d107      	bne.n	ce <__do_global_dtors_aux+0x1a>
      be:	4b05      	ldr	r3, [pc, #20]	; (d4 <__do_global_dtors_aux+0x20>)
      c0:	2b00      	cmp	r3, #0
      c2:	d002      	beq.n	ca <__do_global_dtors_aux+0x16>
      c4:	4804      	ldr	r0, [pc, #16]	; (d8 <__do_global_dtors_aux+0x24>)
      c6:	e000      	b.n	ca <__do_global_dtors_aux+0x16>
      c8:	bf00      	nop
      ca:	2301      	movs	r3, #1
      cc:	7023      	strb	r3, [r4, #0]
      ce:	bd10      	pop	{r4, pc}
      d0:	20000084 	.word	0x20000084
      d4:	00000000 	.word	0x00000000
      d8:	00001084 	.word	0x00001084

000000dc <frame_dummy>:
      dc:	4b08      	ldr	r3, [pc, #32]	; (100 <frame_dummy+0x24>)
      de:	b510      	push	{r4, lr}
      e0:	2b00      	cmp	r3, #0
      e2:	d003      	beq.n	ec <frame_dummy+0x10>
      e4:	4907      	ldr	r1, [pc, #28]	; (104 <frame_dummy+0x28>)
      e6:	4808      	ldr	r0, [pc, #32]	; (108 <frame_dummy+0x2c>)
      e8:	e000      	b.n	ec <frame_dummy+0x10>
      ea:	bf00      	nop
      ec:	4807      	ldr	r0, [pc, #28]	; (10c <frame_dummy+0x30>)
      ee:	6803      	ldr	r3, [r0, #0]
      f0:	2b00      	cmp	r3, #0
      f2:	d100      	bne.n	f6 <frame_dummy+0x1a>
      f4:	bd10      	pop	{r4, pc}
      f6:	4b06      	ldr	r3, [pc, #24]	; (110 <frame_dummy+0x34>)
      f8:	2b00      	cmp	r3, #0
      fa:	d0fb      	beq.n	f4 <frame_dummy+0x18>
      fc:	4798      	blx	r3
      fe:	e7f9      	b.n	f4 <frame_dummy+0x18>
     100:	00000000 	.word	0x00000000
     104:	20000088 	.word	0x20000088
     108:	00001084 	.word	0x00001084
     10c:	00001084 	.word	0x00001084
     110:	00000000 	.word	0x00000000

00000114 <atmel_start_init>:

/**
 * Initializes MCU, drivers and middleware in the project
 **/
void atmel_start_init(void)
{
     114:	b510      	push	{r4, lr}
	system_init();
     116:	4b02      	ldr	r3, [pc, #8]	; (120 <atmel_start_init+0xc>)
     118:	4798      	blx	r3
	
	gpio_init();
     11a:	4b02      	ldr	r3, [pc, #8]	; (124 <atmel_start_init+0x10>)
     11c:	4798      	blx	r3

}
     11e:	bd10      	pop	{r4, pc}
     120:	000001b1 	.word	0x000001b1
     124:	00000239 	.word	0x00000239

00000128 <Dummy_Handler>:

/**
 * \brief Default interrupt handler for unused IRQs.
 */
void Dummy_Handler(void)
{
     128:	e7fe      	b.n	128 <Dummy_Handler>
     12a:	46c0      	nop			; (mov r8, r8)

0000012c <Reset_Handler>:
        if (pSrc != pDest) {
     12c:	4914      	ldr	r1, [pc, #80]	; (180 <Reset_Handler+0x54>)
     12e:	4815      	ldr	r0, [pc, #84]	; (184 <Reset_Handler+0x58>)
{
     130:	b510      	push	{r4, lr}
        if (pSrc != pDest) {
     132:	4281      	cmp	r1, r0
     134:	d009      	beq.n	14a <Reset_Handler+0x1e>
                for (; pDest < &_erelocate;) {
     136:	4b14      	ldr	r3, [pc, #80]	; (188 <Reset_Handler+0x5c>)
     138:	4298      	cmp	r0, r3
     13a:	d206      	bcs.n	14a <Reset_Handler+0x1e>
                        *pDest++ = *pSrc++;
     13c:	43c2      	mvns	r2, r0
     13e:	18d2      	adds	r2, r2, r3
     140:	0892      	lsrs	r2, r2, #2
     142:	3201      	adds	r2, #1
     144:	0092      	lsls	r2, r2, #2
     146:	4b11      	ldr	r3, [pc, #68]	; (18c <Reset_Handler+0x60>)
     148:	4798      	blx	r3
        for (pDest = &_szero; pDest < &_ezero;) {
     14a:	4811      	ldr	r0, [pc, #68]	; (190 <Reset_Handler+0x64>)
     14c:	4b11      	ldr	r3, [pc, #68]	; (194 <Reset_Handler+0x68>)
     14e:	4298      	cmp	r0, r3
     150:	d207      	bcs.n	162 <Reset_Handler+0x36>
                *pDest++ = 0;
     152:	43c2      	mvns	r2, r0
     154:	18d2      	adds	r2, r2, r3
     156:	0892      	lsrs	r2, r2, #2
     158:	3201      	adds	r2, #1
     15a:	0092      	lsls	r2, r2, #2
     15c:	2100      	movs	r1, #0
     15e:	4b0e      	ldr	r3, [pc, #56]	; (198 <Reset_Handler+0x6c>)
     160:	4798      	blx	r3
        SCB->VTOR = ((uint32_t) pSrc & SCB_VTOR_TBLOFF_Msk);
     162:	21ff      	movs	r1, #255	; 0xff
     164:	4b0d      	ldr	r3, [pc, #52]	; (19c <Reset_Handler+0x70>)
     166:	4a0e      	ldr	r2, [pc, #56]	; (1a0 <Reset_Handler+0x74>)
     168:	438b      	bics	r3, r1
     16a:	6093      	str	r3, [r2, #8]
        NVMCTRL->CTRLB.bit.MANW = 1;
     16c:	4a0d      	ldr	r2, [pc, #52]	; (1a4 <Reset_Handler+0x78>)
     16e:	397f      	subs	r1, #127	; 0x7f
     170:	6853      	ldr	r3, [r2, #4]
     172:	430b      	orrs	r3, r1
     174:	6053      	str	r3, [r2, #4]
        __libc_init_array();
     176:	4b0c      	ldr	r3, [pc, #48]	; (1a8 <Reset_Handler+0x7c>)
     178:	4798      	blx	r3
        main();
     17a:	4b0c      	ldr	r3, [pc, #48]	; (1ac <Reset_Handler+0x80>)
     17c:	4798      	blx	r3
     17e:	e7fe      	b.n	17e <Reset_Handler+0x52>
     180:	00001084 	.word	0x00001084
     184:	20000000 	.word	0x20000000
     188:	20000084 	.word	0x20000084
     18c:	00000df5 	.word	0x00000df5
     190:	20000084 	.word	0x20000084
     194:	20000110 	.word	0x20000110
     198:	00000e07 	.word	0x00000e07
     19c:	00000000 	.word	0x00000000
     1a0:	e000ed00 	.word	0xe000ed00
     1a4:	41004000 	.word	0x41004000
     1a8:	00000d85 	.word	0x00000d85
     1ac:	00000d6d 	.word	0x00000d6d

000001b0 <system_init>:
	hri_mclk_set_APBCMASK_AES_bit(MCLK);
	aes_sync_init(&CRYPTOGRAPHY_0, AES);
}

void system_init(void)
{
     1b0:	b510      	push	{r4, lr}
 * Currently the following initialization functions are supported:
 *  - System clock initialization
 */
static inline void init_mcu(void)
{
	_init_chip();
     1b2:	4b16      	ldr	r3, [pc, #88]	; (20c <system_init+0x5c>)
     1b4:	4798      	blx	r3
	((Port *)hw)->Group[submodule_index].OUTCLR.reg = ~data;
}

static inline void hri_port_clear_OUT_reg(const void *const hw, uint8_t submodule_index, hri_port_out_reg_t mask)
{
	((Port *)hw)->Group[submodule_index].OUTCLR.reg = mask;
     1b6:	23c0      	movs	r3, #192	; 0xc0
     1b8:	2280      	movs	r2, #128	; 0x80
     1ba:	2194      	movs	r1, #148	; 0x94
     1bc:	05db      	lsls	r3, r3, #23
     1be:	00d2      	lsls	r2, r2, #3
     1c0:	505a      	str	r2, [r3, r1]
	((Port *)hw)->Group[submodule_index].DIRSET.reg = mask;
     1c2:	390c      	subs	r1, #12
     1c4:	505a      	str	r2, [r3, r1]

static inline void hri_port_write_WRCONFIG_reg(const void *const hw, uint8_t submodule_index,
                                               hri_port_wrconfig_reg_t data)
{
	PORT_CRITICAL_SECTION_ENTER();
	((Port *)hw)->Group[submodule_index].WRCONFIG.reg = data;
     1c6:	21c0      	movs	r1, #192	; 0xc0
     1c8:	22a8      	movs	r2, #168	; 0xa8
     1ca:	4c11      	ldr	r4, [pc, #68]	; (210 <system_init+0x60>)
     1cc:	4b11      	ldr	r3, [pc, #68]	; (214 <system_init+0x64>)
     1ce:	0609      	lsls	r1, r1, #24
     1d0:	509c      	str	r4, [r3, r2]
     1d2:	5099      	str	r1, [r3, r2]
	tmp = ((Port *)hw)->Group[submodule_index].PINCFG[index].reg;
     1d4:	21ca      	movs	r1, #202	; 0xca
	tmp &= ~PORT_PINCFG_PMUXEN;
     1d6:	2001      	movs	r0, #1
	tmp = ((Port *)hw)->Group[submodule_index].PINCFG[index].reg;
     1d8:	5c5a      	ldrb	r2, [r3, r1]
	tmp &= ~PORT_PINCFG_PMUXEN;
     1da:	4382      	bics	r2, r0
	((Port *)hw)->Group[submodule_index].PINCFG[index].reg = tmp;
     1dc:	545a      	strb	r2, [r3, r1]
}

static inline void hri_mclk_set_AHBMASK_NVMCTRL_bit(const void *const hw)
{
	MCLK_CRITICAL_SECTION_ENTER();
	((Mclk *)hw)->AHBMASK.reg |= MCLK_AHBMASK_NVMCTRL;
     1de:	2380      	movs	r3, #128	; 0x80
     1e0:	6922      	ldr	r2, [r4, #16]
     1e2:	005b      	lsls	r3, r3, #1
     1e4:	4313      	orrs	r3, r2
     1e6:	6123      	str	r3, [r4, #16]
	flash_init(&FLASH_0, NVMCTRL);
     1e8:	490b      	ldr	r1, [pc, #44]	; (218 <system_init+0x68>)
     1ea:	4b0c      	ldr	r3, [pc, #48]	; (21c <system_init+0x6c>)
     1ec:	480c      	ldr	r0, [pc, #48]	; (220 <system_init+0x70>)
     1ee:	4798      	blx	r3
	delay_init(SysTick);
     1f0:	480c      	ldr	r0, [pc, #48]	; (224 <system_init+0x74>)
     1f2:	4b0d      	ldr	r3, [pc, #52]	; (228 <system_init+0x78>)
     1f4:	4798      	blx	r3
}

static inline void hri_mclk_set_APBCMASK_AES_bit(const void *const hw)
{
	MCLK_CRITICAL_SECTION_ENTER();
	((Mclk *)hw)->APBCMASK.reg |= MCLK_APBCMASK_AES;
     1f6:	2380      	movs	r3, #128	; 0x80
     1f8:	69e2      	ldr	r2, [r4, #28]
     1fa:	019b      	lsls	r3, r3, #6
     1fc:	4313      	orrs	r3, r2
     1fe:	61e3      	str	r3, [r4, #28]
	aes_sync_init(&CRYPTOGRAPHY_0, AES);
     200:	490a      	ldr	r1, [pc, #40]	; (22c <system_init+0x7c>)
     202:	4b0b      	ldr	r3, [pc, #44]	; (230 <system_init+0x80>)
     204:	480b      	ldr	r0, [pc, #44]	; (234 <system_init+0x84>)
     206:	4798      	blx	r3

	FLASH_0_init();

	delay_driver_init();
	CRYPTOGRAPHY_0_init();
}
     208:	bd10      	pop	{r4, pc}
     20a:	46c0      	nop			; (mov r8, r8)
     20c:	000007dd 	.word	0x000007dd
     210:	40000400 	.word	0x40000400
     214:	40002800 	.word	0x40002800
     218:	41004000 	.word	0x41004000
     21c:	0000045d 	.word	0x0000045d
     220:	200000b4 	.word	0x200000b4
     224:	e000e010 	.word	0xe000e010
     228:	00000411 	.word	0x00000411
     22c:	42003400 	.word	0x42003400
     230:	000002f1 	.word	0x000002f1
     234:	200000d0 	.word	0x200000d0

00000238 <gpio_init>:
	((Port *)hw)->Group[submodule_index].OUTCLR.reg = mask;
     238:	22c0      	movs	r2, #192	; 0xc0

#include "driver_init.h"
#include "gpio_init.h"

void gpio_init(void)
{
     23a:	b5f0      	push	{r4, r5, r6, r7, lr}
     23c:	2302      	movs	r3, #2
     23e:	46c6      	mov	lr, r8
     240:	2194      	movs	r1, #148	; 0x94
     242:	05d2      	lsls	r2, r2, #23
     244:	b500      	push	{lr}
     246:	2780      	movs	r7, #128	; 0x80
     248:	5053      	str	r3, [r2, r1]
     24a:	2080      	movs	r0, #128	; 0x80
     24c:	2180      	movs	r1, #128	; 0x80
	((Port *)hw)->Group[submodule_index].DIRSET.reg = mask;
     24e:	2688      	movs	r6, #136	; 0x88
	((Port *)hw)->Group[submodule_index].OUTCLR.reg = mask;
     250:	0249      	lsls	r1, r1, #9
     252:	037f      	lsls	r7, r7, #13
     254:	0380      	lsls	r0, r0, #14
     256:	6151      	str	r1, [r2, #20]
     258:	4680      	mov	r8, r0
     25a:	6157      	str	r7, [r2, #20]
     25c:	6150      	str	r0, [r2, #20]
	((Port *)hw)->Group[submodule_index].WRCONFIG.reg = data;
     25e:	20a8      	movs	r0, #168	; 0xa8
	((Port *)hw)->Group[submodule_index].DIRSET.reg = mask;
     260:	5193      	str	r3, [r2, r6]
	((Port *)hw)->Group[submodule_index].WRCONFIG.reg = data;
     262:	4d1c      	ldr	r5, [pc, #112]	; (2d4 <gpio_init+0x9c>)
     264:	4b1c      	ldr	r3, [pc, #112]	; (2d8 <gpio_init+0xa0>)
     266:	4c1d      	ldr	r4, [pc, #116]	; (2dc <gpio_init+0xa4>)
     268:	501d      	str	r5, [r3, r0]
     26a:	25c0      	movs	r5, #192	; 0xc0
     26c:	062d      	lsls	r5, r5, #24
     26e:	501d      	str	r5, [r3, r0]
	((Port *)hw)->Group[submodule_index].DIRSET.reg = mask;
     270:	6091      	str	r1, [r2, #8]
	((Port *)hw)->Group[submodule_index].WRCONFIG.reg = data;
     272:	2180      	movs	r1, #128	; 0x80
     274:	05c9      	lsls	r1, r1, #23
     276:	6299      	str	r1, [r3, #40]	; 0x28
     278:	629c      	str	r4, [r3, #40]	; 0x28
	((Port *)hw)->Group[submodule_index].DIRSET.reg = mask;
     27a:	4644      	mov	r4, r8
     27c:	6097      	str	r7, [r2, #8]
	((Port *)hw)->Group[submodule_index].WRCONFIG.reg = data;
     27e:	4f18      	ldr	r7, [pc, #96]	; (2e0 <gpio_init+0xa8>)
     280:	6299      	str	r1, [r3, #40]	; 0x28
     282:	629f      	str	r7, [r3, #40]	; 0x28
	((Port *)hw)->Group[submodule_index].DIRSET.reg = mask;
     284:	6094      	str	r4, [r2, #8]
	tmp = ((Port *)hw)->Group[submodule_index].PINCFG[index].reg;
     286:	27c1      	movs	r7, #193	; 0xc1
	((Port *)hw)->Group[submodule_index].WRCONFIG.reg = data;
     288:	6299      	str	r1, [r3, #40]	; 0x28
     28a:	4916      	ldr	r1, [pc, #88]	; (2e4 <gpio_init+0xac>)
     28c:	6299      	str	r1, [r3, #40]	; 0x28
	tmp &= ~PORT_PINCFG_PMUXEN;
     28e:	2101      	movs	r1, #1
	tmp = ((Port *)hw)->Group[submodule_index].PINCFG[index].reg;
     290:	5ddc      	ldrb	r4, [r3, r7]
	tmp &= ~PORT_PINCFG_PMUXEN;
     292:	438c      	bics	r4, r1
	((Port *)hw)->Group[submodule_index].PINCFG[index].reg = tmp;
     294:	55dc      	strb	r4, [r3, r7]
	tmp = ((Port *)hw)->Group[submodule_index].PINCFG[index].reg;
     296:	3f71      	subs	r7, #113	; 0x71
     298:	5ddc      	ldrb	r4, [r3, r7]
	tmp &= ~PORT_PINCFG_PMUXEN;
     29a:	438c      	bics	r4, r1
	((Port *)hw)->Group[submodule_index].PINCFG[index].reg = tmp;
     29c:	55dc      	strb	r4, [r3, r7]
	tmp = ((Port *)hw)->Group[submodule_index].PINCFG[index].reg;
     29e:	3704      	adds	r7, #4
     2a0:	5ddc      	ldrb	r4, [r3, r7]
	tmp &= ~PORT_PINCFG_PMUXEN;
     2a2:	438c      	bics	r4, r1
	((Port *)hw)->Group[submodule_index].PINCFG[index].reg = tmp;
     2a4:	55dc      	strb	r4, [r3, r7]
	tmp = ((Port *)hw)->Group[submodule_index].PINCFG[index].reg;
     2a6:	3701      	adds	r7, #1
     2a8:	5ddc      	ldrb	r4, [r3, r7]
	tmp &= ~PORT_PINCFG_PMUXEN;
     2aa:	438c      	bics	r4, r1
	((Port *)hw)->Group[submodule_index].PINCFG[index].reg = tmp;
     2ac:	55dc      	strb	r4, [r3, r7]
	((Port *)hw)->Group[submodule_index].OUTSET.reg = mask;
     2ae:	2480      	movs	r4, #128	; 0x80
     2b0:	3743      	adds	r7, #67	; 0x43
     2b2:	00e4      	lsls	r4, r4, #3
     2b4:	51d4      	str	r4, [r2, r7]
	((Port *)hw)->Group[submodule_index].DIRSET.reg = mask;
     2b6:	5194      	str	r4, [r2, r6]
	((Port *)hw)->Group[submodule_index].WRCONFIG.reg = data;
     2b8:	4a0b      	ldr	r2, [pc, #44]	; (2e8 <gpio_init+0xb0>)
     2ba:	501a      	str	r2, [r3, r0]
     2bc:	501d      	str	r5, [r3, r0]
	tmp = ((Port *)hw)->Group[submodule_index].PINCFG[index].reg;
     2be:	3022      	adds	r0, #34	; 0x22
     2c0:	5c1a      	ldrb	r2, [r3, r0]
	tmp &= ~PORT_PINCFG_PMUXEN;
     2c2:	438a      	bics	r2, r1
	((Port *)hw)->Group[submodule_index].PINCFG[index].reg = tmp;
     2c4:	541a      	strb	r2, [r3, r0]
	gpio_set_pin_direction(LED0, GPIO_DIRECTION_OUT);

	gpio_set_pin_function(LED0, GPIO_PIN_FUNCTION_OFF);
#endif

	delay_ms(10);
     2c6:	38c0      	subs	r0, #192	; 0xc0
     2c8:	4b08      	ldr	r3, [pc, #32]	; (2ec <gpio_init+0xb4>)
     2ca:	4798      	blx	r3
     2cc:	bc04      	pop	{r2}
     2ce:	4690      	mov	r8, r2
     2d0:	bdf0      	pop	{r4, r5, r6, r7, pc}
     2d2:	46c0      	nop			; (mov r8, r8)
     2d4:	40000002 	.word	0x40000002
     2d8:	40002800 	.word	0x40002800
     2dc:	c0000001 	.word	0xc0000001
     2e0:	c0000010 	.word	0xc0000010
     2e4:	c0000020 	.word	0xc0000020
     2e8:	40000400 	.word	0x40000400
     2ec:	00000425 	.word	0x00000425

000002f0 <aes_sync_init>:
                                                          uint8_t *iv, uint32_t *iv_ofst);
/**
 * \brief Initialize AES.
 */
int32_t aes_sync_init(struct aes_sync_descriptor *descr, void *const hw)
{
     2f0:	b570      	push	{r4, r5, r6, lr}
     2f2:	0004      	movs	r4, r0
     2f4:	000d      	movs	r5, r1
	ASSERT(descr && hw);
     2f6:	2800      	cmp	r0, #0
     2f8:	d00c      	beq.n	314 <aes_sync_init+0x24>
     2fa:	0008      	movs	r0, r1
     2fc:	1e43      	subs	r3, r0, #1
     2fe:	4198      	sbcs	r0, r3
     300:	b2c0      	uxtb	r0, r0
     302:	2232      	movs	r2, #50	; 0x32
     304:	4904      	ldr	r1, [pc, #16]	; (318 <aes_sync_init+0x28>)
     306:	4b05      	ldr	r3, [pc, #20]	; (31c <aes_sync_init+0x2c>)
     308:	4798      	blx	r3

	return _aes_sync_init(&descr->dev, hw);
     30a:	0029      	movs	r1, r5
     30c:	0020      	movs	r0, r4
     30e:	4b04      	ldr	r3, [pc, #16]	; (320 <aes_sync_init+0x30>)
     310:	4798      	blx	r3
}
     312:	bd70      	pop	{r4, r5, r6, pc}
     314:	2000      	movs	r0, #0
     316:	e7f4      	b.n	302 <aes_sync_init+0x12>
     318:	00000f90 	.word	0x00000f90
     31c:	000004a5 	.word	0x000004a5
     320:	000004c9 	.word	0x000004c9

00000324 <aes_sync_enable>:

/**
 * \brief Enable AES
 */
int32_t aes_sync_enable(struct aes_sync_descriptor *descr)
{
     324:	b510      	push	{r4, lr}
     326:	0004      	movs	r4, r0
	ASSERT(descr);
     328:	1e43      	subs	r3, r0, #1
     32a:	4198      	sbcs	r0, r3
     32c:	2246      	movs	r2, #70	; 0x46
     32e:	4904      	ldr	r1, [pc, #16]	; (340 <aes_sync_enable+0x1c>)
     330:	b2c0      	uxtb	r0, r0
     332:	4b04      	ldr	r3, [pc, #16]	; (344 <aes_sync_enable+0x20>)
     334:	4798      	blx	r3

	return _aes_sync_enable(&descr->dev);
     336:	0020      	movs	r0, r4
     338:	4b03      	ldr	r3, [pc, #12]	; (348 <aes_sync_enable+0x24>)
     33a:	4798      	blx	r3
}
     33c:	bd10      	pop	{r4, pc}
     33e:	46c0      	nop			; (mov r8, r8)
     340:	00000f90 	.word	0x00000f90
     344:	000004a5 	.word	0x000004a5
     348:	000004d9 	.word	0x000004d9

0000034c <aes_sync_set_encrypt_key>:

/**
 * \brief              Set AES Key (encryption)
 */
int32_t aes_sync_set_encrypt_key(struct aes_sync_descriptor *descr, const uint8_t *key, const enum aes_keysize size)
{
     34c:	b570      	push	{r4, r5, r6, lr}
     34e:	0004      	movs	r4, r0
     350:	000d      	movs	r5, r1
     352:	0016      	movs	r6, r2
	ASSERT(descr && key);
     354:	2800      	cmp	r0, #0
     356:	d00d      	beq.n	374 <aes_sync_set_encrypt_key+0x28>
     358:	0008      	movs	r0, r1
     35a:	1e43      	subs	r3, r0, #1
     35c:	4198      	sbcs	r0, r3
     35e:	b2c0      	uxtb	r0, r0
     360:	225a      	movs	r2, #90	; 0x5a
     362:	4905      	ldr	r1, [pc, #20]	; (378 <aes_sync_set_encrypt_key+0x2c>)
     364:	4b05      	ldr	r3, [pc, #20]	; (37c <aes_sync_set_encrypt_key+0x30>)
     366:	4798      	blx	r3
	return _aes_sync_set_key(&descr->dev, key, size);
     368:	0032      	movs	r2, r6
     36a:	0029      	movs	r1, r5
     36c:	0020      	movs	r0, r4
     36e:	4b04      	ldr	r3, [pc, #16]	; (380 <aes_sync_set_encrypt_key+0x34>)
     370:	4798      	blx	r3
}
     372:	bd70      	pop	{r4, r5, r6, pc}
     374:	2000      	movs	r0, #0
     376:	e7f3      	b.n	360 <aes_sync_set_encrypt_key+0x14>
     378:	00000f90 	.word	0x00000f90
     37c:	000004a5 	.word	0x000004a5
     380:	000004dd 	.word	0x000004dd

00000384 <aes_sync_set_decrypt_key>:

/**
 * \brief              Set AES Key (decryption)
 */
int32_t aes_sync_set_decrypt_key(struct aes_sync_descriptor *descr, const uint8_t *key, const enum aes_keysize size)
{
     384:	b570      	push	{r4, r5, r6, lr}
     386:	0004      	movs	r4, r0
     388:	000d      	movs	r5, r1
     38a:	0016      	movs	r6, r2
	ASSERT(descr && key);
     38c:	2800      	cmp	r0, #0
     38e:	d00d      	beq.n	3ac <aes_sync_set_decrypt_key+0x28>
     390:	0008      	movs	r0, r1
     392:	1e43      	subs	r3, r0, #1
     394:	4198      	sbcs	r0, r3
     396:	b2c0      	uxtb	r0, r0
     398:	2263      	movs	r2, #99	; 0x63
     39a:	4905      	ldr	r1, [pc, #20]	; (3b0 <aes_sync_set_decrypt_key+0x2c>)
     39c:	4b05      	ldr	r3, [pc, #20]	; (3b4 <aes_sync_set_decrypt_key+0x30>)
     39e:	4798      	blx	r3
	return _aes_sync_set_key(&descr->dev, key, size);
     3a0:	0032      	movs	r2, r6
     3a2:	0029      	movs	r1, r5
     3a4:	0020      	movs	r0, r4
     3a6:	4b04      	ldr	r3, [pc, #16]	; (3b8 <aes_sync_set_decrypt_key+0x34>)
     3a8:	4798      	blx	r3
}
     3aa:	bd70      	pop	{r4, r5, r6, pc}
     3ac:	2000      	movs	r0, #0
     3ae:	e7f3      	b.n	398 <aes_sync_set_decrypt_key+0x14>
     3b0:	00000f90 	.word	0x00000f90
     3b4:	000004a5 	.word	0x000004a5
     3b8:	000004dd 	.word	0x000004dd

000003bc <aes_sync_cbc_crypt>:
/**
 * \brief              AES-CBC block encryption/decryption
 */
int32_t aes_sync_cbc_crypt(struct aes_sync_descriptor *descr, const enum aes_action enc, const uint8_t *input,
                           uint8_t *output, uint32_t length, uint8_t iv[16])
{
     3bc:	b5f0      	push	{r4, r5, r6, r7, lr}
     3be:	0004      	movs	r4, r0
     3c0:	b083      	sub	sp, #12
     3c2:	000f      	movs	r7, r1
     3c4:	0015      	movs	r5, r2
     3c6:	001e      	movs	r6, r3
     3c8:	2000      	movs	r0, #0
	ASSERT(descr && input && output && length && iv);
     3ca:	2c00      	cmp	r4, #0
     3cc:	d00a      	beq.n	3e4 <aes_sync_cbc_crypt+0x28>
     3ce:	2a00      	cmp	r2, #0
     3d0:	d008      	beq.n	3e4 <aes_sync_cbc_crypt+0x28>
     3d2:	2b00      	cmp	r3, #0
     3d4:	d006      	beq.n	3e4 <aes_sync_cbc_crypt+0x28>
     3d6:	9b08      	ldr	r3, [sp, #32]
     3d8:	2b00      	cmp	r3, #0
     3da:	d003      	beq.n	3e4 <aes_sync_cbc_crypt+0x28>
     3dc:	9809      	ldr	r0, [sp, #36]	; 0x24
     3de:	1e43      	subs	r3, r0, #1
     3e0:	4198      	sbcs	r0, r3
     3e2:	b2c0      	uxtb	r0, r0
     3e4:	2277      	movs	r2, #119	; 0x77
     3e6:	4907      	ldr	r1, [pc, #28]	; (404 <aes_sync_cbc_crypt+0x48>)
     3e8:	4b07      	ldr	r3, [pc, #28]	; (408 <aes_sync_cbc_crypt+0x4c>)
     3ea:	4798      	blx	r3
	return _aes_sync_cbc_crypt(&descr->dev, enc, input, output, length, iv);
     3ec:	9b09      	ldr	r3, [sp, #36]	; 0x24
     3ee:	002a      	movs	r2, r5
     3f0:	9301      	str	r3, [sp, #4]
     3f2:	9b08      	ldr	r3, [sp, #32]
     3f4:	0039      	movs	r1, r7
     3f6:	9300      	str	r3, [sp, #0]
     3f8:	0020      	movs	r0, r4
     3fa:	0033      	movs	r3, r6
     3fc:	4c03      	ldr	r4, [pc, #12]	; (40c <aes_sync_cbc_crypt+0x50>)
     3fe:	47a0      	blx	r4
}
     400:	b003      	add	sp, #12
     402:	bdf0      	pop	{r4, r5, r6, r7, pc}
     404:	00000f90 	.word	0x00000f90
     408:	000004a5 	.word	0x000004a5
     40c:	000004f5 	.word	0x000004f5

00000410 <delay_init>:

/**
 * \brief Initialize Delay driver
 */
void delay_init(void *const hw)
{
     410:	b510      	push	{r4, lr}
	_delay_init(hardware = hw);
     412:	4b02      	ldr	r3, [pc, #8]	; (41c <delay_init+0xc>)
     414:	6018      	str	r0, [r3, #0]
     416:	4b02      	ldr	r3, [pc, #8]	; (420 <delay_init+0x10>)
     418:	4798      	blx	r3
}
     41a:	bd10      	pop	{r4, pc}
     41c:	200000a0 	.word	0x200000a0
     420:	00000b85 	.word	0x00000b85

00000424 <delay_ms>:
/**
 * \brief Perform delay in ms
 */
void delay_ms(const uint16_t ms)
{
	_delay_cycles(hardware, _get_cycles_for_ms(ms));
     424:	4b04      	ldr	r3, [pc, #16]	; (438 <delay_ms+0x14>)
{
     426:	b510      	push	{r4, lr}
	_delay_cycles(hardware, _get_cycles_for_ms(ms));
     428:	681c      	ldr	r4, [r3, #0]
     42a:	4b04      	ldr	r3, [pc, #16]	; (43c <delay_ms+0x18>)
     42c:	4798      	blx	r3
     42e:	4b04      	ldr	r3, [pc, #16]	; (440 <delay_ms+0x1c>)
     430:	0001      	movs	r1, r0
     432:	0020      	movs	r0, r4
     434:	4798      	blx	r3
}
     436:	bd10      	pop	{r4, pc}
     438:	200000a0 	.word	0x200000a0
     43c:	000007d5 	.word	0x000007d5
     440:	00000b99 	.word	0x00000b99

00000444 <flash_ready>:
 * \param[in] device The pointer to flash device structure
 */
static void flash_ready(struct _flash_device *device)
{
	struct flash_descriptor *const descr = CONTAINER_OF(device, struct flash_descriptor, dev);
	if (descr->callbacks.cb_ready) {
     444:	6943      	ldr	r3, [r0, #20]
{
     446:	b510      	push	{r4, lr}
	if (descr->callbacks.cb_ready) {
     448:	2b00      	cmp	r3, #0
     44a:	d000      	beq.n	44e <flash_ready+0xa>
		descr->callbacks.cb_ready(descr);
     44c:	4798      	blx	r3
	}
}
     44e:	bd10      	pop	{r4, pc}

00000450 <flash_error>:
 * \param[in] device The pointer to flash device structure
 */
static void flash_error(struct _flash_device *device)
{
	struct flash_descriptor *const descr = CONTAINER_OF(device, struct flash_descriptor, dev);
	if (descr->callbacks.cb_error) {
     450:	6983      	ldr	r3, [r0, #24]
{
     452:	b510      	push	{r4, lr}
	if (descr->callbacks.cb_error) {
     454:	2b00      	cmp	r3, #0
     456:	d000      	beq.n	45a <flash_error+0xa>
		descr->callbacks.cb_error(descr);
     458:	4798      	blx	r3
	}
}
     45a:	bd10      	pop	{r4, pc}

0000045c <flash_init>:
{
     45c:	b570      	push	{r4, r5, r6, lr}
     45e:	0004      	movs	r4, r0
     460:	000d      	movs	r5, r1
	ASSERT(flash && hw);
     462:	2800      	cmp	r0, #0
     464:	d012      	beq.n	48c <flash_init+0x30>
     466:	0008      	movs	r0, r1
     468:	1e43      	subs	r3, r0, #1
     46a:	4198      	sbcs	r0, r3
     46c:	b2c0      	uxtb	r0, r0
     46e:	4908      	ldr	r1, [pc, #32]	; (490 <flash_init+0x34>)
     470:	4b08      	ldr	r3, [pc, #32]	; (494 <flash_init+0x38>)
     472:	2238      	movs	r2, #56	; 0x38
     474:	4798      	blx	r3
	rc = _flash_init(&flash->dev, hw);
     476:	0029      	movs	r1, r5
     478:	0020      	movs	r0, r4
     47a:	4b07      	ldr	r3, [pc, #28]	; (498 <flash_init+0x3c>)
     47c:	4798      	blx	r3
	if (rc) {
     47e:	2800      	cmp	r0, #0
     480:	d103      	bne.n	48a <flash_init+0x2e>
	flash->dev.flash_cb.ready_cb = flash_ready;
     482:	4b06      	ldr	r3, [pc, #24]	; (49c <flash_init+0x40>)
     484:	6023      	str	r3, [r4, #0]
	flash->dev.flash_cb.error_cb = flash_error;
     486:	4b06      	ldr	r3, [pc, #24]	; (4a0 <flash_init+0x44>)
     488:	6063      	str	r3, [r4, #4]
}
     48a:	bd70      	pop	{r4, r5, r6, pc}
     48c:	2000      	movs	r0, #0
     48e:	e7ee      	b.n	46e <flash_init+0x12>
     490:	00000fac 	.word	0x00000fac
     494:	000004a5 	.word	0x000004a5
     498:	00000855 	.word	0x00000855
     49c:	00000445 	.word	0x00000445
     4a0:	00000451 	.word	0x00000451

000004a4 <assert>:
/**
 * \brief Assert function
 */
void assert(const bool condition, const char *const file, const int line)
{
	if (!(condition)) {
     4a4:	2800      	cmp	r0, #0
     4a6:	d100      	bne.n	4aa <assert+0x6>
		__asm("BKPT #0");
     4a8:	be00      	bkpt	0x0000
	}
	(void)file;
	(void)line;
}
     4aa:	4770      	bx	lr

000004ac <_sbrk>:
extern caddr_t _sbrk(int incr)
{
	static unsigned char *heap = NULL;
	unsigned char *       prev_heap;

	if (heap == NULL) {
     4ac:	4a04      	ldr	r2, [pc, #16]	; (4c0 <_sbrk+0x14>)
     4ae:	6813      	ldr	r3, [r2, #0]
     4b0:	2b00      	cmp	r3, #0
     4b2:	d003      	beq.n	4bc <_sbrk+0x10>
		heap = (unsigned char *)&_end;
	}
	prev_heap = heap;

	heap += incr;
     4b4:	1818      	adds	r0, r3, r0
     4b6:	6010      	str	r0, [r2, #0]

	return (caddr_t)prev_heap;
}
     4b8:	0018      	movs	r0, r3
     4ba:	4770      	bx	lr
     4bc:	4b01      	ldr	r3, [pc, #4]	; (4c4 <_sbrk+0x18>)
     4be:	e7f9      	b.n	4b4 <_sbrk+0x8>
     4c0:	200000a4 	.word	0x200000a4
     4c4:	20002110 	.word	0x20002110

000004c8 <_aes_sync_init>:
	hri_aes_set_CTRLA_ENABLE_bit(dev->hw);
	ctr[15] = 0;
	__aes_sync_set_iv(dev, ctr);
	__aes_sync_set_key(dev);
	if (tag_len < 16) {
		memset(b, 0, 16);
     4c8:	2300      	movs	r3, #0
     4ca:	600b      	str	r3, [r1, #0]
     4cc:	3301      	adds	r3, #1
		len_use = len_left < 16 - 2 ? len_left : 16 - 2;
     4ce:	600b      	str	r3, [r1, #0]
     4d0:	6001      	str	r1, [r0, #0]
     4d2:	2000      	movs	r0, #0
     4d4:	724b      	strb	r3, [r1, #9]
     4d6:	4770      	bx	lr

000004d8 <_aes_sync_enable>:
		return ERR_INVALID_ARG;
     4d8:	2000      	movs	r0, #0
	if (block > 0) {
     4da:	4770      	bx	lr

000004dc <_aes_sync_set_key>:
		return ERR_INVALID_ARG;
     4dc:	2338      	movs	r3, #56	; 0x38
	if (block > 0) {
     4de:	b510      	push	{r4, lr}
     4e0:	54c2      	strb	r2, [r0, r3]
     4e2:	3202      	adds	r2, #2
     4e4:	3004      	adds	r0, #4
		for (index = 2; index < len_use + 2; index++) {
     4e6:	00d2      	lsls	r2, r2, #3
     4e8:	4b01      	ldr	r3, [pc, #4]	; (4f0 <_aes_sync_set_key+0x14>)
     4ea:	4798      	blx	r3
     4ec:	2000      	movs	r0, #0
     4ee:	bd10      	pop	{r4, pc}
     4f0:	00000df5 	.word	0x00000df5

000004f4 <_aes_sync_cbc_crypt>:
     4f4:	b5f0      	push	{r4, r5, r6, r7, lr}
     4f6:	4657      	mov	r7, sl
     4f8:	464e      	mov	r6, r9
     4fa:	4645      	mov	r5, r8
     4fc:	46de      	mov	lr, fp
     4fe:	0004      	movs	r4, r0
     500:	b5e0      	push	{r5, r6, r7, lr}
     502:	6807      	ldr	r7, [r0, #0]
}

static inline void hri_aes_clear_CTRLA_ENABLE_bit(const void *const hw)
{
	AES_CRITICAL_SECTION_ENTER();
	((Aes *)hw)->CTRLA.reg &= ~AES_CTRLA_ENABLE;
     504:	2002      	movs	r0, #2
{
     506:	b089      	sub	sp, #36	; 0x24
     508:	9306      	str	r3, [sp, #24]
     50a:	683b      	ldr	r3, [r7, #0]
     50c:	000e      	movs	r6, r1
     50e:	4383      	bics	r3, r0
     510:	9107      	str	r1, [sp, #28]
}

static inline void hri_aes_write_CTRLA_reg(const void *const hw, hri_aes_ctrla_reg_t data)
{
	AES_CRITICAL_SECTION_ENTER();
	((Aes *)hw)->CTRLA.reg = data;
     512:	2100      	movs	r1, #0
	((Aes *)hw)->CTRLA.reg &= ~AES_CTRLA_ENABLE;
     514:	603b      	str	r3, [r7, #0]
	AES_CTRLA_AESMODE(1) | AES_CTRLA_KEYSIZE(dev->keysize) | (enc << AES_CTRLA_CIPHER_Pos));
     516:	2338      	movs	r3, #56	; 0x38
	((Aes *)hw)->CTRLA.reg = data;
     518:	6039      	str	r1, [r7, #0]
     51a:	5ce5      	ldrb	r5, [r4, r3]
     51c:	23c0      	movs	r3, #192	; 0xc0
{
     51e:	9205      	str	r2, [sp, #20]
	AES_CTRLA_AESMODE(1) | AES_CTRLA_KEYSIZE(dev->keysize) | (enc << AES_CTRLA_CIPHER_Pos));
     520:	009b      	lsls	r3, r3, #2
     522:	022a      	lsls	r2, r5, #8
     524:	4013      	ands	r3, r2
     526:	02b2      	lsls	r2, r6, #10
     528:	2604      	movs	r6, #4
     52a:	4332      	orrs	r2, r6
     52c:	4313      	orrs	r3, r2
     52e:	603b      	str	r3, [r7, #0]
	((Aes *)hw)->CTRLA.reg |= AES_CTRLA_CTYPE(mask);
     530:	683b      	ldr	r3, [r7, #0]
}

static inline void hri_aes_set_RANDSEED_reg(const void *const hw, hri_aes_randseed_reg_t mask)
{
	AES_CRITICAL_SECTION_ENTER();
	((Aes *)hw)->RANDSEED.reg |= mask;
     532:	4aa6      	ldr	r2, [pc, #664]	; (7cc <_aes_sync_cbc_crypt+0x2d8>)
	((Aes *)hw)->CTRLA.reg |= AES_CTRLA_CTYPE(mask);
     534:	603b      	str	r3, [r7, #0]
	((Aes *)hw)->RANDSEED.reg |= mask;
     536:	2384      	movs	r3, #132	; 0x84
     538:	58fe      	ldr	r6, [r7, r3]
	for (i = 0; i < ((dev->keysize + 2) << 1); i++) {
     53a:	3502      	adds	r5, #2
     53c:	4332      	orrs	r2, r6
     53e:	50fa      	str	r2, [r7, r3]
     540:	26ff      	movs	r6, #255	; 0xff
     542:	2200      	movs	r2, #0
	((Aes *)hw)->CTRLA.reg |= AES_CTRLA_ENABLE;
     544:	683b      	ldr	r3, [r7, #0]
     546:	006d      	lsls	r5, r5, #1
     548:	4303      	orrs	r3, r0
     54a:	603b      	str	r3, [r7, #0]
	((Aes *)hw)->CTRLB.reg = data;
     54c:	7139      	strb	r1, [r7, #4]
     54e:	1d21      	adds	r1, r4, #4
     550:	0033      	movs	r3, r6
     552:	4013      	ands	r3, r2
}

static inline void hri_aes_write_KEYWORD_reg(const void *const hw, uint8_t index, hri_aes_keyword_reg_t data)
{
	AES_CRITICAL_SECTION_ENTER();
	((Aes *)hw)->KEYWORD[index].reg = data;
     554:	3302      	adds	r3, #2
		hri_aes_write_KEYWORD_reg(dev->hw, i, (((uint32_t *)(dev->key))[i]));
     556:	c901      	ldmia	r1!, {r0}
     558:	009b      	lsls	r3, r3, #2
     55a:	18fb      	adds	r3, r7, r3
	for (i = 0; i < ((dev->keysize + 2) << 1); i++) {
     55c:	3201      	adds	r2, #1
     55e:	6058      	str	r0, [r3, #4]
     560:	42aa      	cmp	r2, r5
     562:	d1f5      	bne.n	550 <_aes_sync_cbc_crypt+0x5c>
	((Aes *)hw)->CTRLB.reg |= AES_CTRLB_NEWMSG;
     564:	2202      	movs	r2, #2
     566:	793b      	ldrb	r3, [r7, #4]
     568:	4313      	orrs	r3, r2
     56a:	713b      	strb	r3, [r7, #4]
     56c:	9b13      	ldr	r3, [sp, #76]	; 0x4c
     56e:	079b      	lsls	r3, r3, #30
     570:	d100      	bne.n	574 <_aes_sync_cbc_crypt+0x80>
     572:	e111      	b.n	798 <_aes_sync_cbc_crypt+0x2a4>
			hri_aes_write_INTVECTV_reg(dev->hw,
     574:	9b13      	ldr	r3, [sp, #76]	; 0x4c
     576:	781b      	ldrb	r3, [r3, #0]
}

static inline void hri_aes_write_INTVECTV_reg(const void *const hw, uint8_t index, hri_aes_intvectv_reg_t data)
{
	AES_CRITICAL_SECTION_ENTER();
	((Aes *)hw)->INTVECTV[index].reg = data;
     578:	63fb      	str	r3, [r7, #60]	; 0x3c
     57a:	9b13      	ldr	r3, [sp, #76]	; 0x4c
     57c:	791b      	ldrb	r3, [r3, #4]
     57e:	643b      	str	r3, [r7, #64]	; 0x40
     580:	9b13      	ldr	r3, [sp, #76]	; 0x4c
     582:	7a1b      	ldrb	r3, [r3, #8]
     584:	647b      	str	r3, [r7, #68]	; 0x44
     586:	9b13      	ldr	r3, [sp, #76]	; 0x4c
     588:	7b1b      	ldrb	r3, [r3, #12]
     58a:	64bb      	str	r3, [r7, #72]	; 0x48
	for (block = 0; block < (length >> 4); block++) {
     58c:	9b12      	ldr	r3, [sp, #72]	; 0x48
     58e:	091b      	lsrs	r3, r3, #4
     590:	d100      	bne.n	594 <_aes_sync_cbc_crypt+0xa0>
     592:	e0e5      	b.n	760 <_aes_sync_cbc_crypt+0x26c>
     594:	210c      	movs	r1, #12
     596:	9e06      	ldr	r6, [sp, #24]
     598:	4688      	mov	r8, r1
     59a:	0032      	movs	r2, r6
     59c:	4442      	add	r2, r8
     59e:	4694      	mov	ip, r2
     5a0:	9805      	ldr	r0, [sp, #20]
     5a2:	0032      	movs	r2, r6
     5a4:	4680      	mov	r8, r0
     5a6:	3608      	adds	r6, #8
     5a8:	46b2      	mov	sl, r6
     5aa:	4666      	mov	r6, ip
     5ac:	1d11      	adds	r1, r2, #4
     5ae:	011b      	lsls	r3, r3, #4
     5b0:	000d      	movs	r5, r1
     5b2:	4498      	add	r8, r3
     5b4:	9602      	str	r6, [sp, #8]
     5b6:	4646      	mov	r6, r8
     5b8:	46a8      	mov	r8, r5
     5ba:	4655      	mov	r5, sl
     5bc:	9604      	str	r6, [sp, #16]
     5be:	003e      	movs	r6, r7
     5c0:	0003      	movs	r3, r0
	((Aes *)hw)->DATABUFPTR.reg &= ~AES_DATABUFPTR_INDATAPTR(mask);
     5c2:	2003      	movs	r0, #3
	((Aes *)hw)->CTRLB.reg |= AES_CTRLB_START;
     5c4:	2101      	movs	r1, #1
     5c6:	9501      	str	r5, [sp, #4]
	((Aes *)hw)->DATABUFPTR.reg &= ~AES_DATABUFPTR_INDATAPTR(mask);
     5c8:	7a35      	ldrb	r5, [r6, #8]
	((Aes *)hw)->CTRLB.reg |= AES_CTRLB_START;
     5ca:	4689      	mov	r9, r1
	((Aes *)hw)->DATABUFPTR.reg &= ~AES_DATABUFPTR_INDATAPTR(mask);
     5cc:	4385      	bics	r5, r0
		while (hri_aes_get_interrupt_ENCCMP_bit(dev->hw) == 0)
     5ce:	2101      	movs	r1, #1
     5d0:	7235      	strb	r5, [r6, #8]
		if (((uint32_t)data) & 0x3) {
     5d2:	4203      	tst	r3, r0
     5d4:	d137      	bne.n	646 <_aes_sync_cbc_crypt+0x152>
	((Aes *)hw)->INDATA.reg = data;
     5d6:	681d      	ldr	r5, [r3, #0]
     5d8:	63b5      	str	r5, [r6, #56]	; 0x38
     5da:	685d      	ldr	r5, [r3, #4]
     5dc:	63b5      	str	r5, [r6, #56]	; 0x38
     5de:	689d      	ldr	r5, [r3, #8]
     5e0:	63b5      	str	r5, [r6, #56]	; 0x38
     5e2:	68dd      	ldr	r5, [r3, #12]
     5e4:	63b5      	str	r5, [r6, #56]	; 0x38
	((Aes *)hw)->CTRLB.reg |= AES_CTRLB_START;
     5e6:	464f      	mov	r7, r9
     5e8:	7935      	ldrb	r5, [r6, #4]
		inptr += 16;
     5ea:	3310      	adds	r3, #16
     5ec:	433d      	orrs	r5, r7
     5ee:	466f      	mov	r7, sp
     5f0:	73fd      	strb	r5, [r7, #15]
     5f2:	7bfd      	ldrb	r5, [r7, #15]
     5f4:	9f01      	ldr	r7, [sp, #4]
     5f6:	7135      	strb	r5, [r6, #4]
	return (((Aes *)hw)->INTFLAG.reg & AES_INTFLAG_ENCCMP) >> AES_INTFLAG_ENCCMP_Pos;
     5f8:	79f5      	ldrb	r5, [r6, #7]
		while (hri_aes_get_interrupt_ENCCMP_bit(dev->hw) == 0)
     5fa:	4229      	tst	r1, r5
     5fc:	d0fc      	beq.n	5f8 <_aes_sync_cbc_crypt+0x104>
     5fe:	9701      	str	r7, [sp, #4]
		if (((uint32_t)output) & 0x3) {
     600:	4202      	tst	r2, r0
     602:	d17d      	bne.n	700 <_aes_sync_cbc_crypt+0x20c>
	return ((Aes *)hw)->INDATA.reg;
     604:	6bb6      	ldr	r6, [r6, #56]	; 0x38
			((uint32_t *)output)[i] = hri_aes_read_INDATA_reg(dev->hw);
     606:	6016      	str	r6, [r2, #0]
     608:	0016      	movs	r6, r2
     60a:	6825      	ldr	r5, [r4, #0]
     60c:	46aa      	mov	sl, r5
     60e:	6bad      	ldr	r5, [r5, #56]	; 0x38
     610:	6075      	str	r5, [r6, #4]
     612:	4655      	mov	r5, sl
     614:	6bad      	ldr	r5, [r5, #56]	; 0x38
     616:	60b5      	str	r5, [r6, #8]
     618:	4655      	mov	r5, sl
     61a:	6bad      	ldr	r5, [r5, #56]	; 0x38
     61c:	60f5      	str	r5, [r6, #12]
     61e:	9d02      	ldr	r5, [sp, #8]
     620:	3510      	adds	r5, #16
     622:	9502      	str	r5, [sp, #8]
     624:	9d01      	ldr	r5, [sp, #4]
		outptr += 16;
     626:	3210      	adds	r2, #16
     628:	3510      	adds	r5, #16
     62a:	9501      	str	r5, [sp, #4]
     62c:	2510      	movs	r5, #16
     62e:	46ac      	mov	ip, r5
	for (block = 0; block < (length >> 4); block++) {
     630:	9d04      	ldr	r5, [sp, #16]
     632:	44e0      	add	r8, ip
     634:	42ab      	cmp	r3, r5
     636:	d100      	bne.n	63a <_aes_sync_cbc_crypt+0x146>
     638:	e092      	b.n	760 <_aes_sync_cbc_crypt+0x26c>
     63a:	6826      	ldr	r6, [r4, #0]
	((Aes *)hw)->DATABUFPTR.reg &= ~AES_DATABUFPTR_INDATAPTR(mask);
     63c:	7a35      	ldrb	r5, [r6, #8]
     63e:	4385      	bics	r5, r0
     640:	7235      	strb	r5, [r6, #8]
		if (((uint32_t)data) & 0x3) {
     642:	4203      	tst	r3, r0
     644:	d0c7      	beq.n	5d6 <_aes_sync_cbc_crypt+0xe2>
     646:	781d      	ldrb	r5, [r3, #0]
     648:	46ac      	mov	ip, r5
     64a:	785d      	ldrb	r5, [r3, #1]
     64c:	022d      	lsls	r5, r5, #8
     64e:	46ab      	mov	fp, r5
     650:	4665      	mov	r5, ip
     652:	465f      	mov	r7, fp
     654:	433d      	orrs	r5, r7
     656:	46ab      	mov	fp, r5
     658:	789d      	ldrb	r5, [r3, #2]
     65a:	042d      	lsls	r5, r5, #16
     65c:	46ac      	mov	ip, r5
     65e:	465d      	mov	r5, fp
     660:	4667      	mov	r7, ip
     662:	433d      	orrs	r5, r7
     664:	46ab      	mov	fp, r5
     666:	78dd      	ldrb	r5, [r3, #3]
     668:	062d      	lsls	r5, r5, #24
     66a:	46ac      	mov	ip, r5
     66c:	465d      	mov	r5, fp
     66e:	4667      	mov	r7, ip
     670:	433d      	orrs	r5, r7
	((Aes *)hw)->INDATA.reg = data;
     672:	63b5      	str	r5, [r6, #56]	; 0x38
     674:	791d      	ldrb	r5, [r3, #4]
     676:	46ac      	mov	ip, r5
     678:	795d      	ldrb	r5, [r3, #5]
     67a:	022d      	lsls	r5, r5, #8
     67c:	46ab      	mov	fp, r5
     67e:	4665      	mov	r5, ip
     680:	465f      	mov	r7, fp
     682:	433d      	orrs	r5, r7
     684:	46ab      	mov	fp, r5
     686:	799d      	ldrb	r5, [r3, #6]
     688:	042d      	lsls	r5, r5, #16
     68a:	46ac      	mov	ip, r5
     68c:	465d      	mov	r5, fp
     68e:	4667      	mov	r7, ip
     690:	433d      	orrs	r5, r7
     692:	46ab      	mov	fp, r5
     694:	79dd      	ldrb	r5, [r3, #7]
     696:	062d      	lsls	r5, r5, #24
     698:	46ac      	mov	ip, r5
     69a:	465d      	mov	r5, fp
     69c:	4667      	mov	r7, ip
     69e:	433d      	orrs	r5, r7
     6a0:	63b5      	str	r5, [r6, #56]	; 0x38
     6a2:	7a1d      	ldrb	r5, [r3, #8]
     6a4:	46ac      	mov	ip, r5
     6a6:	7a5d      	ldrb	r5, [r3, #9]
     6a8:	022d      	lsls	r5, r5, #8
     6aa:	46ab      	mov	fp, r5
     6ac:	4665      	mov	r5, ip
     6ae:	465f      	mov	r7, fp
     6b0:	433d      	orrs	r5, r7
     6b2:	46ab      	mov	fp, r5
     6b4:	7a9d      	ldrb	r5, [r3, #10]
     6b6:	042d      	lsls	r5, r5, #16
     6b8:	46ac      	mov	ip, r5
     6ba:	465d      	mov	r5, fp
     6bc:	4667      	mov	r7, ip
     6be:	433d      	orrs	r5, r7
     6c0:	46ab      	mov	fp, r5
     6c2:	7add      	ldrb	r5, [r3, #11]
     6c4:	062d      	lsls	r5, r5, #24
     6c6:	46ac      	mov	ip, r5
     6c8:	465d      	mov	r5, fp
     6ca:	4667      	mov	r7, ip
     6cc:	433d      	orrs	r5, r7
     6ce:	63b5      	str	r5, [r6, #56]	; 0x38
     6d0:	7b1d      	ldrb	r5, [r3, #12]
     6d2:	46ac      	mov	ip, r5
     6d4:	7b5d      	ldrb	r5, [r3, #13]
     6d6:	022d      	lsls	r5, r5, #8
     6d8:	46ab      	mov	fp, r5
     6da:	4665      	mov	r5, ip
     6dc:	465f      	mov	r7, fp
     6de:	433d      	orrs	r5, r7
     6e0:	46ab      	mov	fp, r5
     6e2:	7b9d      	ldrb	r5, [r3, #14]
     6e4:	042d      	lsls	r5, r5, #16
     6e6:	46ac      	mov	ip, r5
     6e8:	465d      	mov	r5, fp
     6ea:	4667      	mov	r7, ip
     6ec:	433d      	orrs	r5, r7
     6ee:	46ab      	mov	fp, r5
     6f0:	7bdd      	ldrb	r5, [r3, #15]
     6f2:	062d      	lsls	r5, r5, #24
     6f4:	46ac      	mov	ip, r5
     6f6:	465d      	mov	r5, fp
     6f8:	4667      	mov	r7, ip
     6fa:	433d      	orrs	r5, r7
     6fc:	63b5      	str	r5, [r6, #56]	; 0x38
     6fe:	e772      	b.n	5e6 <_aes_sync_cbc_crypt+0xf2>
	return ((Aes *)hw)->INDATA.reg;
     700:	6bb5      	ldr	r5, [r6, #56]	; 0x38
			*output++ = (buf >> 8) & 0xFF;
     702:	0a2e      	lsrs	r6, r5, #8
     704:	7056      	strb	r6, [r2, #1]
			*output++ = (buf >> 16) & 0xFF;
     706:	0c2e      	lsrs	r6, r5, #16
     708:	7096      	strb	r6, [r2, #2]
			*output++ = (buf >> 24) & 0xFF;
     70a:	4646      	mov	r6, r8
			*output++ = buf & 0xFF;
     70c:	7015      	strb	r5, [r2, #0]
			*output++ = (buf >> 24) & 0xFF;
     70e:	0e2d      	lsrs	r5, r5, #24
     710:	70d5      	strb	r5, [r2, #3]
		if (((uint32_t)output) & 0x3) {
     712:	4230      	tst	r0, r6
     714:	d100      	bne.n	718 <_aes_sync_cbc_crypt+0x224>
     716:	e778      	b.n	60a <_aes_sync_cbc_crypt+0x116>
     718:	6825      	ldr	r5, [r4, #0]
     71a:	6bad      	ldr	r5, [r5, #56]	; 0x38
			*output++ = (buf >> 8) & 0xFF;
     71c:	0a2e      	lsrs	r6, r5, #8
			*output++ = buf & 0xFF;
     71e:	7115      	strb	r5, [r2, #4]
			*output++ = (buf >> 8) & 0xFF;
     720:	7156      	strb	r6, [r2, #5]
			*output++ = (buf >> 16) & 0xFF;
     722:	0c2e      	lsrs	r6, r5, #16
			*output++ = (buf >> 24) & 0xFF;
     724:	0e2d      	lsrs	r5, r5, #24
			*output++ = (buf >> 16) & 0xFF;
     726:	7196      	strb	r6, [r2, #6]
			*output++ = (buf >> 24) & 0xFF;
     728:	71d5      	strb	r5, [r2, #7]
     72a:	003e      	movs	r6, r7
		if (((uint32_t)output) & 0x3) {
     72c:	4238      	tst	r0, r7
     72e:	d04a      	beq.n	7c6 <_aes_sync_cbc_crypt+0x2d2>
     730:	6825      	ldr	r5, [r4, #0]
			*output++ = (buf >> 24) & 0xFF;
     732:	9f02      	ldr	r7, [sp, #8]
     734:	6bad      	ldr	r5, [r5, #56]	; 0x38
			*output++ = (buf >> 8) & 0xFF;
     736:	0a2e      	lsrs	r6, r5, #8
			*output++ = buf & 0xFF;
     738:	7215      	strb	r5, [r2, #8]
			*output++ = (buf >> 8) & 0xFF;
     73a:	7256      	strb	r6, [r2, #9]
			*output++ = (buf >> 16) & 0xFF;
     73c:	0c2e      	lsrs	r6, r5, #16
			*output++ = (buf >> 24) & 0xFF;
     73e:	0e2d      	lsrs	r5, r5, #24
			*output++ = (buf >> 16) & 0xFF;
     740:	7296      	strb	r6, [r2, #10]
			*output++ = (buf >> 24) & 0xFF;
     742:	72d5      	strb	r5, [r2, #11]
     744:	003e      	movs	r6, r7
		if (((uint32_t)output) & 0x3) {
     746:	4238      	tst	r0, r7
     748:	d03a      	beq.n	7c0 <_aes_sync_cbc_crypt+0x2cc>
     74a:	6825      	ldr	r5, [r4, #0]
     74c:	6bae      	ldr	r6, [r5, #56]	; 0x38
			*output++ = (buf >> 8) & 0xFF;
     74e:	0a35      	lsrs	r5, r6, #8
			*output++ = buf & 0xFF;
     750:	7316      	strb	r6, [r2, #12]
			*output++ = (buf >> 8) & 0xFF;
     752:	7355      	strb	r5, [r2, #13]
			*output++ = (buf >> 16) & 0xFF;
     754:	0c35      	lsrs	r5, r6, #16
			*output++ = (buf >> 24) & 0xFF;
     756:	0e36      	lsrs	r6, r6, #24
			*output++ = (buf >> 16) & 0xFF;
     758:	7395      	strb	r5, [r2, #14]
			*output++ = (buf >> 24) & 0xFF;
     75a:	73d6      	strb	r6, [r2, #15]
     75c:	003d      	movs	r5, r7
     75e:	e75f      	b.n	620 <_aes_sync_cbc_crypt+0x12c>
	memcpy(iv, (enc == AES_ENCRYPT) ? output + length - 16 : input + length - 16, 16);
     760:	9b07      	ldr	r3, [sp, #28]
     762:	2b01      	cmp	r3, #1
     764:	d026      	beq.n	7b4 <_aes_sync_cbc_crypt+0x2c0>
     766:	9b05      	ldr	r3, [sp, #20]
     768:	9912      	ldr	r1, [sp, #72]	; 0x48
     76a:	469c      	mov	ip, r3
     76c:	3910      	subs	r1, #16
     76e:	4461      	add	r1, ip
     770:	2210      	movs	r2, #16
     772:	9813      	ldr	r0, [sp, #76]	; 0x4c
     774:	4b16      	ldr	r3, [pc, #88]	; (7d0 <_aes_sync_cbc_crypt+0x2dc>)
     776:	4798      	blx	r3
	((Aes *)hw)->CTRLB.reg &= ~AES_CTRLB_NEWMSG;
     778:	2102      	movs	r1, #2
}
     77a:	2000      	movs	r0, #0
	hri_aes_clear_CTRLB_NEWMSG_bit(dev->hw);
     77c:	6823      	ldr	r3, [r4, #0]
     77e:	791a      	ldrb	r2, [r3, #4]
     780:	438a      	bics	r2, r1
     782:	711a      	strb	r2, [r3, #4]
	((Aes *)hw)->CTRLA.reg &= ~AES_CTRLA_ENABLE;
     784:	681a      	ldr	r2, [r3, #0]
     786:	438a      	bics	r2, r1
     788:	601a      	str	r2, [r3, #0]
}
     78a:	b009      	add	sp, #36	; 0x24
     78c:	bc3c      	pop	{r2, r3, r4, r5}
     78e:	4690      	mov	r8, r2
     790:	4699      	mov	r9, r3
     792:	46a2      	mov	sl, r4
     794:	46ab      	mov	fp, r5
     796:	bdf0      	pop	{r4, r5, r6, r7, pc}
			hri_aes_write_INTVECTV_reg(dev->hw, i, ((uint32_t *)iv)[i]);
     798:	9b13      	ldr	r3, [sp, #76]	; 0x4c
     79a:	681b      	ldr	r3, [r3, #0]
	((Aes *)hw)->INTVECTV[index].reg = data;
     79c:	63fb      	str	r3, [r7, #60]	; 0x3c
     79e:	9b13      	ldr	r3, [sp, #76]	; 0x4c
     7a0:	685b      	ldr	r3, [r3, #4]
     7a2:	643b      	str	r3, [r7, #64]	; 0x40
     7a4:	9b13      	ldr	r3, [sp, #76]	; 0x4c
     7a6:	689b      	ldr	r3, [r3, #8]
     7a8:	647b      	str	r3, [r7, #68]	; 0x44
     7aa:	9b13      	ldr	r3, [sp, #76]	; 0x4c
     7ac:	68db      	ldr	r3, [r3, #12]
     7ae:	9301      	str	r3, [sp, #4]
     7b0:	64bb      	str	r3, [r7, #72]	; 0x48
     7b2:	e6eb      	b.n	58c <_aes_sync_cbc_crypt+0x98>
	memcpy(iv, (enc == AES_ENCRYPT) ? output + length - 16 : input + length - 16, 16);
     7b4:	9b06      	ldr	r3, [sp, #24]
     7b6:	9912      	ldr	r1, [sp, #72]	; 0x48
     7b8:	469c      	mov	ip, r3
     7ba:	3910      	subs	r1, #16
     7bc:	4461      	add	r1, ip
     7be:	e7d7      	b.n	770 <_aes_sync_cbc_crypt+0x27c>
     7c0:	6825      	ldr	r5, [r4, #0]
     7c2:	46aa      	mov	sl, r5
     7c4:	e728      	b.n	618 <_aes_sync_cbc_crypt+0x124>
     7c6:	6825      	ldr	r5, [r4, #0]
     7c8:	46aa      	mov	sl, r5
     7ca:	e722      	b.n	612 <_aes_sync_cbc_crypt+0x11e>
     7cc:	ffaffcff 	.word	0xffaffcff
     7d0:	00000df5 	.word	0x00000df5

000007d4 <_get_cycles_for_ms>:
{
	switch (power) {
	case 8:
		return (ms * (freq / 100000)) * 100;
	case 7:
		return (ms * (freq / 10000)) * 10;
     7d4:	23fa      	movs	r3, #250	; 0xfa
     7d6:	011b      	lsls	r3, r3, #4
     7d8:	4358      	muls	r0, r3
 * \brief Retrieve the amount of cycles to delay for the given amount of ms
 */
uint32_t _get_cycles_for_ms(const uint16_t ms)
{
	return _get_cycles_for_ms_internal(ms, CONF_CPU_FREQUENCY, CPU_FREQ_POWER);
}
     7da:	4770      	bx	lr

000007dc <_init_chip>:

/**
 * \brief Initialize the hardware abstraction layer
 */
void _init_chip(void)
{
     7dc:	b510      	push	{r4, lr}
}

static inline void hri_nvmctrl_set_CTRLB_RWS_bf(const void *const hw, hri_nvmctrl_ctrlb_reg_t mask)
{
	NVMCTRL_CRITICAL_SECTION_ENTER();
	((Nvmctrl *)hw)->CTRLB.reg |= NVMCTRL_CTRLB_RWS(mask);
     7de:	4b09      	ldr	r3, [pc, #36]	; (804 <_init_chip+0x28>)
	hri_nvmctrl_set_CTRLB_RWS_bf(NVMCTRL, CONF_NVM_WAIT_STATE);

	_set_performance_level(2);
     7e0:	2002      	movs	r0, #2
     7e2:	685a      	ldr	r2, [r3, #4]
     7e4:	605a      	str	r2, [r3, #4]
     7e6:	4b08      	ldr	r3, [pc, #32]	; (808 <_init_chip+0x2c>)
     7e8:	4798      	blx	r3

	_osc32kctrl_init_sources();
     7ea:	4b08      	ldr	r3, [pc, #32]	; (80c <_init_chip+0x30>)
     7ec:	4798      	blx	r3
	_oscctrl_init_sources();
     7ee:	4b08      	ldr	r3, [pc, #32]	; (810 <_init_chip+0x34>)
     7f0:	4798      	blx	r3
	_mclk_init();
     7f2:	4b08      	ldr	r3, [pc, #32]	; (814 <_init_chip+0x38>)
     7f4:	4798      	blx	r3
#if _GCLK_INIT_1ST
	_gclk_init_generators_by_fref(_GCLK_INIT_1ST);
#endif
	_oscctrl_init_referenced_generators();
     7f6:	4b08      	ldr	r3, [pc, #32]	; (818 <_init_chip+0x3c>)
     7f8:	4798      	blx	r3
	_gclk_init_generators_by_fref(_GCLK_INIT_LAST);
     7fa:	20ff      	movs	r0, #255	; 0xff
     7fc:	4b07      	ldr	r3, [pc, #28]	; (81c <_init_chip+0x40>)
     7fe:	4798      	blx	r3
#endif

#if (CONF_PORT_EVCTRL_PORT_0 | CONF_PORT_EVCTRL_PORT_1 | CONF_PORT_EVCTRL_PORT_2 | CONF_PORT_EVCTRL_PORT_3)
	_port_event_init();
#endif
}
     800:	bd10      	pop	{r4, pc}
     802:	46c0      	nop			; (mov r8, r8)
     804:	41004000 	.word	0x41004000
     808:	00000b61 	.word	0x00000b61
     80c:	00000b11 	.word	0x00000b11
     810:	00000b29 	.word	0x00000b29
     814:	00000841 	.word	0x00000841
     818:	00000b5d 	.word	0x00000b5d
     81c:	00000821 	.word	0x00000821

00000820 <_gclk_init_generators_by_fref>:

void _gclk_init_generators_by_fref(uint32_t bm)
{

#if CONF_GCLK_GENERATOR_0_CONFIG == 1
	if (bm & (1ul << 0)) {
     820:	07c3      	lsls	r3, r0, #31
     822:	d506      	bpl.n	832 <_gclk_init_generators_by_fref+0x12>
}

static inline void hri_gclk_write_GENCTRL_reg(const void *const hw, uint8_t index, hri_gclk_genctrl_reg_t data)
{
	GCLK_CRITICAL_SECTION_ENTER();
	((Gclk *)hw)->GENCTRL[index].reg = data;
     824:	4a03      	ldr	r2, [pc, #12]	; (834 <_gclk_init_generators_by_fref+0x14>)
     826:	4b04      	ldr	r3, [pc, #16]	; (838 <_gclk_init_generators_by_fref+0x18>)
	while (((Gclk *)hw)->SYNCBUSY.reg & reg) {
     828:	4904      	ldr	r1, [pc, #16]	; (83c <_gclk_init_generators_by_fref+0x1c>)
	((Gclk *)hw)->GENCTRL[index].reg = data;
     82a:	6213      	str	r3, [r2, #32]
	while (((Gclk *)hw)->SYNCBUSY.reg & reg) {
     82c:	6853      	ldr	r3, [r2, #4]
     82e:	420b      	tst	r3, r1
     830:	d1fc      	bne.n	82c <_gclk_init_generators_by_fref+0xc>
		        | (CONF_GCLK_GEN_8_DIVSEL << GCLK_GENCTRL_DIVSEL_Pos) | (CONF_GCLK_GEN_8_OE << GCLK_GENCTRL_OE_Pos)
		        | (CONF_GCLK_GEN_8_OOV << GCLK_GENCTRL_OOV_Pos) | (CONF_GCLK_GEN_8_IDC << GCLK_GENCTRL_IDC_Pos)
		        | (CONF_GCLK_GENERATOR_8_CONFIG << GCLK_GENCTRL_GENEN_Pos) | CONF_GCLK_GEN_8_SOURCE);
	}
#endif
}
     832:	4770      	bx	lr
     834:	40001800 	.word	0x40001800
     838:	00010106 	.word	0x00010106
     83c:	000007fd 	.word	0x000007fd

00000840 <_mclk_init>:
	((Mclk *)hw)->BUPDIV.reg = data;
     840:	2208      	movs	r2, #8
     842:	4b03      	ldr	r3, [pc, #12]	; (850 <_mclk_init+0x10>)
     844:	719a      	strb	r2, [r3, #6]
	((Mclk *)hw)->LPDIV.reg = data;
     846:	3a04      	subs	r2, #4
     848:	715a      	strb	r2, [r3, #5]
	((Mclk *)hw)->CPUDIV.reg = data;
     84a:	3a03      	subs	r2, #3
     84c:	711a      	strb	r2, [r3, #4]
{
	void *hw = (void *)MCLK;
	hri_mclk_write_BUPDIV_reg(hw, MCLK_BUPDIV_BUPDIV(CONF_MCLK_BUPDIV));
	hri_mclk_write_LPDIV_reg(hw, MCLK_LPDIV_LPDIV(CONF_MCLK_LPDIV));
	hri_mclk_write_CPUDIV_reg(hw, MCLK_CPUDIV_CPUDIV(CONF_MCLK_CPUDIV));
}
     84e:	4770      	bx	lr
     850:	40000400 	.word	0x40000400

00000854 <_flash_init>:

/**
 * \brief Initialize NVM
 */
int32_t _flash_init(struct _flash_device *const device, void *const hw)
{
     854:	b570      	push	{r4, r5, r6, lr}
     856:	0005      	movs	r5, r0
     858:	000c      	movs	r4, r1
	ASSERT(device && (hw == NVMCTRL));
     85a:	2800      	cmp	r0, #0
     85c:	d01d      	beq.n	89a <_flash_init+0x46>
     85e:	4b10      	ldr	r3, [pc, #64]	; (8a0 <_flash_init+0x4c>)
     860:	18c8      	adds	r0, r1, r3
     862:	4243      	negs	r3, r0
     864:	4158      	adcs	r0, r3
     866:	b2c0      	uxtb	r0, r0
     868:	2246      	movs	r2, #70	; 0x46
     86a:	490e      	ldr	r1, [pc, #56]	; (8a4 <_flash_init+0x50>)
     86c:	4b0e      	ldr	r3, [pc, #56]	; (8a8 <_flash_init+0x54>)
     86e:	4798      	blx	r3

static inline hri_nvmctrl_ctrlb_reg_t hri_nvmctrl_get_CTRLB_reg(const void *const hw, hri_nvmctrl_ctrlb_reg_t mask)
{
	uint32_t tmp;
	tmp = ((Nvmctrl *)hw)->CTRLB.reg;
	tmp &= mask;
     870:	239e      	movs	r3, #158	; 0x9e
	uint32_t ctrlb;

	device->hw = hw;
     872:	612c      	str	r4, [r5, #16]
	tmp = ((Nvmctrl *)hw)->CTRLB.reg;
     874:	6862      	ldr	r2, [r4, #4]
 */
__STATIC_INLINE void __NVIC_DisableIRQ(IRQn_Type IRQn)
{
  if ((int32_t)(IRQn) >= 0)
  {
    NVIC->ICER[0U] = (uint32_t)(1UL << (((uint32_t)IRQn) & 0x1FUL));
     876:	2180      	movs	r1, #128	; 0x80
	tmp &= mask;
     878:	4013      	ands	r3, r2
     87a:	2210      	movs	r2, #16
}

static inline void hri_nvmctrl_write_CTRLB_reg(const void *const hw, hri_nvmctrl_ctrlb_reg_t data)
{
	NVMCTRL_CRITICAL_SECTION_ENTER();
	((Nvmctrl *)hw)->CTRLB.reg = data;
     87c:	6063      	str	r3, [r4, #4]
	ctrlb      = _nvm.ctrlb & ~(NVMCTRL_CTRLB_RWS_Msk | NVMCTRL_CTRLB_MANW);
	ctrlb |= hri_nvmctrl_get_CTRLB_reg(device->hw, NVMCTRL_CTRLB_RWS_Msk | NVMCTRL_CTRLB_MANW);
	hri_nvmctrl_write_CTRLB_reg(device->hw, ctrlb);

	_nvm_dev = device;
     87e:	4b0b      	ldr	r3, [pc, #44]	; (8ac <_flash_init+0x58>)
     880:	601d      	str	r5, [r3, #0]
     882:	4b0b      	ldr	r3, [pc, #44]	; (8b0 <_flash_init+0x5c>)
     884:	505a      	str	r2, [r3, r1]
  \details Acts as a special kind of Data Memory Barrier.
           It completes when all explicit memory accesses before this instruction complete.
 */
__STATIC_FORCEINLINE void __DSB(void)
{
  __ASM volatile ("dsb 0xF":::"memory");
     886:	f3bf 8f4f 	dsb	sy
  __ASM volatile ("isb 0xF":::"memory");
     88a:	f3bf 8f6f 	isb	sy
 */
__STATIC_INLINE void __NVIC_ClearPendingIRQ(IRQn_Type IRQn)
{
  if ((int32_t)(IRQn) >= 0)
  {
    NVIC->ICPR[0U] = (uint32_t)(1UL << (((uint32_t)IRQn) & 0x1FUL));
     88e:	3101      	adds	r1, #1
     890:	31ff      	adds	r1, #255	; 0xff
     892:	505a      	str	r2, [r3, r1]
	NVIC_DisableIRQ(NVMCTRL_IRQn);
	NVIC_ClearPendingIRQ(NVMCTRL_IRQn);
	NVIC_EnableIRQ(NVMCTRL_IRQn);
	return ERR_NONE;
}
     894:	2000      	movs	r0, #0
    NVIC->ISER[0U] = (uint32_t)(1UL << (((uint32_t)IRQn) & 0x1FUL));
     896:	601a      	str	r2, [r3, #0]
     898:	bd70      	pop	{r4, r5, r6, pc}
     89a:	2000      	movs	r0, #0
     89c:	e7e4      	b.n	868 <_flash_init+0x14>
     89e:	46c0      	nop			; (mov r8, r8)
     8a0:	beffc000 	.word	0xbeffc000
     8a4:	00000fc4 	.word	0x00000fc4
     8a8:	000004a5 	.word	0x000004a5
     8ac:	200000a8 	.word	0x200000a8
     8b0:	e000e100 	.word	0xe000e100

000008b4 <NVMCTRL_Handler>:
 */
void NVMCTRL_Handler(void)
{
	void *const hw = _nvm_dev->hw;

	if (hri_nvmctrl_get_interrupt_READY_bit(hw)) {
     8b4:	2201      	movs	r2, #1
	void *const hw = _nvm_dev->hw;
     8b6:	4b0b      	ldr	r3, [pc, #44]	; (8e4 <NVMCTRL_Handler+0x30>)
{
     8b8:	b510      	push	{r4, lr}
	void *const hw = _nvm_dev->hw;
     8ba:	6818      	ldr	r0, [r3, #0]
     8bc:	6903      	ldr	r3, [r0, #16]
	return (((Nvmctrl *)hw)->INTFLAG.reg & NVMCTRL_INTFLAG_READY) >> NVMCTRL_INTFLAG_READY_Pos;
     8be:	7d19      	ldrb	r1, [r3, #20]
	if (hri_nvmctrl_get_interrupt_READY_bit(hw)) {
     8c0:	420a      	tst	r2, r1
     8c2:	d004      	beq.n	8ce <NVMCTRL_Handler+0x1a>
		if (NULL != _nvm_dev->flash_cb.ready_cb) {
     8c4:	6803      	ldr	r3, [r0, #0]
     8c6:	2b00      	cmp	r3, #0
     8c8:	d000      	beq.n	8cc <NVMCTRL_Handler+0x18>
			_nvm_dev->flash_cb.ready_cb(_nvm_dev);
		}
	} else if (hri_nvmctrl_get_interrupt_ERROR_bit(hw)) {
		hri_nvmctrl_clear_interrupt_ERROR_bit(hw);
		if (NULL != _nvm_dev->flash_cb.error_cb) {
			_nvm_dev->flash_cb.error_cb(_nvm_dev);
     8ca:	4798      	blx	r3
		}
	}
}
     8cc:	bd10      	pop	{r4, pc}
	return (((Nvmctrl *)hw)->INTFLAG.reg & NVMCTRL_INTFLAG_ERROR) >> NVMCTRL_INTFLAG_ERROR_Pos;
     8ce:	7d19      	ldrb	r1, [r3, #20]
     8d0:	0849      	lsrs	r1, r1, #1
	} else if (hri_nvmctrl_get_interrupt_ERROR_bit(hw)) {
     8d2:	420a      	tst	r2, r1
     8d4:	d0fa      	beq.n	8cc <NVMCTRL_Handler+0x18>
	((Nvmctrl *)hw)->INTFLAG.reg = NVMCTRL_INTFLAG_ERROR;
     8d6:	2202      	movs	r2, #2
     8d8:	751a      	strb	r2, [r3, #20]
		if (NULL != _nvm_dev->flash_cb.error_cb) {
     8da:	6843      	ldr	r3, [r0, #4]
     8dc:	2b00      	cmp	r3, #0
     8de:	d1f4      	bne.n	8ca <NVMCTRL_Handler+0x16>
     8e0:	e7f4      	b.n	8cc <NVMCTRL_Handler+0x18>
     8e2:	46c0      	nop			; (mov r8, r8)
     8e4:	200000a8 	.word	0x200000a8

000008e8 <_rww_flash_read>:

/**
 * \brief Reads a number of bytes in the internal RWWEE Flash.
 */
int32_t _rww_flash_read(struct _flash_device *const device, const uint32_t src_addr, uint8_t *buffer, uint32_t length)
{
     8e8:	b570      	push	{r4, r5, r6, lr}
	if ((addr < NVMCTRL_RWW_EEPROM_ADDR)
     8ea:	2580      	movs	r5, #128	; 0x80
	    || (addr > (NVMCTRL_RWW_EEPROM_ADDR + NVMCTRL_PAGE_SIZE * NVMCTRL_RWWEE_PAGES))) {
     8ec:	4c19      	ldr	r4, [pc, #100]	; (954 <_rww_flash_read+0x6c>)
	if ((addr < NVMCTRL_RWW_EEPROM_ADDR)
     8ee:	01ad      	lsls	r5, r5, #6
	    || (addr > (NVMCTRL_RWW_EEPROM_ADDR + NVMCTRL_PAGE_SIZE * NVMCTRL_RWWEE_PAGES))) {
     8f0:	190c      	adds	r4, r1, r4
	if ((addr < NVMCTRL_RWW_EEPROM_ADDR)
     8f2:	42ac      	cmp	r4, r5
     8f4:	d902      	bls.n	8fc <_rww_flash_read+0x14>
	/* Check if the address is valid */
	if (!_is_valid_rww_flash_address(src_addr) || !_is_valid_rww_flash_address(src_addr + length)) {
		return ERR_BAD_ADDRESS;
     8f6:	200e      	movs	r0, #14
     8f8:	4240      	negs	r0, r0
	}

	_flash_read(device, src_addr, buffer, length);

	return ERR_NONE;
}
     8fa:	bd70      	pop	{r4, r5, r6, pc}
	    || (addr > (NVMCTRL_RWW_EEPROM_ADDR + NVMCTRL_PAGE_SIZE * NVMCTRL_RWWEE_PAGES))) {
     8fc:	4c15      	ldr	r4, [pc, #84]	; (954 <_rww_flash_read+0x6c>)
     8fe:	191c      	adds	r4, r3, r4
     900:	1864      	adds	r4, r4, r1
	if ((addr < NVMCTRL_RWW_EEPROM_ADDR)
     902:	42ac      	cmp	r4, r5
     904:	d8f7      	bhi.n	8f6 <_rww_flash_read+0xe>
	while (!hri_nvmctrl_get_interrupt_READY_bit(device->hw)) {
     906:	2401      	movs	r4, #1
     908:	6905      	ldr	r5, [r0, #16]
	uint32_t nvm_address = src_addr / 2;
     90a:	084e      	lsrs	r6, r1, #1
	return (((Nvmctrl *)hw)->INTFLAG.reg & NVMCTRL_INTFLAG_READY) >> NVMCTRL_INTFLAG_READY_Pos;
     90c:	7d28      	ldrb	r0, [r5, #20]
	while (!hri_nvmctrl_get_interrupt_READY_bit(device->hw)) {
     90e:	4204      	tst	r4, r0
     910:	d0fc      	beq.n	90c <_rww_flash_read+0x24>
}

static inline void hri_nvmctrl_clear_STATUS_reg(const void *const hw, hri_nvmctrl_status_reg_t mask)
{
	NVMCTRL_CRITICAL_SECTION_ENTER();
	((Nvmctrl *)hw)->STATUS.reg = mask;
     912:	2020      	movs	r0, #32
     914:	30ff      	adds	r0, #255	; 0xff
     916:	8328      	strh	r0, [r5, #24]
		i = 0;
     918:	2000      	movs	r0, #0
	if (src_addr % 2) {
     91a:	420c      	tst	r4, r1
     91c:	d113      	bne.n	946 <_rww_flash_read+0x5e>
	while (i < length) {
     91e:	4283      	cmp	r3, r0
     920:	d90f      	bls.n	942 <_rww_flash_read+0x5a>
     922:	0076      	lsls	r6, r6, #1
     924:	1e5d      	subs	r5, r3, #1
     926:	1812      	adds	r2, r2, r0
     928:	1a36      	subs	r6, r6, r0
     92a:	1831      	adds	r1, r6, r0
		data      = NVM_MEMORY[nvm_address++];
     92c:	8809      	ldrh	r1, [r1, #0]
     92e:	b289      	uxth	r1, r1
		buffer[i] = (data & 0xFF);
     930:	7011      	strb	r1, [r2, #0]
		if (i < (length - 1)) {
     932:	4285      	cmp	r5, r0
     934:	d901      	bls.n	93a <_rww_flash_read+0x52>
			buffer[i + 1] = (data >> 8);
     936:	0a09      	lsrs	r1, r1, #8
     938:	7051      	strb	r1, [r2, #1]
		i += 2;
     93a:	3002      	adds	r0, #2
     93c:	3202      	adds	r2, #2
	while (i < length) {
     93e:	4283      	cmp	r3, r0
     940:	d8f3      	bhi.n	92a <_rww_flash_read+0x42>
	return ERR_NONE;
     942:	2000      	movs	r0, #0
     944:	e7d9      	b.n	8fa <_rww_flash_read+0x12>
		data      = NVM_MEMORY[nvm_address++];
     946:	43a1      	bics	r1, r4
     948:	8809      	ldrh	r1, [r1, #0]
     94a:	3601      	adds	r6, #1
		buffer[0] = data >> 8;
     94c:	0a09      	lsrs	r1, r1, #8
     94e:	7011      	strb	r1, [r2, #0]
		i         = 1;
     950:	3001      	adds	r0, #1
     952:	e7e4      	b.n	91e <_rww_flash_read+0x36>
     954:	ffc00000 	.word	0xffc00000

00000958 <_rww_flash_write>:

/**
 * \brief Writes a number of bytes in the internal RWWEE Flash.
 */
int32_t _rww_flash_write(struct _flash_device *const device, const uint32_t dst_addr, uint8_t *buffer, uint32_t length)
{
     958:	b5f0      	push	{r4, r5, r6, r7, lr}
     95a:	4657      	mov	r7, sl
     95c:	464e      	mov	r6, r9
     95e:	46de      	mov	lr, fp
     960:	4645      	mov	r5, r8
     962:	4692      	mov	sl, r2
	if ((addr < NVMCTRL_RWW_EEPROM_ADDR)
     964:	2280      	movs	r2, #128	; 0x80
{
     966:	b5e0      	push	{r5, r6, r7, lr}
     968:	4699      	mov	r9, r3
	    || (addr > (NVMCTRL_RWW_EEPROM_ADDR + NVMCTRL_PAGE_SIZE * NVMCTRL_RWWEE_PAGES))) {
     96a:	4b62      	ldr	r3, [pc, #392]	; (af4 <_rww_flash_write+0x19c>)
{
     96c:	b0c5      	sub	sp, #276	; 0x114
	    || (addr > (NVMCTRL_RWW_EEPROM_ADDR + NVMCTRL_PAGE_SIZE * NVMCTRL_RWWEE_PAGES))) {
     96e:	18cb      	adds	r3, r1, r3
{
     970:	9002      	str	r0, [sp, #8]
	if ((addr < NVMCTRL_RWW_EEPROM_ADDR)
     972:	0192      	lsls	r2, r2, #6
     974:	4293      	cmp	r3, r2
     976:	d908      	bls.n	98a <_rww_flash_write+0x32>
	uint32_t i, j, k;
	uint32_t wr_start_addr = dst_addr;

	/* Check if the address is valid */
	if (!_is_valid_rww_flash_address(dst_addr) || !_is_valid_rww_flash_address(dst_addr + length)) {
		return ERR_BAD_ADDRESS;
     978:	200e      	movs	r0, #14
     97a:	4240      	negs	r0, r0
		}

	} while (row_end_addr < (wr_start_addr + length - 1));

	return ERR_NONE;
}
     97c:	b045      	add	sp, #276	; 0x114
     97e:	bc3c      	pop	{r2, r3, r4, r5}
     980:	4690      	mov	r8, r2
     982:	4699      	mov	r9, r3
     984:	46a2      	mov	sl, r4
     986:	46ab      	mov	fp, r5
     988:	bdf0      	pop	{r4, r5, r6, r7, pc}
	    || (addr > (NVMCTRL_RWW_EEPROM_ADDR + NVMCTRL_PAGE_SIZE * NVMCTRL_RWWEE_PAGES))) {
     98a:	4b5a      	ldr	r3, [pc, #360]	; (af4 <_rww_flash_write+0x19c>)
     98c:	444b      	add	r3, r9
     98e:	185b      	adds	r3, r3, r1
	if ((addr < NVMCTRL_RWW_EEPROM_ADDR)
     990:	4293      	cmp	r3, r2
     992:	d8f1      	bhi.n	978 <_rww_flash_write+0x20>
     994:	000e      	movs	r6, r1
	while (!hri_nvmctrl_get_interrupt_READY_bit(device->hw)) {
     996:	2701      	movs	r7, #1
		row_start_addr = wr_start_addr & ~((NVMCTRL_PAGE_SIZE * NVMCTRL_ROW_PAGES) - 1);
     998:	0033      	movs	r3, r6
     99a:	22ff      	movs	r2, #255	; 0xff
     99c:	4393      	bics	r3, r2
     99e:	4698      	mov	r8, r3
		row_end_addr   = row_start_addr + NVMCTRL_ROW_PAGES * NVMCTRL_PAGE_SIZE - 1;
     9a0:	23ff      	movs	r3, #255	; 0xff
     9a2:	4443      	add	r3, r8
     9a4:	9303      	str	r3, [sp, #12]
     9a6:	9b02      	ldr	r3, [sp, #8]
     9a8:	ac04      	add	r4, sp, #16
     9aa:	691d      	ldr	r5, [r3, #16]
     9ac:	4b51      	ldr	r3, [pc, #324]	; (af4 <_rww_flash_write+0x19c>)
     9ae:	0022      	movs	r2, r4
     9b0:	4443      	add	r3, r8
     9b2:	469c      	mov	ip, r3
     9b4:	4b50      	ldr	r3, [pc, #320]	; (af8 <_rww_flash_write+0x1a0>)
     9b6:	4664      	mov	r4, ip
     9b8:	4443      	add	r3, r8
     9ba:	469b      	mov	fp, r3
     9bc:	46b4      	mov	ip, r6
     9be:	465e      	mov	r6, fp
     9c0:	4693      	mov	fp, r2
     9c2:	2380      	movs	r3, #128	; 0x80
     9c4:	03db      	lsls	r3, r3, #15
     9c6:	18e1      	adds	r1, r4, r3
	if ((addr < NVMCTRL_RWW_EEPROM_ADDR)
     9c8:	23fe      	movs	r3, #254	; 0xfe
     9ca:	015b      	lsls	r3, r3, #5
     9cc:	429c      	cmp	r4, r3
     9ce:	d971      	bls.n	ab4 <_rww_flash_write+0x15c>
     9d0:	3240      	adds	r2, #64	; 0x40
     9d2:	0010      	movs	r0, r2
     9d4:	3440      	adds	r4, #64	; 0x40
     9d6:	0002      	movs	r2, r0
		for (i = 0; i < NVMCTRL_ROW_PAGES; i++) {
     9d8:	42a6      	cmp	r6, r4
     9da:	d1f2      	bne.n	9c2 <_rww_flash_write+0x6a>
     9dc:	4666      	mov	r6, ip
		j = (wr_start_addr - row_start_addr) / NVMCTRL_PAGE_SIZE;
     9de:	4643      	mov	r3, r8
     9e0:	223f      	movs	r2, #63	; 0x3f
		while ((wr_start_addr <= row_end_addr) && (length > 0)) {
     9e2:	9803      	ldr	r0, [sp, #12]
		j = (wr_start_addr - row_start_addr) / NVMCTRL_PAGE_SIZE;
     9e4:	1af3      	subs	r3, r6, r3
     9e6:	0999      	lsrs	r1, r3, #6
     9e8:	465c      	mov	r4, fp
     9ea:	4013      	ands	r3, r2
		while ((wr_start_addr <= row_end_addr) && (length > 0)) {
     9ec:	4286      	cmp	r6, r0
     9ee:	d821      	bhi.n	a34 <_rww_flash_write+0xdc>
     9f0:	464a      	mov	r2, r9
     9f2:	2a00      	cmp	r2, #0
     9f4:	d01e      	beq.n	a34 <_rww_flash_write+0xdc>
			k                = (k + 1) % NVMCTRL_PAGE_SIZE;
     9f6:	464a      	mov	r2, r9
     9f8:	4654      	mov	r4, sl
     9fa:	4684      	mov	ip, r0
     9fc:	46aa      	mov	sl, r5
     9fe:	46d9      	mov	r9, fp
     a00:	0015      	movs	r5, r2
     a02:	e001      	b.n	a08 <_rww_flash_write+0xb0>
		while ((wr_start_addr <= row_end_addr) && (length > 0)) {
     a04:	2d00      	cmp	r5, #0
     a06:	d010      	beq.n	a2a <_rww_flash_write+0xd2>
			tmp_buffer[j][k] = *buffer;
     a08:	a804      	add	r0, sp, #16
     a0a:	4683      	mov	fp, r0
     a0c:	018a      	lsls	r2, r1, #6
     a0e:	7820      	ldrb	r0, [r4, #0]
     a10:	445a      	add	r2, fp
     a12:	54d0      	strb	r0, [r2, r3]
			k                = (k + 1) % NVMCTRL_PAGE_SIZE;
     a14:	223f      	movs	r2, #63	; 0x3f
     a16:	3301      	adds	r3, #1
     a18:	4013      	ands	r3, r2
				j++;
     a1a:	425a      	negs	r2, r3
     a1c:	415a      	adcs	r2, r3
			wr_start_addr++;
     a1e:	3601      	adds	r6, #1
				j++;
     a20:	1889      	adds	r1, r1, r2
			buffer++;
     a22:	3401      	adds	r4, #1
			length--;
     a24:	3d01      	subs	r5, #1
		while ((wr_start_addr <= row_end_addr) && (length > 0)) {
     a26:	45b4      	cmp	ip, r6
     a28:	d2ec      	bcs.n	a04 <_rww_flash_write+0xac>
     a2a:	002b      	movs	r3, r5
     a2c:	4655      	mov	r5, sl
     a2e:	46a2      	mov	sl, r4
     a30:	464c      	mov	r4, r9
     a32:	4699      	mov	r9, r3
	return (((Nvmctrl *)hw)->INTFLAG.reg & NVMCTRL_INTFLAG_READY) >> NVMCTRL_INTFLAG_READY_Pos;
     a34:	7d2b      	ldrb	r3, [r5, #20]
	while (!hri_nvmctrl_get_interrupt_READY_bit(hw)) {
     a36:	421f      	tst	r7, r3
     a38:	d0fc      	beq.n	a34 <_rww_flash_write+0xdc>
	((Nvmctrl *)hw)->STATUS.reg = mask;
     a3a:	2320      	movs	r3, #32
     a3c:	33ff      	adds	r3, #255	; 0xff
     a3e:	832b      	strh	r3, [r5, #24]
     a40:	9301      	str	r3, [sp, #4]
     a42:	4643      	mov	r3, r8
	hri_nvmctrl_write_ADDR_reg(hw, dst_addr / 2);
     a44:	4642      	mov	r2, r8
     a46:	46b0      	mov	r8, r6
     a48:	001e      	movs	r6, r3
     a4a:	0852      	lsrs	r2, r2, #1
	((Nvmctrl *)hw)->ADDR.reg = data;
     a4c:	61ea      	str	r2, [r5, #28]
     a4e:	4693      	mov	fp, r2
	((Nvmctrl *)hw)->CTRLA.reg = data;
     a50:	4a2a      	ldr	r2, [pc, #168]	; (afc <_rww_flash_write+0x1a4>)
     a52:	802a      	strh	r2, [r5, #0]
	ASSERT(!(dst_addr % 2));
     a54:	22c5      	movs	r2, #197	; 0xc5
     a56:	492a      	ldr	r1, [pc, #168]	; (b00 <_rww_flash_write+0x1a8>)
     a58:	0052      	lsls	r2, r2, #1
     a5a:	2001      	movs	r0, #1
     a5c:	4b29      	ldr	r3, [pc, #164]	; (b04 <_rww_flash_write+0x1ac>)
     a5e:	4798      	blx	r3
	return (((Nvmctrl *)hw)->INTFLAG.reg & NVMCTRL_INTFLAG_READY) >> NVMCTRL_INTFLAG_READY_Pos;
     a60:	7d2b      	ldrb	r3, [r5, #20]
	while (!hri_nvmctrl_get_interrupt_READY_bit(hw)) {
     a62:	421f      	tst	r7, r3
     a64:	d0fc      	beq.n	a60 <_rww_flash_write+0x108>
	((Nvmctrl *)hw)->CTRLA.reg = data;
     a66:	4b28      	ldr	r3, [pc, #160]	; (b08 <_rww_flash_write+0x1b0>)
     a68:	802b      	strh	r3, [r5, #0]
	return (((Nvmctrl *)hw)->INTFLAG.reg & NVMCTRL_INTFLAG_READY) >> NVMCTRL_INTFLAG_READY_Pos;
     a6a:	7d2b      	ldrb	r3, [r5, #20]
	while (!hri_nvmctrl_get_interrupt_READY_bit(hw)) {
     a6c:	421f      	tst	r7, r3
     a6e:	d0fc      	beq.n	a6a <_rww_flash_write+0x112>
	((Nvmctrl *)hw)->STATUS.reg = mask;
     a70:	466b      	mov	r3, sp
     a72:	889b      	ldrh	r3, [r3, #4]
     a74:	0020      	movs	r0, r4
     a76:	832b      	strh	r3, [r5, #24]
     a78:	465b      	mov	r3, fp
     a7a:	0059      	lsls	r1, r3, #1
     a7c:	3040      	adds	r0, #64	; 0x40
     a7e:	1b09      	subs	r1, r1, r4
			data |= (buffer[i + 1] << 8);
     a80:	7862      	ldrb	r2, [r4, #1]
     a82:	7823      	ldrb	r3, [r4, #0]
     a84:	0212      	lsls	r2, r2, #8
     a86:	4313      	orrs	r3, r2
     a88:	190a      	adds	r2, r1, r4
     a8a:	3402      	adds	r4, #2
		NVM_MEMORY[nvm_address++] = data;
     a8c:	8013      	strh	r3, [r2, #0]
	for (i = 0; i < size; i += 2) {
     a8e:	42a0      	cmp	r0, r4
     a90:	d1f6      	bne.n	a80 <_rww_flash_write+0x128>
	return (((Nvmctrl *)hw)->INTFLAG.reg & NVMCTRL_INTFLAG_READY) >> NVMCTRL_INTFLAG_READY_Pos;
     a92:	7d2b      	ldrb	r3, [r5, #20]
	while (!hri_nvmctrl_get_interrupt_READY_bit(hw)) {
     a94:	421f      	tst	r7, r3
     a96:	d0fc      	beq.n	a92 <_rww_flash_write+0x13a>
	((Nvmctrl *)hw)->ADDR.reg = data;
     a98:	465b      	mov	r3, fp
     a9a:	61eb      	str	r3, [r5, #28]
	((Nvmctrl *)hw)->CTRLA.reg = data;
     a9c:	4b1b      	ldr	r3, [pc, #108]	; (b0c <_rww_flash_write+0x1b4>)
     a9e:	3640      	adds	r6, #64	; 0x40
     aa0:	802b      	strh	r3, [r5, #0]
		for (i = 0; i < NVMCTRL_ROW_PAGES; i++) {
     aa2:	ab44      	add	r3, sp, #272	; 0x110
     aa4:	4298      	cmp	r0, r3
     aa6:	d01a      	beq.n	ade <_rww_flash_write+0x186>
     aa8:	9b02      	ldr	r3, [sp, #8]
     aaa:	0004      	movs	r4, r0
     aac:	691d      	ldr	r5, [r3, #16]
     aae:	0873      	lsrs	r3, r6, #1
     ab0:	469b      	mov	fp, r3
     ab2:	e7cf      	b.n	a54 <_rww_flash_write+0xfc>
	uint32_t nvm_address = src_addr / 2;
     ab4:	0849      	lsrs	r1, r1, #1
	return (((Nvmctrl *)hw)->INTFLAG.reg & NVMCTRL_INTFLAG_READY) >> NVMCTRL_INTFLAG_READY_Pos;
     ab6:	7d2b      	ldrb	r3, [r5, #20]
	while (!hri_nvmctrl_get_interrupt_READY_bit(device->hw)) {
     ab8:	421f      	tst	r7, r3
     aba:	d0fc      	beq.n	ab6 <_rww_flash_write+0x15e>
	((Nvmctrl *)hw)->STATUS.reg = mask;
     abc:	2320      	movs	r3, #32
     abe:	0010      	movs	r0, r2
     ac0:	33ff      	adds	r3, #255	; 0xff
     ac2:	0049      	lsls	r1, r1, #1
     ac4:	832b      	strh	r3, [r5, #24]
     ac6:	3040      	adds	r0, #64	; 0x40
     ac8:	1a89      	subs	r1, r1, r2
     aca:	188b      	adds	r3, r1, r2
		data      = NVM_MEMORY[nvm_address++];
     acc:	881b      	ldrh	r3, [r3, #0]
     ace:	b29b      	uxth	r3, r3
		buffer[i] = (data & 0xFF);
     ad0:	7013      	strb	r3, [r2, #0]
			buffer[i + 1] = (data >> 8);
     ad2:	0a1b      	lsrs	r3, r3, #8
     ad4:	7053      	strb	r3, [r2, #1]
     ad6:	3202      	adds	r2, #2
	while (i < length) {
     ad8:	4290      	cmp	r0, r2
     ada:	d1f6      	bne.n	aca <_rww_flash_write+0x172>
     adc:	e77a      	b.n	9d4 <_rww_flash_write+0x7c>
     ade:	4646      	mov	r6, r8
	} while (row_end_addr < (wr_start_addr + length - 1));
     ae0:	464b      	mov	r3, r9
     ae2:	9a03      	ldr	r2, [sp, #12]
     ae4:	199b      	adds	r3, r3, r6
     ae6:	3b01      	subs	r3, #1
     ae8:	429a      	cmp	r2, r3
     aea:	d200      	bcs.n	aee <_rww_flash_write+0x196>
     aec:	e754      	b.n	998 <_rww_flash_write+0x40>
	return ERR_NONE;
     aee:	2000      	movs	r0, #0
     af0:	e744      	b.n	97c <_rww_flash_write+0x24>
     af2:	46c0      	nop			; (mov r8, r8)
     af4:	ffc00000 	.word	0xffc00000
     af8:	ffc00100 	.word	0xffc00100
     afc:	ffffa51a 	.word	0xffffa51a
     b00:	00000fc4 	.word	0x00000fc4
     b04:	000004a5 	.word	0x000004a5
     b08:	ffffa544 	.word	0xffffa544
     b0c:	ffffa51c 	.word	0xffffa51c

00000b10 <_osc32kctrl_init_sources>:
	calib = hri_osc32kctrl_read_OSCULP32K_CALIB_bf(hw);
	hri_osc32kctrl_write_OSCULP32K_reg(hw,
#if CONF_OSC32K_CALIB_ENABLE == 1
	                                   OSC32KCTRL_OSCULP32K_CALIB(CONF_OSC32K_CALIB)
#else
	                                   OSC32KCTRL_OSCULP32K_CALIB(calib)
     b10:	21f8      	movs	r1, #248	; 0xf8
}

static inline hri_osc32kctrl_osculp32k_reg_t hri_osc32kctrl_read_OSCULP32K_CALIB_bf(const void *const hw)
{
	uint32_t tmp;
	tmp = ((Osc32kctrl *)hw)->OSCULP32K.reg;
     b12:	4b04      	ldr	r3, [pc, #16]	; (b24 <_osc32kctrl_init_sources+0x14>)
     b14:	0149      	lsls	r1, r1, #5
     b16:	69da      	ldr	r2, [r3, #28]
     b18:	400a      	ands	r2, r1
}

static inline void hri_osc32kctrl_write_OSCULP32K_reg(const void *const hw, hri_osc32kctrl_osculp32k_reg_t data)
{
	OSC32KCTRL_CRITICAL_SECTION_ENTER();
	((Osc32kctrl *)hw)->OSCULP32K.reg = data;
     b1a:	61da      	str	r2, [r3, #28]
	((Osc32kctrl *)hw)->RTCCTRL.reg = data;
     b1c:	2201      	movs	r2, #1
     b1e:	611a      	str	r2, [r3, #16]
		;
#endif
#endif
	hri_osc32kctrl_write_RTCCTRL_reg(hw, OSC32KCTRL_RTCCTRL_RTCSEL(CONF_RTCCTRL));
	(void)calib;
}
     b20:	4770      	bx	lr
     b22:	46c0      	nop			; (mov r8, r8)
     b24:	40001000 	.word	0x40001000

00000b28 <_oscctrl_init_sources>:
}

static inline void hri_oscctrl_write_OSC16MCTRL_reg(const void *const hw, hri_oscctrl_osc16mctrl_reg_t data)
{
	OSCCTRL_CRITICAL_SECTION_ENTER();
	((Oscctrl *)hw)->OSC16MCTRL.reg = data;
     b28:	2382      	movs	r3, #130	; 0x82
	while (((Oscctrl *)hw)->DPLLSYNCBUSY.reg & reg) {
     b2a:	2038      	movs	r0, #56	; 0x38
     b2c:	2102      	movs	r1, #2
	((Oscctrl *)hw)->OSC16MCTRL.reg = data;
     b2e:	4a0a      	ldr	r2, [pc, #40]	; (b58 <_oscctrl_init_sources+0x30>)
     b30:	7513      	strb	r3, [r2, #20]
	while (((Oscctrl *)hw)->DPLLSYNCBUSY.reg & reg) {
     b32:	5c13      	ldrb	r3, [r2, r0]
     b34:	4219      	tst	r1, r3
     b36:	d1fc      	bne.n	b32 <_oscctrl_init_sources+0xa>
#endif
#endif

#if CONF_OSC16M_CONFIG == 1
#if CONF_OSC16M_ENABLE == 1
	while (!hri_oscctrl_get_STATUS_OSC16MRDY_bit(hw))
     b38:	2110      	movs	r1, #16
	return (((Oscctrl *)hw)->STATUS.reg & OSCCTRL_STATUS_OSC16MRDY) >> OSCCTRL_STATUS_OSC16MRDY_Pos;
     b3a:	4a07      	ldr	r2, [pc, #28]	; (b58 <_oscctrl_init_sources+0x30>)
     b3c:	68d3      	ldr	r3, [r2, #12]
     b3e:	4219      	tst	r1, r3
     b40:	d0fc      	beq.n	b3c <_oscctrl_init_sources+0x14>
	((Oscctrl *)hw)->OSC16MCTRL.reg |= OSCCTRL_OSC16MCTRL_ONDEMAND;
     b42:	2180      	movs	r1, #128	; 0x80
     b44:	7d13      	ldrb	r3, [r2, #20]
	while (((Oscctrl *)hw)->DPLLSYNCBUSY.reg & reg) {
     b46:	4804      	ldr	r0, [pc, #16]	; (b58 <_oscctrl_init_sources+0x30>)
	((Oscctrl *)hw)->OSC16MCTRL.reg |= OSCCTRL_OSC16MCTRL_ONDEMAND;
     b48:	430b      	orrs	r3, r1
     b4a:	7513      	strb	r3, [r2, #20]
	while (((Oscctrl *)hw)->DPLLSYNCBUSY.reg & reg) {
     b4c:	220e      	movs	r2, #14
     b4e:	3948      	subs	r1, #72	; 0x48
     b50:	5c43      	ldrb	r3, [r0, r1]
     b52:	421a      	tst	r2, r3
     b54:	d1fc      	bne.n	b50 <_oscctrl_init_sources+0x28>
#if CONF_OSC16M_ONDEMAND == 1
	hri_oscctrl_set_OSC16MCTRL_ONDEMAND_bit(hw);
#endif
#endif
	(void)hw;
}
     b56:	4770      	bx	lr
     b58:	40000c00 	.word	0x40000c00

00000b5c <_oscctrl_init_referenced_generators>:
#if CONF_DFLL_CONFIG == 1
	while (hri_gclk_read_SYNCBUSY_reg(GCLK))
		;
#endif
	(void)hw, (void)tmp;
}
     b5c:	4770      	bx	lr
     b5e:	46c0      	nop			; (mov r8, r8)

00000b60 <_set_performance_level>:
}

static inline hri_pm_plcfg_reg_t hri_pm_get_PLCFG_PLSEL_bf(const void *const hw, hri_pm_plcfg_reg_t mask)
{
	uint8_t tmp;
	tmp = ((Pm *)hw)->PLCFG.reg;
     b60:	2280      	movs	r2, #128	; 0x80
	tmp = (tmp & PM_PLCFG_PLSEL(mask)) >> PM_PLCFG_PLSEL_Pos;
     b62:	2303      	movs	r3, #3
	tmp = ((Pm *)hw)->PLCFG.reg;
     b64:	05d2      	lsls	r2, r2, #23
     b66:	7891      	ldrb	r1, [r2, #2]
/**
 * \brief Set performance level
 */
void _set_performance_level(const uint8_t level)
{
	if (hri_pm_get_PLCFG_PLSEL_bf(PM, PM_PLCFG_PLSEL_Msk) != level) {
     b68:	4019      	ands	r1, r3
     b6a:	4288      	cmp	r0, r1
     b6c:	d009      	beq.n	b82 <_set_performance_level+0x22>
	((Pm *)hw)->INTFLAG.reg = mask;
     b6e:	21ff      	movs	r1, #255	; 0xff
     b70:	7191      	strb	r1, [r2, #6]

static inline void hri_pm_write_PLCFG_PLSEL_bf(const void *const hw, hri_pm_plcfg_reg_t data)
{
	uint8_t tmp;
	PM_CRITICAL_SECTION_ENTER();
	tmp = ((Pm *)hw)->PLCFG.reg;
     b72:	7891      	ldrb	r1, [r2, #2]
	tmp &= ~PM_PLCFG_PLSEL_Msk;
     b74:	4399      	bics	r1, r3
	tmp |= PM_PLCFG_PLSEL(data);
     b76:	4003      	ands	r3, r0
     b78:	430b      	orrs	r3, r1
	((Pm *)hw)->PLCFG.reg = tmp;
     b7a:	7093      	strb	r3, [r2, #2]
	return ((Pm *)hw)->INTFLAG.reg;
     b7c:	7993      	ldrb	r3, [r2, #6]
		hri_pm_clear_INTFLAG_reg(PM, 0xFF);
		hri_pm_write_PLCFG_PLSEL_bf(PM, level);
		while (!hri_pm_read_INTFLAG_reg(PM))
     b7e:	2b00      	cmp	r3, #0
     b80:	d0fc      	beq.n	b7c <_set_performance_level+0x1c>
			;
	}
}
     b82:	4770      	bx	lr

00000b84 <_delay_init>:
 * \brief Initialize system time module
 */
void _system_time_init(void *const hw)
{
	(void)hw;
	SysTick->LOAD = (0xFFFFFF << SysTick_LOAD_RELOAD_Pos);
     b84:	4b02      	ldr	r3, [pc, #8]	; (b90 <_delay_init+0xc>)
     b86:	4a03      	ldr	r2, [pc, #12]	; (b94 <_delay_init+0x10>)
     b88:	605a      	str	r2, [r3, #4]
	SysTick->CTRL = (1 << SysTick_CTRL_ENABLE_Pos) | (CONF_SYSTICK_TICKINT << SysTick_CTRL_TICKINT_Pos)
     b8a:	2205      	movs	r2, #5
     b8c:	601a      	str	r2, [r3, #0]
 * \brief Initialize delay functionality
 */
void _delay_init(void *const hw)
{
	_system_time_init(hw);
}
     b8e:	4770      	bx	lr
     b90:	e000e010 	.word	0xe000e010
     b94:	00ffffff 	.word	0x00ffffff

00000b98 <_delay_cycles>:
 * \brief Delay loop to delay n number of cycles
 */
void _delay_cycles(void *const hw, uint32_t cycles)
{
	(void)hw;
	uint8_t  n   = cycles >> 24;
     b98:	0e0b      	lsrs	r3, r1, #24
{
     b9a:	b570      	push	{r4, r5, r6, lr}
	uint32_t buf = cycles;

	while (n--) {
     b9c:	1e5e      	subs	r6, r3, #1
     b9e:	b2f6      	uxtb	r6, r6
     ba0:	2b00      	cmp	r3, #0
     ba2:	d013      	beq.n	bcc <_delay_cycles+0x34>
		SysTick->LOAD = 0xFFFFFF;
		SysTick->VAL  = 0xFFFFFF;
		while (!(SysTick->CTRL & SysTick_CTRL_COUNTFLAG_Msk))
     ba4:	2080      	movs	r0, #128	; 0x80
	while (n--) {
     ba6:	0034      	movs	r4, r6
		SysTick->LOAD = 0xFFFFFF;
     ba8:	4a0d      	ldr	r2, [pc, #52]	; (be0 <_delay_cycles+0x48>)
     baa:	4d0e      	ldr	r5, [pc, #56]	; (be4 <_delay_cycles+0x4c>)
		while (!(SysTick->CTRL & SysTick_CTRL_COUNTFLAG_Msk))
     bac:	0240      	lsls	r0, r0, #9
		SysTick->LOAD = 0xFFFFFF;
     bae:	6055      	str	r5, [r2, #4]
		SysTick->VAL  = 0xFFFFFF;
     bb0:	6095      	str	r5, [r2, #8]
		while (!(SysTick->CTRL & SysTick_CTRL_COUNTFLAG_Msk))
     bb2:	6813      	ldr	r3, [r2, #0]
     bb4:	4203      	tst	r3, r0
     bb6:	d0fc      	beq.n	bb2 <_delay_cycles+0x1a>
	while (n--) {
     bb8:	3c01      	subs	r4, #1
     bba:	b2e4      	uxtb	r4, r4
     bbc:	2cff      	cmp	r4, #255	; 0xff
     bbe:	d1f6      	bne.n	bae <_delay_cycles+0x16>
     bc0:	0633      	lsls	r3, r6, #24
     bc2:	1af6      	subs	r6, r6, r3
     bc4:	4b08      	ldr	r3, [pc, #32]	; (be8 <_delay_cycles+0x50>)
     bc6:	469c      	mov	ip, r3
     bc8:	4461      	add	r1, ip
     bca:	1871      	adds	r1, r6, r1
			;
		buf -= 0xFFFFFF;
	}

	SysTick->LOAD = buf;
     bcc:	4a04      	ldr	r2, [pc, #16]	; (be0 <_delay_cycles+0x48>)
     bce:	6051      	str	r1, [r2, #4]
	SysTick->VAL  = buf;
     bd0:	6091      	str	r1, [r2, #8]
	while (!(SysTick->CTRL & SysTick_CTRL_COUNTFLAG_Msk))
     bd2:	2180      	movs	r1, #128	; 0x80
     bd4:	0249      	lsls	r1, r1, #9
     bd6:	6813      	ldr	r3, [r2, #0]
     bd8:	420b      	tst	r3, r1
     bda:	d0fc      	beq.n	bd6 <_delay_cycles+0x3e>
		;
}
     bdc:	bd70      	pop	{r4, r5, r6, pc}
     bde:	46c0      	nop			; (mov r8, r8)
     be0:	e000e010 	.word	0xe000e010
     be4:	00ffffff 	.word	0x00ffffff
     be8:	ff000001 	.word	0xff000001

00000bec <aes_measurement>:
static uint8_t iv[16] = { 0x00, 0x01, 0x02, 0x03, 0x04, 0x05, 0x06, 0x07, 0x08, 0x09, 0x0a, 0x0b, 0x0c, 0x0d, 0x0e, 0x0f };
static uint8_t iv2[16] = { 0x00, 0x01, 0x02, 0x03, 0x04, 0x05, 0x06, 0x07, 0x08, 0x09, 0x0a, 0x0b, 0x0c, 0x0d, 0x0e, 0x0f }; /*(This is same but needed for decryption. Note: AES Module was not doing decryption without iv2  )*/


void aes_measurement(void)
{
     bec:	b5f0      	push	{r4, r5, r6, r7, lr}
     bee:	46de      	mov	lr, fp
     bf0:	4657      	mov	r7, sl
     bf2:	464e      	mov	r6, r9
     bf4:	4645      	mov	r5, r8
     bf6:	b5e0      	push	{r5, r6, r7, lr}
	
	// Allocate buffer memory (Heap)
	uint8_t *input = malloc( MAX_NUM_BYTES * sizeof(uint8_t));
     bf8:	4c4d      	ldr	r4, [pc, #308]	; (d30 <aes_measurement+0x144>)
{
     bfa:	b085      	sub	sp, #20
	uint8_t *input = malloc( MAX_NUM_BYTES * sizeof(uint8_t));
     bfc:	484d      	ldr	r0, [pc, #308]	; (d34 <aes_measurement+0x148>)
     bfe:	47a0      	blx	r4
	//uint8_t input[MAX_NUM_BYTES];// = {0x00};
	delay_ms(10);
     c00:	4e4d      	ldr	r6, [pc, #308]	; (d38 <aes_measurement+0x14c>)
	uint8_t *input = malloc( MAX_NUM_BYTES * sizeof(uint8_t));
     c02:	0005      	movs	r5, r0
	delay_ms(10);
     c04:	200a      	movs	r0, #10
     c06:	47b0      	blx	r6

	uint8_t *output = malloc( MAX_NUM_BYTES * sizeof(uint8_t));
     c08:	484a      	ldr	r0, [pc, #296]	; (d34 <aes_measurement+0x148>)
     c0a:	47a0      	blx	r4
     c0c:	9003      	str	r0, [sp, #12]
	//uint8_t output[MAX_NUM_BYTES];// = {0x00};
	delay_ms(10);
     c0e:	200a      	movs	r0, #10
     c10:	47b0      	blx	r6

	aes_sync_enable(&CRYPTOGRAPHY_0);
     c12:	4b4a      	ldr	r3, [pc, #296]	; (d3c <aes_measurement+0x150>)
	((Port *)hw)->Group[submodule_index].OUTSET.reg = mask;
     c14:	27c0      	movs	r7, #192	; 0xc0
     c16:	0018      	movs	r0, r3
     c18:	469a      	mov	sl, r3
     c1a:	4b49      	ldr	r3, [pc, #292]	; (d40 <aes_measurement+0x154>)
     c1c:	4798      	blx	r3
     c1e:	4a49      	ldr	r2, [pc, #292]	; (d44 <aes_measurement+0x158>)
	
	for (size_t num_bytes = MIN_NUM_BYTES; num_bytes <= MAX_NUM_BYTES; num_bytes += STEP_SIZE) {
     c20:	2310      	movs	r3, #16
     c22:	4693      	mov	fp, r2
     c24:	2280      	movs	r2, #128	; 0x80
     c26:	0352      	lsls	r2, r2, #13
     c28:	4691      	mov	r9, r2
     c2a:	05ff      	lsls	r7, r7, #23
     c2c:	9502      	str	r5, [sp, #8]
{
     c2e:	2400      	movs	r4, #0
     c30:	9d02      	ldr	r5, [sp, #8]
		
		// Fill with sequential data.
		for (size_t byte = 0; byte < num_bytes; byte++) {
			input[byte] = byte;  //rand() % 255, 0x00 to write 0's OR 0xFF to write 1's.
     c32:	552c      	strb	r4, [r5, r4]
		for (size_t byte = 0; byte < num_bytes; byte++) {
     c34:	3401      	adds	r4, #1
     c36:	429c      	cmp	r4, r3
     c38:	d1fb      	bne.n	c32 <aes_measurement+0x46>
			//input[byte] = 0xfa;
		}


		aes_sync_set_encrypt_key(&CRYPTOGRAPHY_0, key_256, AES_KEY_256);
     c3a:	2202      	movs	r2, #2
     c3c:	4659      	mov	r1, fp
     c3e:	4b42      	ldr	r3, [pc, #264]	; (d48 <aes_measurement+0x15c>)
     c40:	4650      	mov	r0, sl
     c42:	9502      	str	r5, [sp, #8]
     c44:	4798      	blx	r3
		// Start---------------------------------------------------------------------------------------------------------------------//
		START_MEASURE(DGI_GPIO2);
     c46:	2002      	movs	r0, #2
     c48:	47b0      	blx	r6
     c4a:	464b      	mov	r3, r9
     c4c:	61bb      	str	r3, [r7, #24]
		/* In hpl_aes.c (_aes_sync_cbc_crypt function)
		Data type of "block" variable changed from uint8 to uint32 to encrypt/decrypt input of more than 4080 bytes.
		(AES_CTRLA_CTYPE(0b0000) added to aes_write_CTRLA_reg.  
		*/
		// For CBC Mode
		aes_sync_cbc_crypt(&CRYPTOGRAPHY_0, AES_ENCRYPT, input, input, num_bytes, iv);
     c4e:	4b3f      	ldr	r3, [pc, #252]	; (d4c <aes_measurement+0x160>)
     c50:	2101      	movs	r1, #1
     c52:	9301      	str	r3, [sp, #4]
     c54:	9b02      	ldr	r3, [sp, #8]
     c56:	4d3e      	ldr	r5, [pc, #248]	; (d50 <aes_measurement+0x164>)
     c58:	001a      	movs	r2, r3
     c5a:	9400      	str	r4, [sp, #0]
     c5c:	4650      	mov	r0, sl
     c5e:	47a8      	blx	r5
	((Port *)hw)->Group[submodule_index].OUTCLR.reg = mask;
     c60:	464b      	mov	r3, r9
		
		STOP_MEASURE(DGI_GPIO2);
     c62:	2002      	movs	r0, #2
     c64:	617b      	str	r3, [r7, #20]
     c66:	47b0      	blx	r6
		
	
		/* Save to flash
		   Put data at end of flash.
	    **/		
		START_MEASURE(DGI_GPIO3);
     c68:	2002      	movs	r0, #2
     c6a:	47b0      	blx	r6
	((Port *)hw)->Group[submodule_index].OUTSET.reg = mask;
     c6c:	2380      	movs	r3, #128	; 0x80
		//********************************************** Solution - 1 @ To write on emulation (RWW) Area
		if (_rww_flash_write(&FLASH_0.dev, NVMCTRL_RWW_EEPROM_ADDR, input, num_bytes ) != ERR_NONE) {
     c6e:	2180      	movs	r1, #128	; 0x80
     c70:	039b      	lsls	r3, r3, #14
     c72:	61bb      	str	r3, [r7, #24]
     c74:	4698      	mov	r8, r3
     c76:	9a02      	ldr	r2, [sp, #8]
     c78:	0023      	movs	r3, r4
     c7a:	03c9      	lsls	r1, r1, #15
     c7c:	4835      	ldr	r0, [pc, #212]	; (d54 <aes_measurement+0x168>)
     c7e:	4d36      	ldr	r5, [pc, #216]	; (d58 <aes_measurement+0x16c>)
     c80:	47a8      	blx	r5
     c82:	2800      	cmp	r0, #0
     c84:	d151      	bne.n	d2a <aes_measurement+0x13e>
	((Port *)hw)->Group[submodule_index].OUTCLR.reg = mask;
     c86:	4643      	mov	r3, r8
		// ------------------------------------------- To write page by page use the code below (Avoid loops)---------
		//for (uint32_t page_index = 0; page_index * FLASH_PAGE_SIZE < num_bytes; page_index += 1) {
			/* Write data to flash */
			//flash_write(&FLASH_0, target_addr + page_index * FLASH_PAGE_SIZE, &input[page_index * FLASH_PAGE_SIZE], FLASH_PAGE_SIZE);
		//}
		STOP_MEASURE(DGI_GPIO3);
     c88:	2002      	movs	r0, #2
     c8a:	617b      	str	r3, [r7, #20]
     c8c:	47b0      	blx	r6
		
		SLEEP
     c8e:	2002      	movs	r0, #2
     c90:	47b0      	blx	r6
     c92:	0022      	movs	r2, r4
     c94:	21fe      	movs	r1, #254	; 0xfe
     c96:	4b31      	ldr	r3, [pc, #196]	; (d5c <aes_measurement+0x170>)
     c98:	9802      	ldr	r0, [sp, #8]
     c9a:	4798      	blx	r3
		for (size_t byte = 0; byte < num_bytes; byte++) {
			input[byte] = 0xfe;
		}	
		
		// Start reading from flash
		START_MEASURE(DGI_GPIO3);
     c9c:	2002      	movs	r0, #2
     c9e:	47b0      	blx	r6
	((Port *)hw)->Group[submodule_index].OUTSET.reg = mask;
     ca0:	4643      	mov	r3, r8
		
		/* Read data from RWWEE flash (Solution 1) */
		if (_rww_flash_read(&FLASH_0.dev, NVMCTRL_RWW_EEPROM_ADDR, input, num_bytes) != ERR_NONE) {
     ca2:	2180      	movs	r1, #128	; 0x80
     ca4:	61bb      	str	r3, [r7, #24]
     ca6:	9a02      	ldr	r2, [sp, #8]
     ca8:	0023      	movs	r3, r4
     caa:	03c9      	lsls	r1, r1, #15
     cac:	4829      	ldr	r0, [pc, #164]	; (d54 <aes_measurement+0x168>)
     cae:	4d2c      	ldr	r5, [pc, #176]	; (d60 <aes_measurement+0x174>)
     cb0:	47a8      	blx	r5
     cb2:	2800      	cmp	r0, #0
     cb4:	d13a      	bne.n	d2c <aes_measurement+0x140>
	((Port *)hw)->Group[submodule_index].OUTCLR.reg = mask;
     cb6:	4643      	mov	r3, r8
			; /* Trap here when flash read error happen */
		}
		
		/* Read data from flash (Solution 2) */
		//flash_read(&FLASH_0, target_addr, output, num_bytes);
		STOP_MEASURE(DGI_GPIO3);
     cb8:	2002      	movs	r0, #2
     cba:	617b      	str	r3, [r7, #20]
     cbc:	47b0      	blx	r6
		
		aes_sync_set_decrypt_key(&CRYPTOGRAPHY_0, key_256, AES_KEY_256);
     cbe:	2202      	movs	r2, #2
     cc0:	4659      	mov	r1, fp
     cc2:	4b28      	ldr	r3, [pc, #160]	; (d64 <aes_measurement+0x178>)
     cc4:	4650      	mov	r0, sl
     cc6:	4798      	blx	r3
		
		// Start decryption
		START_MEASURE(DGI_GPIO2);
     cc8:	2002      	movs	r0, #2
     cca:	47b0      	blx	r6
	((Port *)hw)->Group[submodule_index].OUTSET.reg = mask;
     ccc:	464b      	mov	r3, r9
     cce:	61bb      	str	r3, [r7, #24]
		//for (size_t count = 0;  count < num_bytes/STEP_SIZE; count++) {
			//aes_sync_ecb_crypt(&CRYPTOGRAPHY_0, AES_DECRYPT, output, result);
			//aes_sync_cbc_crypt(&CRYPTOGRAPHY_0, AES_DECRYPT, output + (count*STEP_SIZE), result+ (count*STEP_SIZE), STEP_SIZE, iv2); (Avoid loops)
		//}
		
		aes_sync_cbc_crypt(&CRYPTOGRAPHY_0, AES_DECRYPT, input, output, num_bytes, iv2);
     cd0:	4b1e      	ldr	r3, [pc, #120]	; (d4c <aes_measurement+0x160>)
     cd2:	9a02      	ldr	r2, [sp, #8]
     cd4:	3310      	adds	r3, #16
     cd6:	9301      	str	r3, [sp, #4]
     cd8:	2100      	movs	r1, #0
     cda:	9b03      	ldr	r3, [sp, #12]
     cdc:	9400      	str	r4, [sp, #0]
     cde:	4650      	mov	r0, sl
     ce0:	4d1b      	ldr	r5, [pc, #108]	; (d50 <aes_measurement+0x164>)
     ce2:	47a8      	blx	r5
	((Port *)hw)->Group[submodule_index].OUTCLR.reg = mask;
     ce4:	464b      	mov	r3, r9
		
		STOP_MEASURE(DGI_GPIO2);
     ce6:	2002      	movs	r0, #2
     ce8:	617b      	str	r3, [r7, #20]
     cea:	47b0      	blx	r6
	for (size_t num_bytes = MIN_NUM_BYTES; num_bytes <= MAX_NUM_BYTES; num_bytes += STEP_SIZE) {
     cec:	0023      	movs	r3, r4
     cee:	22bc      	movs	r2, #188	; 0xbc
     cf0:	3310      	adds	r3, #16
     cf2:	0152      	lsls	r2, r2, #5
     cf4:	4293      	cmp	r3, r2
     cf6:	d19a      	bne.n	c2e <aes_measurement+0x42>
     cf8:	9d02      	ldr	r5, [sp, #8]
		//}
	
	}
	
		// Free the memory if malloc(heap) is used
		free(input); free(output); 
     cfa:	4c1b      	ldr	r4, [pc, #108]	; (d68 <aes_measurement+0x17c>)
     cfc:	0028      	movs	r0, r5
     cfe:	47a0      	blx	r4
     d00:	9803      	ldr	r0, [sp, #12]
     d02:	47a0      	blx	r4
		
		END_MEASUREMENT;
     d04:	200a      	movs	r0, #10
     d06:	47b0      	blx	r6
	((Port *)hw)->Group[submodule_index].OUTSET.reg = mask;
     d08:	2202      	movs	r2, #2
     d0a:	2398      	movs	r3, #152	; 0x98
     d0c:	50fa      	str	r2, [r7, r3]
     d0e:	2380      	movs	r3, #128	; 0x80
     d10:	025b      	lsls	r3, r3, #9
     d12:	61bb      	str	r3, [r7, #24]
     d14:	464b      	mov	r3, r9
     d16:	61bb      	str	r3, [r7, #24]
     d18:	4643      	mov	r3, r8
     d1a:	61bb      	str	r3, [r7, #24]
		
}
     d1c:	b005      	add	sp, #20
     d1e:	bc3c      	pop	{r2, r3, r4, r5}
     d20:	4690      	mov	r8, r2
     d22:	4699      	mov	r9, r3
     d24:	46a2      	mov	sl, r4
     d26:	46ab      	mov	fp, r5
     d28:	bdf0      	pop	{r4, r5, r6, r7, pc}
     d2a:	e7fe      	b.n	d2a <aes_measurement+0x13e>
     d2c:	e7fe      	b.n	d2c <aes_measurement+0x140>
     d2e:	46c0      	nop			; (mov r8, r8)
     d30:	00000dcd 	.word	0x00000dcd
     d34:	00001770 	.word	0x00001770
     d38:	00000425 	.word	0x00000425
     d3c:	200000d0 	.word	0x200000d0
     d40:	00000325 	.word	0x00000325
     d44:	00000fe4 	.word	0x00000fe4
     d48:	0000034d 	.word	0x0000034d
     d4c:	20000000 	.word	0x20000000
     d50:	000003bd 	.word	0x000003bd
     d54:	200000b4 	.word	0x200000b4
     d58:	00000959 	.word	0x00000959
     d5c:	00000e07 	.word	0x00000e07
     d60:	000008e9 	.word	0x000008e9
     d64:	00000385 	.word	0x00000385
     d68:	00000de1 	.word	0x00000de1

00000d6c <main>:



int main(void)
{
     d6c:	b510      	push	{r4, lr}
	atmel_start_init();
     d6e:	4b03      	ldr	r3, [pc, #12]	; (d7c <main+0x10>)
     d70:	4798      	blx	r3

	aes_measurement();
     d72:	4b03      	ldr	r3, [pc, #12]	; (d80 <main+0x14>)
     d74:	4798      	blx	r3
	/*while (true) {
		delay_ms(500);
		gpio_toggle_pin_level(LED0);
	}*/
	
}
     d76:	2000      	movs	r0, #0
     d78:	bd10      	pop	{r4, pc}
     d7a:	46c0      	nop			; (mov r8, r8)
     d7c:	00000115 	.word	0x00000115
     d80:	00000bed 	.word	0x00000bed

00000d84 <__libc_init_array>:
     d84:	b570      	push	{r4, r5, r6, lr}
     d86:	2600      	movs	r6, #0
     d88:	4d0c      	ldr	r5, [pc, #48]	; (dbc <__libc_init_array+0x38>)
     d8a:	4c0d      	ldr	r4, [pc, #52]	; (dc0 <__libc_init_array+0x3c>)
     d8c:	1b64      	subs	r4, r4, r5
     d8e:	10a4      	asrs	r4, r4, #2
     d90:	42a6      	cmp	r6, r4
     d92:	d109      	bne.n	da8 <__libc_init_array+0x24>
     d94:	2600      	movs	r6, #0
     d96:	f000 f965 	bl	1064 <_init>
     d9a:	4d0a      	ldr	r5, [pc, #40]	; (dc4 <__libc_init_array+0x40>)
     d9c:	4c0a      	ldr	r4, [pc, #40]	; (dc8 <__libc_init_array+0x44>)
     d9e:	1b64      	subs	r4, r4, r5
     da0:	10a4      	asrs	r4, r4, #2
     da2:	42a6      	cmp	r6, r4
     da4:	d105      	bne.n	db2 <__libc_init_array+0x2e>
     da6:	bd70      	pop	{r4, r5, r6, pc}
     da8:	00b3      	lsls	r3, r6, #2
     daa:	58eb      	ldr	r3, [r5, r3]
     dac:	4798      	blx	r3
     dae:	3601      	adds	r6, #1
     db0:	e7ee      	b.n	d90 <__libc_init_array+0xc>
     db2:	00b3      	lsls	r3, r6, #2
     db4:	58eb      	ldr	r3, [r5, r3]
     db6:	4798      	blx	r3
     db8:	3601      	adds	r6, #1
     dba:	e7f2      	b.n	da2 <__libc_init_array+0x1e>
     dbc:	00001070 	.word	0x00001070
     dc0:	00001070 	.word	0x00001070
     dc4:	00001070 	.word	0x00001070
     dc8:	00001074 	.word	0x00001074

00000dcc <malloc>:
     dcc:	b510      	push	{r4, lr}
     dce:	4b03      	ldr	r3, [pc, #12]	; (ddc <malloc+0x10>)
     dd0:	0001      	movs	r1, r0
     dd2:	6818      	ldr	r0, [r3, #0]
     dd4:	f000 f86a 	bl	eac <_malloc_r>
     dd8:	bd10      	pop	{r4, pc}
     dda:	46c0      	nop			; (mov r8, r8)
     ddc:	20000020 	.word	0x20000020

00000de0 <free>:
     de0:	b510      	push	{r4, lr}
     de2:	4b03      	ldr	r3, [pc, #12]	; (df0 <free+0x10>)
     de4:	0001      	movs	r1, r0
     de6:	6818      	ldr	r0, [r3, #0]
     de8:	f000 f816 	bl	e18 <_free_r>
     dec:	bd10      	pop	{r4, pc}
     dee:	46c0      	nop			; (mov r8, r8)
     df0:	20000020 	.word	0x20000020

00000df4 <memcpy>:
     df4:	2300      	movs	r3, #0
     df6:	b510      	push	{r4, lr}
     df8:	429a      	cmp	r2, r3
     dfa:	d100      	bne.n	dfe <memcpy+0xa>
     dfc:	bd10      	pop	{r4, pc}
     dfe:	5ccc      	ldrb	r4, [r1, r3]
     e00:	54c4      	strb	r4, [r0, r3]
     e02:	3301      	adds	r3, #1
     e04:	e7f8      	b.n	df8 <memcpy+0x4>

00000e06 <memset>:
     e06:	0003      	movs	r3, r0
     e08:	1882      	adds	r2, r0, r2
     e0a:	4293      	cmp	r3, r2
     e0c:	d100      	bne.n	e10 <memset+0xa>
     e0e:	4770      	bx	lr
     e10:	7019      	strb	r1, [r3, #0]
     e12:	3301      	adds	r3, #1
     e14:	e7f9      	b.n	e0a <memset+0x4>
	...

00000e18 <_free_r>:
     e18:	b570      	push	{r4, r5, r6, lr}
     e1a:	0005      	movs	r5, r0
     e1c:	2900      	cmp	r1, #0
     e1e:	d010      	beq.n	e42 <_free_r+0x2a>
     e20:	1f0c      	subs	r4, r1, #4
     e22:	6823      	ldr	r3, [r4, #0]
     e24:	2b00      	cmp	r3, #0
     e26:	da00      	bge.n	e2a <_free_r+0x12>
     e28:	18e4      	adds	r4, r4, r3
     e2a:	0028      	movs	r0, r5
     e2c:	f000 f8ae 	bl	f8c <__malloc_lock>
     e30:	4a1d      	ldr	r2, [pc, #116]	; (ea8 <_free_r+0x90>)
     e32:	6813      	ldr	r3, [r2, #0]
     e34:	2b00      	cmp	r3, #0
     e36:	d105      	bne.n	e44 <_free_r+0x2c>
     e38:	6063      	str	r3, [r4, #4]
     e3a:	6014      	str	r4, [r2, #0]
     e3c:	0028      	movs	r0, r5
     e3e:	f000 f8a6 	bl	f8e <__malloc_unlock>
     e42:	bd70      	pop	{r4, r5, r6, pc}
     e44:	42a3      	cmp	r3, r4
     e46:	d909      	bls.n	e5c <_free_r+0x44>
     e48:	6821      	ldr	r1, [r4, #0]
     e4a:	1860      	adds	r0, r4, r1
     e4c:	4283      	cmp	r3, r0
     e4e:	d1f3      	bne.n	e38 <_free_r+0x20>
     e50:	6818      	ldr	r0, [r3, #0]
     e52:	685b      	ldr	r3, [r3, #4]
     e54:	1841      	adds	r1, r0, r1
     e56:	6021      	str	r1, [r4, #0]
     e58:	e7ee      	b.n	e38 <_free_r+0x20>
     e5a:	0013      	movs	r3, r2
     e5c:	685a      	ldr	r2, [r3, #4]
     e5e:	2a00      	cmp	r2, #0
     e60:	d001      	beq.n	e66 <_free_r+0x4e>
     e62:	42a2      	cmp	r2, r4
     e64:	d9f9      	bls.n	e5a <_free_r+0x42>
     e66:	6819      	ldr	r1, [r3, #0]
     e68:	1858      	adds	r0, r3, r1
     e6a:	42a0      	cmp	r0, r4
     e6c:	d10b      	bne.n	e86 <_free_r+0x6e>
     e6e:	6820      	ldr	r0, [r4, #0]
     e70:	1809      	adds	r1, r1, r0
     e72:	1858      	adds	r0, r3, r1
     e74:	6019      	str	r1, [r3, #0]
     e76:	4282      	cmp	r2, r0
     e78:	d1e0      	bne.n	e3c <_free_r+0x24>
     e7a:	6810      	ldr	r0, [r2, #0]
     e7c:	6852      	ldr	r2, [r2, #4]
     e7e:	1841      	adds	r1, r0, r1
     e80:	6019      	str	r1, [r3, #0]
     e82:	605a      	str	r2, [r3, #4]
     e84:	e7da      	b.n	e3c <_free_r+0x24>
     e86:	42a0      	cmp	r0, r4
     e88:	d902      	bls.n	e90 <_free_r+0x78>
     e8a:	230c      	movs	r3, #12
     e8c:	602b      	str	r3, [r5, #0]
     e8e:	e7d5      	b.n	e3c <_free_r+0x24>
     e90:	6821      	ldr	r1, [r4, #0]
     e92:	1860      	adds	r0, r4, r1
     e94:	4282      	cmp	r2, r0
     e96:	d103      	bne.n	ea0 <_free_r+0x88>
     e98:	6810      	ldr	r0, [r2, #0]
     e9a:	6852      	ldr	r2, [r2, #4]
     e9c:	1841      	adds	r1, r0, r1
     e9e:	6021      	str	r1, [r4, #0]
     ea0:	6062      	str	r2, [r4, #4]
     ea2:	605c      	str	r4, [r3, #4]
     ea4:	e7ca      	b.n	e3c <_free_r+0x24>
     ea6:	46c0      	nop			; (mov r8, r8)
     ea8:	200000ac 	.word	0x200000ac

00000eac <_malloc_r>:
     eac:	2303      	movs	r3, #3
     eae:	b570      	push	{r4, r5, r6, lr}
     eb0:	1ccd      	adds	r5, r1, #3
     eb2:	439d      	bics	r5, r3
     eb4:	3508      	adds	r5, #8
     eb6:	0006      	movs	r6, r0
     eb8:	2d0c      	cmp	r5, #12
     eba:	d21e      	bcs.n	efa <_malloc_r+0x4e>
     ebc:	250c      	movs	r5, #12
     ebe:	42a9      	cmp	r1, r5
     ec0:	d81d      	bhi.n	efe <_malloc_r+0x52>
     ec2:	0030      	movs	r0, r6
     ec4:	f000 f862 	bl	f8c <__malloc_lock>
     ec8:	4a25      	ldr	r2, [pc, #148]	; (f60 <_malloc_r+0xb4>)
     eca:	6814      	ldr	r4, [r2, #0]
     ecc:	0021      	movs	r1, r4
     ece:	2900      	cmp	r1, #0
     ed0:	d119      	bne.n	f06 <_malloc_r+0x5a>
     ed2:	4c24      	ldr	r4, [pc, #144]	; (f64 <_malloc_r+0xb8>)
     ed4:	6823      	ldr	r3, [r4, #0]
     ed6:	2b00      	cmp	r3, #0
     ed8:	d103      	bne.n	ee2 <_malloc_r+0x36>
     eda:	0030      	movs	r0, r6
     edc:	f000 f844 	bl	f68 <_sbrk_r>
     ee0:	6020      	str	r0, [r4, #0]
     ee2:	0029      	movs	r1, r5
     ee4:	0030      	movs	r0, r6
     ee6:	f000 f83f 	bl	f68 <_sbrk_r>
     eea:	1c43      	adds	r3, r0, #1
     eec:	d12c      	bne.n	f48 <_malloc_r+0x9c>
     eee:	230c      	movs	r3, #12
     ef0:	0030      	movs	r0, r6
     ef2:	6033      	str	r3, [r6, #0]
     ef4:	f000 f84b 	bl	f8e <__malloc_unlock>
     ef8:	e003      	b.n	f02 <_malloc_r+0x56>
     efa:	2d00      	cmp	r5, #0
     efc:	dadf      	bge.n	ebe <_malloc_r+0x12>
     efe:	230c      	movs	r3, #12
     f00:	6033      	str	r3, [r6, #0]
     f02:	2000      	movs	r0, #0
     f04:	bd70      	pop	{r4, r5, r6, pc}
     f06:	680b      	ldr	r3, [r1, #0]
     f08:	1b5b      	subs	r3, r3, r5
     f0a:	d41a      	bmi.n	f42 <_malloc_r+0x96>
     f0c:	2b0b      	cmp	r3, #11
     f0e:	d903      	bls.n	f18 <_malloc_r+0x6c>
     f10:	600b      	str	r3, [r1, #0]
     f12:	18cc      	adds	r4, r1, r3
     f14:	6025      	str	r5, [r4, #0]
     f16:	e003      	b.n	f20 <_malloc_r+0x74>
     f18:	428c      	cmp	r4, r1
     f1a:	d10e      	bne.n	f3a <_malloc_r+0x8e>
     f1c:	6863      	ldr	r3, [r4, #4]
     f1e:	6013      	str	r3, [r2, #0]
     f20:	0030      	movs	r0, r6
     f22:	f000 f834 	bl	f8e <__malloc_unlock>
     f26:	0020      	movs	r0, r4
     f28:	2207      	movs	r2, #7
     f2a:	300b      	adds	r0, #11
     f2c:	1d23      	adds	r3, r4, #4
     f2e:	4390      	bics	r0, r2
     f30:	1ac3      	subs	r3, r0, r3
     f32:	d0e7      	beq.n	f04 <_malloc_r+0x58>
     f34:	425a      	negs	r2, r3
     f36:	50e2      	str	r2, [r4, r3]
     f38:	e7e4      	b.n	f04 <_malloc_r+0x58>
     f3a:	684b      	ldr	r3, [r1, #4]
     f3c:	6063      	str	r3, [r4, #4]
     f3e:	000c      	movs	r4, r1
     f40:	e7ee      	b.n	f20 <_malloc_r+0x74>
     f42:	000c      	movs	r4, r1
     f44:	6849      	ldr	r1, [r1, #4]
     f46:	e7c2      	b.n	ece <_malloc_r+0x22>
     f48:	2303      	movs	r3, #3
     f4a:	1cc4      	adds	r4, r0, #3
     f4c:	439c      	bics	r4, r3
     f4e:	42a0      	cmp	r0, r4
     f50:	d0e0      	beq.n	f14 <_malloc_r+0x68>
     f52:	1a21      	subs	r1, r4, r0
     f54:	0030      	movs	r0, r6
     f56:	f000 f807 	bl	f68 <_sbrk_r>
     f5a:	1c43      	adds	r3, r0, #1
     f5c:	d1da      	bne.n	f14 <_malloc_r+0x68>
     f5e:	e7c6      	b.n	eee <_malloc_r+0x42>
     f60:	200000ac 	.word	0x200000ac
     f64:	200000b0 	.word	0x200000b0

00000f68 <_sbrk_r>:
     f68:	2300      	movs	r3, #0
     f6a:	b570      	push	{r4, r5, r6, lr}
     f6c:	4c06      	ldr	r4, [pc, #24]	; (f88 <_sbrk_r+0x20>)
     f6e:	0005      	movs	r5, r0
     f70:	0008      	movs	r0, r1
     f72:	6023      	str	r3, [r4, #0]
     f74:	f7ff fa9a 	bl	4ac <_sbrk>
     f78:	1c43      	adds	r3, r0, #1
     f7a:	d103      	bne.n	f84 <_sbrk_r+0x1c>
     f7c:	6823      	ldr	r3, [r4, #0]
     f7e:	2b00      	cmp	r3, #0
     f80:	d000      	beq.n	f84 <_sbrk_r+0x1c>
     f82:	602b      	str	r3, [r5, #0]
     f84:	bd70      	pop	{r4, r5, r6, pc}
     f86:	46c0      	nop			; (mov r8, r8)
     f88:	2000010c 	.word	0x2000010c

00000f8c <__malloc_lock>:
     f8c:	4770      	bx	lr

00000f8e <__malloc_unlock>:
     f8e:	4770      	bx	lr
     f90:	682f2e2e 	.word	0x682f2e2e
     f94:	732f6c61 	.word	0x732f6c61
     f98:	682f6372 	.word	0x682f6372
     f9c:	615f6c61 	.word	0x615f6c61
     fa0:	735f7365 	.word	0x735f7365
     fa4:	2e636e79 	.word	0x2e636e79
     fa8:	00000063 	.word	0x00000063
     fac:	682f2e2e 	.word	0x682f2e2e
     fb0:	732f6c61 	.word	0x732f6c61
     fb4:	682f6372 	.word	0x682f6372
     fb8:	665f6c61 	.word	0x665f6c61
     fbc:	6873616c 	.word	0x6873616c
     fc0:	0000632e 	.word	0x0000632e
     fc4:	682f2e2e 	.word	0x682f2e2e
     fc8:	6e2f6c70 	.word	0x6e2f6c70
     fcc:	74636d76 	.word	0x74636d76
     fd0:	682f6c72 	.word	0x682f6c72
     fd4:	6e5f6c70 	.word	0x6e5f6c70
     fd8:	74636d76 	.word	0x74636d76
     fdc:	632e6c72 	.word	0x632e6c72
     fe0:	00000000 	.word	0x00000000

00000fe4 <key_256>:
     fe4:	10eb3d60 be71ca15 f0ae732b 81777d85     `=....q.+s...}w.
     ff4:	072c351f d708613b a310982d f4df1409     .5,.;a..-.......

00001004 <__sf_fake_stderr>:
	...

00001024 <__sf_fake_stdin>:
	...

00001044 <__sf_fake_stdout>:
	...

00001064 <_init>:
    1064:	b5f8      	push	{r3, r4, r5, r6, r7, lr}
    1066:	46c0      	nop			; (mov r8, r8)
    1068:	bcf8      	pop	{r3, r4, r5, r6, r7}
    106a:	bc08      	pop	{r3}
    106c:	469e      	mov	lr, r3
    106e:	4770      	bx	lr

00001070 <__init_array_start>:
    1070:	000000dd 	.word	0x000000dd

00001074 <_fini>:
    1074:	b5f8      	push	{r3, r4, r5, r6, r7, lr}
    1076:	46c0      	nop			; (mov r8, r8)
    1078:	bcf8      	pop	{r3, r4, r5, r6, r7}
    107a:	bc08      	pop	{r3}
    107c:	469e      	mov	lr, r3
    107e:	4770      	bx	lr

00001080 <__fini_array_start>:
    1080:	000000b5 	.word	0x000000b5
