
AES-256_WolfSSL_library.elf:     file format elf32-littlearm

Sections:
Idx Name          Size      VMA       LMA       File off  Algn
  0 .text         00004024  00000000  00000000  00010000  2**2
                  CONTENTS, ALLOC, LOAD, READONLY, CODE
  1 .relocate     00000084  20000000  00004024  00020000  2**2
                  CONTENTS, ALLOC, LOAD, DATA
  2 .lpram        00000000  30000000  30000000  00020084  2**0
                  CONTENTS
  3 .bss          00000050  20000084  000040a8  00020084  2**2
                  ALLOC
  4 .stack        00002004  200000d4  000040f8  00020084  2**0
                  ALLOC
  5 .ARM.attributes 00000028  00000000  00000000  00020084  2**0
                  CONTENTS, READONLY
  6 .comment      00000059  00000000  00000000  000200ac  2**0
                  CONTENTS, READONLY
  7 .debug_info   00010bf5  00000000  00000000  00020105  2**0
                  CONTENTS, READONLY, DEBUGGING
  8 .debug_abbrev 00002b7c  00000000  00000000  00030cfa  2**0
                  CONTENTS, READONLY, DEBUGGING
  9 .debug_loc    00005ea0  00000000  00000000  00033876  2**0
                  CONTENTS, READONLY, DEBUGGING
 10 .debug_aranges 000004d8  00000000  00000000  00039716  2**0
                  CONTENTS, READONLY, DEBUGGING
 11 .debug_ranges 000005e0  00000000  00000000  00039bee  2**0
                  CONTENTS, READONLY, DEBUGGING
 12 .debug_macro  0001b626  00000000  00000000  0003a1ce  2**0
                  CONTENTS, READONLY, DEBUGGING
 13 .debug_line   0000cbef  00000000  00000000  000557f4  2**0
                  CONTENTS, READONLY, DEBUGGING
 14 .debug_str    0008e73c  00000000  00000000  000623e3  2**0
                  CONTENTS, READONLY, DEBUGGING
 15 .debug_frame  00000d18  00000000  00000000  000f0b20  2**2
                  CONTENTS, READONLY, DEBUGGING

Disassembly of section .text:

00000000 <exception_table>:
       0:	d8 20 00 20 2d 01 00 00 29 01 00 00 29 01 00 00     . . -...)...)...
	...
      2c:	29 01 00 00 00 00 00 00 00 00 00 00 29 01 00 00     )...........)...
      3c:	29 01 00 00 29 01 00 00 29 01 00 00 29 01 00 00     )...)...)...)...
      4c:	29 01 00 00 95 05 00 00 29 01 00 00 29 01 00 00     ).......)...)...
      5c:	29 01 00 00 29 01 00 00 29 01 00 00 29 01 00 00     )...)...)...)...
      6c:	29 01 00 00 29 01 00 00 29 01 00 00 29 01 00 00     )...)...)...)...
      7c:	29 01 00 00 29 01 00 00 29 01 00 00 29 01 00 00     )...)...)...)...
      8c:	29 01 00 00 29 01 00 00 29 01 00 00 29 01 00 00     )...)...)...)...
      9c:	29 01 00 00 29 01 00 00 29 01 00 00 29 01 00 00     )...)...)...)...
      ac:	29 01 00 00 00 00 00 00                             ).......

000000b4 <__do_global_dtors_aux>:
      b4:	b510      	push	{r4, lr}
      b6:	4c06      	ldr	r4, [pc, #24]	; (d0 <__do_global_dtors_aux+0x1c>)
      b8:	7823      	ldrb	r3, [r4, #0]
      ba:	2b00      	cmp	r3, #0
      bc:	d107      	bne.n	ce <__do_global_dtors_aux+0x1a>
      be:	4b05      	ldr	r3, [pc, #20]	; (d4 <__do_global_dtors_aux+0x20>)
      c0:	2b00      	cmp	r3, #0
      c2:	d002      	beq.n	ca <__do_global_dtors_aux+0x16>
      c4:	4804      	ldr	r0, [pc, #16]	; (d8 <__do_global_dtors_aux+0x24>)
      c6:	e000      	b.n	ca <__do_global_dtors_aux+0x16>
      c8:	bf00      	nop
      ca:	2301      	movs	r3, #1
      cc:	7023      	strb	r3, [r4, #0]
      ce:	bd10      	pop	{r4, pc}
      d0:	20000084 	.word	0x20000084
      d4:	00000000 	.word	0x00000000
      d8:	00004024 	.word	0x00004024

000000dc <frame_dummy>:
      dc:	4b08      	ldr	r3, [pc, #32]	; (100 <frame_dummy+0x24>)
      de:	b510      	push	{r4, lr}
      e0:	2b00      	cmp	r3, #0
      e2:	d003      	beq.n	ec <frame_dummy+0x10>
      e4:	4907      	ldr	r1, [pc, #28]	; (104 <frame_dummy+0x28>)
      e6:	4808      	ldr	r0, [pc, #32]	; (108 <frame_dummy+0x2c>)
      e8:	e000      	b.n	ec <frame_dummy+0x10>
      ea:	bf00      	nop
      ec:	4807      	ldr	r0, [pc, #28]	; (10c <frame_dummy+0x30>)
      ee:	6803      	ldr	r3, [r0, #0]
      f0:	2b00      	cmp	r3, #0
      f2:	d100      	bne.n	f6 <frame_dummy+0x1a>
      f4:	bd10      	pop	{r4, pc}
      f6:	4b06      	ldr	r3, [pc, #24]	; (110 <frame_dummy+0x34>)
      f8:	2b00      	cmp	r3, #0
      fa:	d0fb      	beq.n	f4 <frame_dummy+0x18>
      fc:	4798      	blx	r3
      fe:	e7f9      	b.n	f4 <frame_dummy+0x18>
     100:	00000000 	.word	0x00000000
     104:	20000088 	.word	0x20000088
     108:	00004024 	.word	0x00004024
     10c:	00004024 	.word	0x00004024
     110:	00000000 	.word	0x00000000

00000114 <atmel_start_init>:

/**
 * Initializes MCU, drivers and middleware in the project
 **/
void atmel_start_init(void)
{
     114:	b510      	push	{r4, lr}
	system_init();
     116:	4b02      	ldr	r3, [pc, #8]	; (120 <atmel_start_init+0xc>)
     118:	4798      	blx	r3
	
	gpio_init();
     11a:	4b02      	ldr	r3, [pc, #8]	; (124 <atmel_start_init+0x10>)
     11c:	4798      	blx	r3

}
     11e:	bd10      	pop	{r4, pc}
     120:	0000020d 	.word	0x0000020d
     124:	00000259 	.word	0x00000259

00000128 <Dummy_Handler>:

/**
 * \brief Default interrupt handler for unused IRQs.
 */
void Dummy_Handler(void)
{
     128:	e7fe      	b.n	128 <Dummy_Handler>
	...

0000012c <Reset_Handler>:
{
     12c:	b510      	push	{r4, lr}
        if (pSrc != pDest) {
     12e:	4a1a      	ldr	r2, [pc, #104]	; (198 <Reset_Handler+0x6c>)
     130:	4b1a      	ldr	r3, [pc, #104]	; (19c <Reset_Handler+0x70>)
     132:	429a      	cmp	r2, r3
     134:	d011      	beq.n	15a <Reset_Handler+0x2e>
                for (; pDest < &_erelocate;) {
     136:	001a      	movs	r2, r3
     138:	4b19      	ldr	r3, [pc, #100]	; (1a0 <Reset_Handler+0x74>)
     13a:	429a      	cmp	r2, r3
     13c:	d20d      	bcs.n	15a <Reset_Handler+0x2e>
     13e:	4a19      	ldr	r2, [pc, #100]	; (1a4 <Reset_Handler+0x78>)
     140:	3303      	adds	r3, #3
     142:	1a9b      	subs	r3, r3, r2
     144:	089b      	lsrs	r3, r3, #2
     146:	3301      	adds	r3, #1
     148:	009b      	lsls	r3, r3, #2
     14a:	2200      	movs	r2, #0
                        *pDest++ = *pSrc++;
     14c:	4813      	ldr	r0, [pc, #76]	; (19c <Reset_Handler+0x70>)
     14e:	4912      	ldr	r1, [pc, #72]	; (198 <Reset_Handler+0x6c>)
     150:	588c      	ldr	r4, [r1, r2]
     152:	5084      	str	r4, [r0, r2]
     154:	3204      	adds	r2, #4
                for (; pDest < &_erelocate;) {
     156:	429a      	cmp	r2, r3
     158:	d1fa      	bne.n	150 <Reset_Handler+0x24>
        for (pDest = &_szero; pDest < &_ezero;) {
     15a:	4a13      	ldr	r2, [pc, #76]	; (1a8 <Reset_Handler+0x7c>)
     15c:	4b13      	ldr	r3, [pc, #76]	; (1ac <Reset_Handler+0x80>)
     15e:	429a      	cmp	r2, r3
     160:	d20a      	bcs.n	178 <Reset_Handler+0x4c>
     162:	43d3      	mvns	r3, r2
     164:	4911      	ldr	r1, [pc, #68]	; (1ac <Reset_Handler+0x80>)
     166:	185b      	adds	r3, r3, r1
     168:	2103      	movs	r1, #3
     16a:	438b      	bics	r3, r1
     16c:	3304      	adds	r3, #4
     16e:	189b      	adds	r3, r3, r2
                *pDest++ = 0;
     170:	2100      	movs	r1, #0
     172:	c202      	stmia	r2!, {r1}
        for (pDest = &_szero; pDest < &_ezero;) {
     174:	4293      	cmp	r3, r2
     176:	d1fc      	bne.n	172 <Reset_Handler+0x46>
        SCB->VTOR = ((uint32_t) pSrc & SCB_VTOR_TBLOFF_Msk);
     178:	4a0d      	ldr	r2, [pc, #52]	; (1b0 <Reset_Handler+0x84>)
     17a:	21ff      	movs	r1, #255	; 0xff
     17c:	4b0d      	ldr	r3, [pc, #52]	; (1b4 <Reset_Handler+0x88>)
     17e:	438b      	bics	r3, r1
     180:	6093      	str	r3, [r2, #8]
        NVMCTRL->CTRLB.bit.MANW = 1;
     182:	4a0d      	ldr	r2, [pc, #52]	; (1b8 <Reset_Handler+0x8c>)
     184:	6853      	ldr	r3, [r2, #4]
     186:	397f      	subs	r1, #127	; 0x7f
     188:	430b      	orrs	r3, r1
     18a:	6053      	str	r3, [r2, #4]
        __libc_init_array();
     18c:	4b0b      	ldr	r3, [pc, #44]	; (1bc <Reset_Handler+0x90>)
     18e:	4798      	blx	r3
        main();
     190:	4b0b      	ldr	r3, [pc, #44]	; (1c0 <Reset_Handler+0x94>)
     192:	4798      	blx	r3
     194:	e7fe      	b.n	194 <Reset_Handler+0x68>
     196:	46c0      	nop			; (mov r8, r8)
     198:	00004024 	.word	0x00004024
     19c:	20000000 	.word	0x20000000
     1a0:	20000084 	.word	0x20000084
     1a4:	20000004 	.word	0x20000004
     1a8:	20000084 	.word	0x20000084
     1ac:	200000d4 	.word	0x200000d4
     1b0:	e000ed00 	.word	0xe000ed00
     1b4:	00000000 	.word	0x00000000
     1b8:	41004000 	.word	0x41004000
     1bc:	00001c19 	.word	0x00001c19
     1c0:	00000aa1 	.word	0x00000aa1

000001c4 <FLASH_0_CLOCK_init>:
}

static inline void hri_mclk_set_AHBMASK_NVMCTRL_bit(const void *const hw)
{
	MCLK_CRITICAL_SECTION_ENTER();
	((Mclk *)hw)->AHBMASK.reg |= MCLK_AHBMASK_NVMCTRL;
     1c4:	4a03      	ldr	r2, [pc, #12]	; (1d4 <FLASH_0_CLOCK_init+0x10>)
     1c6:	6911      	ldr	r1, [r2, #16]
     1c8:	2380      	movs	r3, #128	; 0x80
     1ca:	005b      	lsls	r3, r3, #1
     1cc:	430b      	orrs	r3, r1
     1ce:	6113      	str	r3, [r2, #16]

void FLASH_0_CLOCK_init(void)
{

	hri_mclk_set_AHBMASK_NVMCTRL_bit(MCLK);
}
     1d0:	4770      	bx	lr
     1d2:	46c0      	nop			; (mov r8, r8)
     1d4:	40000400 	.word	0x40000400

000001d8 <FLASH_0_init>:

void FLASH_0_init(void)
{
     1d8:	b510      	push	{r4, lr}
	FLASH_0_CLOCK_init();
     1da:	4b03      	ldr	r3, [pc, #12]	; (1e8 <FLASH_0_init+0x10>)
     1dc:	4798      	blx	r3
	flash_init(&FLASH_0, NVMCTRL);
     1de:	4903      	ldr	r1, [pc, #12]	; (1ec <FLASH_0_init+0x14>)
     1e0:	4803      	ldr	r0, [pc, #12]	; (1f0 <FLASH_0_init+0x18>)
     1e2:	4b04      	ldr	r3, [pc, #16]	; (1f4 <FLASH_0_init+0x1c>)
     1e4:	4798      	blx	r3
}
     1e6:	bd10      	pop	{r4, pc}
     1e8:	000001c5 	.word	0x000001c5
     1ec:	41004000 	.word	0x41004000
     1f0:	200000b4 	.word	0x200000b4
     1f4:	0000035d 	.word	0x0000035d

000001f8 <delay_driver_init>:

void delay_driver_init(void)
{
     1f8:	b510      	push	{r4, lr}
	delay_init(SysTick);
     1fa:	4802      	ldr	r0, [pc, #8]	; (204 <delay_driver_init+0xc>)
     1fc:	4b02      	ldr	r3, [pc, #8]	; (208 <delay_driver_init+0x10>)
     1fe:	4798      	blx	r3
}
     200:	bd10      	pop	{r4, pc}
     202:	46c0      	nop			; (mov r8, r8)
     204:	e000e010 	.word	0xe000e010
     208:	00000311 	.word	0x00000311

0000020c <system_init>:

void system_init(void)
{
     20c:	b510      	push	{r4, lr}
 * Currently the following initialization functions are supported:
 *  - System clock initialization
 */
static inline void init_mcu(void)
{
	_init_chip();
     20e:	4b0d      	ldr	r3, [pc, #52]	; (244 <system_init+0x38>)
     210:	4798      	blx	r3
	((Port *)hw)->Group[submodule_index].OUTCLR.reg = ~data;
}

static inline void hri_port_clear_OUT_reg(const void *const hw, uint8_t submodule_index, hri_port_out_reg_t mask)
{
	((Port *)hw)->Group[submodule_index].OUTCLR.reg = mask;
     212:	23c0      	movs	r3, #192	; 0xc0
     214:	05db      	lsls	r3, r3, #23
     216:	2280      	movs	r2, #128	; 0x80
     218:	00d2      	lsls	r2, r2, #3
     21a:	2194      	movs	r1, #148	; 0x94
     21c:	505a      	str	r2, [r3, r1]
	((Port *)hw)->Group[submodule_index].DIRSET.reg = mask;
     21e:	390c      	subs	r1, #12
     220:	505a      	str	r2, [r3, r1]

static inline void hri_port_write_WRCONFIG_reg(const void *const hw, uint8_t submodule_index,
                                               hri_port_wrconfig_reg_t data)
{
	PORT_CRITICAL_SECTION_ENTER();
	((Port *)hw)->Group[submodule_index].WRCONFIG.reg = data;
     222:	4b09      	ldr	r3, [pc, #36]	; (248 <system_init+0x3c>)
     224:	22a8      	movs	r2, #168	; 0xa8
     226:	4909      	ldr	r1, [pc, #36]	; (24c <system_init+0x40>)
     228:	5099      	str	r1, [r3, r2]
     22a:	21c0      	movs	r1, #192	; 0xc0
     22c:	0609      	lsls	r1, r1, #24
     22e:	5099      	str	r1, [r3, r2]
	tmp = ((Port *)hw)->Group[submodule_index].PINCFG[index].reg;
     230:	21ca      	movs	r1, #202	; 0xca
     232:	5c5a      	ldrb	r2, [r3, r1]
	tmp &= ~PORT_PINCFG_PMUXEN;
     234:	2001      	movs	r0, #1
     236:	4382      	bics	r2, r0
	((Port *)hw)->Group[submodule_index].PINCFG[index].reg = tmp;
     238:	545a      	strb	r2, [r3, r1]
	// Set pin direction to output
	gpio_set_pin_direction(LED0, GPIO_DIRECTION_OUT);

	gpio_set_pin_function(LED0, GPIO_PIN_FUNCTION_OFF);

	FLASH_0_init();
     23a:	4b05      	ldr	r3, [pc, #20]	; (250 <system_init+0x44>)
     23c:	4798      	blx	r3

	delay_driver_init();
     23e:	4b05      	ldr	r3, [pc, #20]	; (254 <system_init+0x48>)
     240:	4798      	blx	r3
}
     242:	bd10      	pop	{r4, pc}
     244:	000003dd 	.word	0x000003dd
     248:	40002800 	.word	0x40002800
     24c:	40000400 	.word	0x40000400
     250:	000001d9 	.word	0x000001d9
     254:	000001f9 	.word	0x000001f9

00000258 <gpio_init>:

#include "driver_init.h"
#include "gpio_init.h"

void gpio_init(void)
{
     258:	b5f0      	push	{r4, r5, r6, r7, lr}
     25a:	46c6      	mov	lr, r8
     25c:	b500      	push	{lr}
	((Port *)hw)->Group[submodule_index].OUTCLR.reg = mask;
     25e:	22c0      	movs	r2, #192	; 0xc0
     260:	05d2      	lsls	r2, r2, #23
     262:	2302      	movs	r3, #2
     264:	2194      	movs	r1, #148	; 0x94
     266:	5053      	str	r3, [r2, r1]
     268:	2180      	movs	r1, #128	; 0x80
     26a:	0249      	lsls	r1, r1, #9
     26c:	6151      	str	r1, [r2, #20]
     26e:	2780      	movs	r7, #128	; 0x80
     270:	037f      	lsls	r7, r7, #13
     272:	6157      	str	r7, [r2, #20]
     274:	2080      	movs	r0, #128	; 0x80
     276:	0380      	lsls	r0, r0, #14
     278:	4680      	mov	r8, r0
     27a:	6150      	str	r0, [r2, #20]
	((Port *)hw)->Group[submodule_index].DIRSET.reg = mask;
     27c:	2688      	movs	r6, #136	; 0x88
     27e:	5193      	str	r3, [r2, r6]
	((Port *)hw)->Group[submodule_index].WRCONFIG.reg = data;
     280:	4b1c      	ldr	r3, [pc, #112]	; (2f4 <gpio_init+0x9c>)
     282:	20a8      	movs	r0, #168	; 0xa8
     284:	4d1c      	ldr	r5, [pc, #112]	; (2f8 <gpio_init+0xa0>)
     286:	501d      	str	r5, [r3, r0]
     288:	25c0      	movs	r5, #192	; 0xc0
     28a:	062d      	lsls	r5, r5, #24
     28c:	501d      	str	r5, [r3, r0]
	((Port *)hw)->Group[submodule_index].DIRSET.reg = mask;
     28e:	6091      	str	r1, [r2, #8]
	((Port *)hw)->Group[submodule_index].WRCONFIG.reg = data;
     290:	2180      	movs	r1, #128	; 0x80
     292:	05c9      	lsls	r1, r1, #23
     294:	6299      	str	r1, [r3, #40]	; 0x28
     296:	4c19      	ldr	r4, [pc, #100]	; (2fc <gpio_init+0xa4>)
     298:	629c      	str	r4, [r3, #40]	; 0x28
	((Port *)hw)->Group[submodule_index].DIRSET.reg = mask;
     29a:	6097      	str	r7, [r2, #8]
	((Port *)hw)->Group[submodule_index].WRCONFIG.reg = data;
     29c:	6299      	str	r1, [r3, #40]	; 0x28
     29e:	4f18      	ldr	r7, [pc, #96]	; (300 <gpio_init+0xa8>)
     2a0:	629f      	str	r7, [r3, #40]	; 0x28
	((Port *)hw)->Group[submodule_index].DIRSET.reg = mask;
     2a2:	4644      	mov	r4, r8
     2a4:	6094      	str	r4, [r2, #8]
	((Port *)hw)->Group[submodule_index].WRCONFIG.reg = data;
     2a6:	6299      	str	r1, [r3, #40]	; 0x28
     2a8:	4916      	ldr	r1, [pc, #88]	; (304 <gpio_init+0xac>)
     2aa:	6299      	str	r1, [r3, #40]	; 0x28
	tmp = ((Port *)hw)->Group[submodule_index].PINCFG[index].reg;
     2ac:	27c1      	movs	r7, #193	; 0xc1
     2ae:	5ddc      	ldrb	r4, [r3, r7]
	tmp &= ~PORT_PINCFG_PMUXEN;
     2b0:	2101      	movs	r1, #1
     2b2:	438c      	bics	r4, r1
	((Port *)hw)->Group[submodule_index].PINCFG[index].reg = tmp;
     2b4:	55dc      	strb	r4, [r3, r7]
	tmp = ((Port *)hw)->Group[submodule_index].PINCFG[index].reg;
     2b6:	3f71      	subs	r7, #113	; 0x71
     2b8:	5ddc      	ldrb	r4, [r3, r7]
	tmp &= ~PORT_PINCFG_PMUXEN;
     2ba:	438c      	bics	r4, r1
	((Port *)hw)->Group[submodule_index].PINCFG[index].reg = tmp;
     2bc:	55dc      	strb	r4, [r3, r7]
	tmp = ((Port *)hw)->Group[submodule_index].PINCFG[index].reg;
     2be:	3704      	adds	r7, #4
     2c0:	5ddc      	ldrb	r4, [r3, r7]
	tmp &= ~PORT_PINCFG_PMUXEN;
     2c2:	438c      	bics	r4, r1
	((Port *)hw)->Group[submodule_index].PINCFG[index].reg = tmp;
     2c4:	55dc      	strb	r4, [r3, r7]
	tmp = ((Port *)hw)->Group[submodule_index].PINCFG[index].reg;
     2c6:	3701      	adds	r7, #1
     2c8:	5ddc      	ldrb	r4, [r3, r7]
	tmp &= ~PORT_PINCFG_PMUXEN;
     2ca:	438c      	bics	r4, r1
	((Port *)hw)->Group[submodule_index].PINCFG[index].reg = tmp;
     2cc:	55dc      	strb	r4, [r3, r7]
	((Port *)hw)->Group[submodule_index].OUTSET.reg = mask;
     2ce:	2480      	movs	r4, #128	; 0x80
     2d0:	00e4      	lsls	r4, r4, #3
     2d2:	3743      	adds	r7, #67	; 0x43
     2d4:	51d4      	str	r4, [r2, r7]
	((Port *)hw)->Group[submodule_index].DIRSET.reg = mask;
     2d6:	5194      	str	r4, [r2, r6]
	((Port *)hw)->Group[submodule_index].WRCONFIG.reg = data;
     2d8:	4a0b      	ldr	r2, [pc, #44]	; (308 <gpio_init+0xb0>)
     2da:	501a      	str	r2, [r3, r0]
     2dc:	501d      	str	r5, [r3, r0]
	tmp = ((Port *)hw)->Group[submodule_index].PINCFG[index].reg;
     2de:	3022      	adds	r0, #34	; 0x22
     2e0:	5c1a      	ldrb	r2, [r3, r0]
	tmp &= ~PORT_PINCFG_PMUXEN;
     2e2:	438a      	bics	r2, r1
	((Port *)hw)->Group[submodule_index].PINCFG[index].reg = tmp;
     2e4:	541a      	strb	r2, [r3, r0]
	gpio_set_pin_direction(LED0, GPIO_DIRECTION_OUT);

	gpio_set_pin_function(LED0, GPIO_PIN_FUNCTION_OFF);
#endif

	delay_ms(10);
     2e6:	38c0      	subs	r0, #192	; 0xc0
     2e8:	4b08      	ldr	r3, [pc, #32]	; (30c <gpio_init+0xb4>)
     2ea:	4798      	blx	r3
     2ec:	bc04      	pop	{r2}
     2ee:	4690      	mov	r8, r2
     2f0:	bdf0      	pop	{r4, r5, r6, r7, pc}
     2f2:	46c0      	nop			; (mov r8, r8)
     2f4:	40002800 	.word	0x40002800
     2f8:	40000002 	.word	0x40000002
     2fc:	c0000001 	.word	0xc0000001
     300:	c0000010 	.word	0xc0000010
     304:	c0000020 	.word	0xc0000020
     308:	40000400 	.word	0x40000400
     30c:	00000325 	.word	0x00000325

00000310 <delay_init>:

/**
 * \brief Initialize Delay driver
 */
void delay_init(void *const hw)
{
     310:	b510      	push	{r4, lr}
	_delay_init(hardware = hw);
     312:	4b02      	ldr	r3, [pc, #8]	; (31c <delay_init+0xc>)
     314:	6018      	str	r0, [r3, #0]
     316:	4b02      	ldr	r3, [pc, #8]	; (320 <delay_init+0x10>)
     318:	4798      	blx	r3
}
     31a:	bd10      	pop	{r4, pc}
     31c:	200000a0 	.word	0x200000a0
     320:	000007c5 	.word	0x000007c5

00000324 <delay_ms>:

/**
 * \brief Perform delay in ms
 */
void delay_ms(const uint16_t ms)
{
     324:	b510      	push	{r4, lr}
	_delay_cycles(hardware, _get_cycles_for_ms(ms));
     326:	4b04      	ldr	r3, [pc, #16]	; (338 <delay_ms+0x14>)
     328:	681c      	ldr	r4, [r3, #0]
     32a:	4b04      	ldr	r3, [pc, #16]	; (33c <delay_ms+0x18>)
     32c:	4798      	blx	r3
     32e:	0001      	movs	r1, r0
     330:	0020      	movs	r0, r4
     332:	4b03      	ldr	r3, [pc, #12]	; (340 <delay_ms+0x1c>)
     334:	4798      	blx	r3
}
     336:	bd10      	pop	{r4, pc}
     338:	200000a0 	.word	0x200000a0
     33c:	000003d1 	.word	0x000003d1
     340:	000007d9 	.word	0x000007d9

00000344 <flash_ready>:
 * \internal Ready for a new flash command
 *
 * \param[in] device The pointer to flash device structure
 */
static void flash_ready(struct _flash_device *device)
{
     344:	b510      	push	{r4, lr}
	struct flash_descriptor *const descr = CONTAINER_OF(device, struct flash_descriptor, dev);
	if (descr->callbacks.cb_ready) {
     346:	6943      	ldr	r3, [r0, #20]
     348:	2b00      	cmp	r3, #0
     34a:	d000      	beq.n	34e <flash_ready+0xa>
		descr->callbacks.cb_ready(descr);
     34c:	4798      	blx	r3
	}
}
     34e:	bd10      	pop	{r4, pc}

00000350 <flash_error>:
 * \internal Error occurs in flash command
 *
 * \param[in] device The pointer to flash device structure
 */
static void flash_error(struct _flash_device *device)
{
     350:	b510      	push	{r4, lr}
	struct flash_descriptor *const descr = CONTAINER_OF(device, struct flash_descriptor, dev);
	if (descr->callbacks.cb_error) {
     352:	6983      	ldr	r3, [r0, #24]
     354:	2b00      	cmp	r3, #0
     356:	d000      	beq.n	35a <flash_error+0xa>
		descr->callbacks.cb_error(descr);
     358:	4798      	blx	r3
	}
}
     35a:	bd10      	pop	{r4, pc}

0000035c <flash_init>:
{
     35c:	b570      	push	{r4, r5, r6, lr}
     35e:	0005      	movs	r5, r0
     360:	000c      	movs	r4, r1
	ASSERT(flash && hw);
     362:	2800      	cmp	r0, #0
     364:	d012      	beq.n	38c <flash_init+0x30>
     366:	0008      	movs	r0, r1
     368:	1e43      	subs	r3, r0, #1
     36a:	4198      	sbcs	r0, r3
     36c:	b2c0      	uxtb	r0, r0
     36e:	2238      	movs	r2, #56	; 0x38
     370:	4907      	ldr	r1, [pc, #28]	; (390 <flash_init+0x34>)
     372:	4b08      	ldr	r3, [pc, #32]	; (394 <flash_init+0x38>)
     374:	4798      	blx	r3
	rc = _flash_init(&flash->dev, hw);
     376:	0021      	movs	r1, r4
     378:	0028      	movs	r0, r5
     37a:	4b07      	ldr	r3, [pc, #28]	; (398 <flash_init+0x3c>)
     37c:	4798      	blx	r3
	if (rc) {
     37e:	2800      	cmp	r0, #0
     380:	d103      	bne.n	38a <flash_init+0x2e>
	flash->dev.flash_cb.ready_cb = flash_ready;
     382:	4b06      	ldr	r3, [pc, #24]	; (39c <flash_init+0x40>)
     384:	602b      	str	r3, [r5, #0]
	flash->dev.flash_cb.error_cb = flash_error;
     386:	4b06      	ldr	r3, [pc, #24]	; (3a0 <flash_init+0x44>)
     388:	606b      	str	r3, [r5, #4]
}
     38a:	bd70      	pop	{r4, r5, r6, pc}
     38c:	2000      	movs	r0, #0
     38e:	e7ee      	b.n	36e <flash_init+0x12>
     390:	00001e24 	.word	0x00001e24
     394:	000003a5 	.word	0x000003a5
     398:	000004e5 	.word	0x000004e5
     39c:	00000345 	.word	0x00000345
     3a0:	00000351 	.word	0x00000351

000003a4 <assert>:
/**
 * \brief Assert function
 */
void assert(const bool condition, const char *const file, const int line)
{
	if (!(condition)) {
     3a4:	2800      	cmp	r0, #0
     3a6:	d100      	bne.n	3aa <assert+0x6>
		__asm("BKPT #0");
     3a8:	be00      	bkpt	0x0000
	}
	(void)file;
	(void)line;
}
     3aa:	4770      	bx	lr

000003ac <_sbrk>:

/**
 * \brief Replacement of C library of _sbrk
 */
extern caddr_t _sbrk(int incr)
{
     3ac:	0003      	movs	r3, r0
	static unsigned char *heap = NULL;
	unsigned char *       prev_heap;

	if (heap == NULL) {
     3ae:	4a06      	ldr	r2, [pc, #24]	; (3c8 <_sbrk+0x1c>)
     3b0:	6812      	ldr	r2, [r2, #0]
     3b2:	2a00      	cmp	r2, #0
     3b4:	d004      	beq.n	3c0 <_sbrk+0x14>
		heap = (unsigned char *)&_end;
	}
	prev_heap = heap;
     3b6:	4a04      	ldr	r2, [pc, #16]	; (3c8 <_sbrk+0x1c>)
     3b8:	6810      	ldr	r0, [r2, #0]

	heap += incr;
     3ba:	18c3      	adds	r3, r0, r3
     3bc:	6013      	str	r3, [r2, #0]

	return (caddr_t)prev_heap;
}
     3be:	4770      	bx	lr
		heap = (unsigned char *)&_end;
     3c0:	4902      	ldr	r1, [pc, #8]	; (3cc <_sbrk+0x20>)
     3c2:	4a01      	ldr	r2, [pc, #4]	; (3c8 <_sbrk+0x1c>)
     3c4:	6011      	str	r1, [r2, #0]
     3c6:	e7f6      	b.n	3b6 <_sbrk+0xa>
     3c8:	200000a4 	.word	0x200000a4
     3cc:	200020d8 	.word	0x200020d8

000003d0 <_get_cycles_for_ms>:
 */
static inline uint32_t _get_cycles_for_ms_internal(const uint16_t ms, const uint32_t freq, const uint8_t power)
{
	switch (power) {
	case 8:
		return (ms * (freq / 100000)) * 100;
     3d0:	4b01      	ldr	r3, [pc, #4]	; (3d8 <_get_cycles_for_ms+0x8>)
     3d2:	4358      	muls	r0, r3
 * \brief Retrieve the amount of cycles to delay for the given amount of ms
 */
uint32_t _get_cycles_for_ms(const uint16_t ms)
{
	return _get_cycles_for_ms_internal(ms, CONF_CPU_FREQUENCY, CPU_FREQ_POWER);
}
     3d4:	4770      	bx	lr
     3d6:	46c0      	nop			; (mov r8, r8)
     3d8:	00002ee0 	.word	0x00002ee0

000003dc <_init_chip>:

/**
 * \brief Initialize the hardware abstraction layer
 */
void _init_chip(void)
{
     3dc:	b510      	push	{r4, lr}
}

static inline void hri_nvmctrl_set_CTRLB_RWS_bf(const void *const hw, hri_nvmctrl_ctrlb_reg_t mask)
{
	NVMCTRL_CRITICAL_SECTION_ENTER();
	((Nvmctrl *)hw)->CTRLB.reg |= NVMCTRL_CTRLB_RWS(mask);
     3de:	4b09      	ldr	r3, [pc, #36]	; (404 <_init_chip+0x28>)
     3e0:	685a      	ldr	r2, [r3, #4]
     3e2:	605a      	str	r2, [r3, #4]
	hri_nvmctrl_set_CTRLB_RWS_bf(NVMCTRL, CONF_NVM_WAIT_STATE);

	_set_performance_level(2);
     3e4:	2002      	movs	r0, #2
     3e6:	4b08      	ldr	r3, [pc, #32]	; (408 <_init_chip+0x2c>)
     3e8:	4798      	blx	r3

	_osc32kctrl_init_sources();
     3ea:	4b08      	ldr	r3, [pc, #32]	; (40c <_init_chip+0x30>)
     3ec:	4798      	blx	r3
	_oscctrl_init_sources();
     3ee:	4b08      	ldr	r3, [pc, #32]	; (410 <_init_chip+0x34>)
     3f0:	4798      	blx	r3
	_mclk_init();
     3f2:	4b08      	ldr	r3, [pc, #32]	; (414 <_init_chip+0x38>)
     3f4:	4798      	blx	r3
#if _GCLK_INIT_1ST
	_gclk_init_generators_by_fref(_GCLK_INIT_1ST);
#endif
	_oscctrl_init_referenced_generators();
     3f6:	4b08      	ldr	r3, [pc, #32]	; (418 <_init_chip+0x3c>)
     3f8:	4798      	blx	r3
	_gclk_init_generators_by_fref(_GCLK_INIT_LAST);
     3fa:	20ff      	movs	r0, #255	; 0xff
     3fc:	4b07      	ldr	r3, [pc, #28]	; (41c <_init_chip+0x40>)
     3fe:	4798      	blx	r3
#endif

#if (CONF_PORT_EVCTRL_PORT_0 | CONF_PORT_EVCTRL_PORT_1 | CONF_PORT_EVCTRL_PORT_2 | CONF_PORT_EVCTRL_PORT_3)
	_port_event_init();
#endif
}
     400:	bd10      	pop	{r4, pc}
     402:	46c0      	nop			; (mov r8, r8)
     404:	41004000 	.word	0x41004000
     408:	0000079b 	.word	0x0000079b
     40c:	00000749 	.word	0x00000749
     410:	00000761 	.word	0x00000761
     414:	00000445 	.word	0x00000445
     418:	00000799 	.word	0x00000799
     41c:	00000421 	.word	0x00000421

00000420 <_gclk_init_generators_by_fref>:

void _gclk_init_generators_by_fref(uint32_t bm)
{

#if CONF_GCLK_GENERATOR_0_CONFIG == 1
	if (bm & (1ul << 0)) {
     420:	07c3      	lsls	r3, r0, #31
     422:	d507      	bpl.n	434 <_gclk_init_generators_by_fref+0x14>
}

static inline void hri_gclk_write_GENCTRL_reg(const void *const hw, uint8_t index, hri_gclk_genctrl_reg_t data)
{
	GCLK_CRITICAL_SECTION_ENTER();
	((Gclk *)hw)->GENCTRL[index].reg = data;
     424:	4a04      	ldr	r2, [pc, #16]	; (438 <_gclk_init_generators_by_fref+0x18>)
     426:	4b05      	ldr	r3, [pc, #20]	; (43c <_gclk_init_generators_by_fref+0x1c>)
     428:	621a      	str	r2, [r3, #32]
	while (((Gclk *)hw)->SYNCBUSY.reg & reg) {
     42a:	0019      	movs	r1, r3
     42c:	4a04      	ldr	r2, [pc, #16]	; (440 <_gclk_init_generators_by_fref+0x20>)
     42e:	684b      	ldr	r3, [r1, #4]
     430:	4213      	tst	r3, r2
     432:	d1fc      	bne.n	42e <_gclk_init_generators_by_fref+0xe>
		        | (CONF_GCLK_GEN_8_DIVSEL << GCLK_GENCTRL_DIVSEL_Pos) | (CONF_GCLK_GEN_8_OE << GCLK_GENCTRL_OE_Pos)
		        | (CONF_GCLK_GEN_8_OOV << GCLK_GENCTRL_OOV_Pos) | (CONF_GCLK_GEN_8_IDC << GCLK_GENCTRL_IDC_Pos)
		        | (CONF_GCLK_GENERATOR_8_CONFIG << GCLK_GENCTRL_GENEN_Pos) | CONF_GCLK_GEN_8_SOURCE);
	}
#endif
}
     434:	4770      	bx	lr
     436:	46c0      	nop			; (mov r8, r8)
     438:	00010106 	.word	0x00010106
     43c:	40001800 	.word	0x40001800
     440:	000007fd 	.word	0x000007fd

00000444 <_mclk_init>:
	((Mclk *)hw)->BUPDIV.reg = data;
     444:	4b03      	ldr	r3, [pc, #12]	; (454 <_mclk_init+0x10>)
     446:	2208      	movs	r2, #8
     448:	719a      	strb	r2, [r3, #6]
	((Mclk *)hw)->LPDIV.reg = data;
     44a:	3a04      	subs	r2, #4
     44c:	715a      	strb	r2, [r3, #5]
	((Mclk *)hw)->CPUDIV.reg = data;
     44e:	3a03      	subs	r2, #3
     450:	711a      	strb	r2, [r3, #4]
{
	void *hw = (void *)MCLK;
	hri_mclk_write_BUPDIV_reg(hw, MCLK_BUPDIV_BUPDIV(CONF_MCLK_BUPDIV));
	hri_mclk_write_LPDIV_reg(hw, MCLK_LPDIV_LPDIV(CONF_MCLK_LPDIV));
	hri_mclk_write_CPUDIV_reg(hw, MCLK_CPUDIV_CPUDIV(CONF_MCLK_CPUDIV));
}
     452:	4770      	bx	lr
     454:	40000400 	.word	0x40000400

00000458 <_flash_program>:
 *                           write is stored
 * \param[in] size           The size of data to write to a page
 */
static void _flash_program(void *const hw, const uint32_t dst_addr, const uint8_t *buffer, const uint16_t size,
                           uint32_t nvmctrl_cmd)
{
     458:	b5f8      	push	{r3, r4, r5, r6, r7, lr}
     45a:	0004      	movs	r4, r0
     45c:	000d      	movs	r5, r1
     45e:	0017      	movs	r7, r2
     460:	001e      	movs	r6, r3
	ASSERT(!(dst_addr % 2));
     462:	2301      	movs	r3, #1
     464:	404b      	eors	r3, r1
     466:	2001      	movs	r0, #1
     468:	4018      	ands	r0, r3
     46a:	22c5      	movs	r2, #197	; 0xc5
     46c:	0052      	lsls	r2, r2, #1
     46e:	4919      	ldr	r1, [pc, #100]	; (4d4 <_flash_program+0x7c>)
     470:	4b19      	ldr	r3, [pc, #100]	; (4d8 <_flash_program+0x80>)
     472:	4798      	blx	r3

	uint32_t nvm_address = dst_addr / 2;
     474:	0868      	lsrs	r0, r5, #1
	uint16_t i, data;

	while (!hri_nvmctrl_get_interrupt_READY_bit(hw)) {
     476:	2201      	movs	r2, #1
	return (((Nvmctrl *)hw)->INTFLAG.reg & NVMCTRL_INTFLAG_READY) >> NVMCTRL_INTFLAG_READY_Pos;
     478:	7d23      	ldrb	r3, [r4, #20]
     47a:	4213      	tst	r3, r2
     47c:	d0fc      	beq.n	478 <_flash_program+0x20>
	((Nvmctrl *)hw)->CTRLA.reg = data;
     47e:	4b17      	ldr	r3, [pc, #92]	; (4dc <_flash_program+0x84>)
     480:	8023      	strh	r3, [r4, #0]
		/* Wait until this module isn't busy */
	}

	hri_nvmctrl_write_CTRLA_reg(hw, NVMCTRL_CTRLA_CMD_PBC | NVMCTRL_CTRLA_CMDEX_KEY);

	while (!hri_nvmctrl_get_interrupt_READY_bit(hw)) {
     482:	2201      	movs	r2, #1
	return (((Nvmctrl *)hw)->INTFLAG.reg & NVMCTRL_INTFLAG_READY) >> NVMCTRL_INTFLAG_READY_Pos;
     484:	7d23      	ldrb	r3, [r4, #20]
     486:	4213      	tst	r3, r2
     488:	d0fc      	beq.n	484 <_flash_program+0x2c>
}

static inline void hri_nvmctrl_clear_STATUS_reg(const void *const hw, hri_nvmctrl_status_reg_t mask)
{
	NVMCTRL_CRITICAL_SECTION_ENTER();
	((Nvmctrl *)hw)->STATUS.reg = mask;
     48a:	2320      	movs	r3, #32
     48c:	33ff      	adds	r3, #255	; 0xff
     48e:	8323      	strh	r3, [r4, #24]
	}

	/* Clear flags */
	hri_nvmctrl_clear_STATUS_reg(hw, NVMCTRL_STATUS_MASK);

	for (i = 0; i < size; i += 2) {
     490:	2e00      	cmp	r6, #0
     492:	d00e      	beq.n	4b2 <_flash_program+0x5a>
     494:	3b1f      	subs	r3, #31
     496:	3bff      	subs	r3, #255	; 0xff
     498:	0029      	movs	r1, r5
     49a:	4399      	bics	r1, r3
     49c:	2300      	movs	r3, #0
		data = buffer[i];
     49e:	5cfd      	ldrb	r5, [r7, r3]
     4a0:	b2aa      	uxth	r2, r5
		if (i < NVMCTRL_PAGE_SIZE - 1) {
     4a2:	2b3e      	cmp	r3, #62	; 0x3e
     4a4:	d910      	bls.n	4c8 <_flash_program+0x70>
			data |= (buffer[i + 1] << 8);
		}
		NVM_MEMORY[nvm_address++] = data;
     4a6:	800a      	strh	r2, [r1, #0]
	for (i = 0; i < size; i += 2) {
     4a8:	3302      	adds	r3, #2
     4aa:	b29b      	uxth	r3, r3
     4ac:	3102      	adds	r1, #2
     4ae:	429e      	cmp	r6, r3
     4b0:	d8f5      	bhi.n	49e <_flash_program+0x46>
	}

	while (!hri_nvmctrl_get_interrupt_READY_bit(hw)) {
     4b2:	2201      	movs	r2, #1
	return (((Nvmctrl *)hw)->INTFLAG.reg & NVMCTRL_INTFLAG_READY) >> NVMCTRL_INTFLAG_READY_Pos;
     4b4:	7d23      	ldrb	r3, [r4, #20]
     4b6:	4213      	tst	r3, r2
     4b8:	d0fc      	beq.n	4b4 <_flash_program+0x5c>
	((Nvmctrl *)hw)->ADDR.reg = data;
     4ba:	61e0      	str	r0, [r4, #28]
		/* Wait until this module isn't busy */
	}

	hri_nvmctrl_write_ADDR_reg(hw, dst_addr / 2);
	hri_nvmctrl_write_CTRLA_reg(hw, nvmctrl_cmd | NVMCTRL_CTRLA_CMDEX_KEY);
     4bc:	4b08      	ldr	r3, [pc, #32]	; (4e0 <_flash_program+0x88>)
     4be:	9a06      	ldr	r2, [sp, #24]
     4c0:	4313      	orrs	r3, r2
     4c2:	b29b      	uxth	r3, r3
	((Nvmctrl *)hw)->CTRLA.reg = data;
     4c4:	8023      	strh	r3, [r4, #0]
}
     4c6:	bdf8      	pop	{r3, r4, r5, r6, r7, pc}
			data |= (buffer[i + 1] << 8);
     4c8:	18fa      	adds	r2, r7, r3
     4ca:	7852      	ldrb	r2, [r2, #1]
     4cc:	0212      	lsls	r2, r2, #8
     4ce:	432a      	orrs	r2, r5
     4d0:	e7e9      	b.n	4a6 <_flash_program+0x4e>
     4d2:	46c0      	nop			; (mov r8, r8)
     4d4:	00001e3c 	.word	0x00001e3c
     4d8:	000003a5 	.word	0x000003a5
     4dc:	ffffa544 	.word	0xffffa544
     4e0:	ffffa500 	.word	0xffffa500

000004e4 <_flash_init>:
{
     4e4:	b570      	push	{r4, r5, r6, lr}
     4e6:	0005      	movs	r5, r0
     4e8:	000c      	movs	r4, r1
	ASSERT(device && (hw == NVMCTRL));
     4ea:	2800      	cmp	r0, #0
     4ec:	d01d      	beq.n	52a <_flash_init+0x46>
     4ee:	4b10      	ldr	r3, [pc, #64]	; (530 <_flash_init+0x4c>)
     4f0:	18c8      	adds	r0, r1, r3
     4f2:	4243      	negs	r3, r0
     4f4:	4158      	adcs	r0, r3
     4f6:	b2c0      	uxtb	r0, r0
     4f8:	2246      	movs	r2, #70	; 0x46
     4fa:	490e      	ldr	r1, [pc, #56]	; (534 <_flash_init+0x50>)
     4fc:	4b0e      	ldr	r3, [pc, #56]	; (538 <_flash_init+0x54>)
     4fe:	4798      	blx	r3
	device->hw = hw;
     500:	612c      	str	r4, [r5, #16]
	tmp = ((Nvmctrl *)hw)->CTRLB.reg;
     502:	6862      	ldr	r2, [r4, #4]
	tmp &= mask;
     504:	239e      	movs	r3, #158	; 0x9e
     506:	4013      	ands	r3, r2
	((Nvmctrl *)hw)->CTRLB.reg = data;
     508:	6063      	str	r3, [r4, #4]
	_nvm_dev = device;
     50a:	4b0c      	ldr	r3, [pc, #48]	; (53c <_flash_init+0x58>)
     50c:	601d      	str	r5, [r3, #0]
 */
__STATIC_INLINE void __NVIC_DisableIRQ(IRQn_Type IRQn)
{
  if ((int32_t)(IRQn) >= 0)
  {
    NVIC->ICER[0U] = (uint32_t)(1UL << (((uint32_t)IRQn) & 0x1FUL));
     50e:	4b0c      	ldr	r3, [pc, #48]	; (540 <_flash_init+0x5c>)
     510:	2210      	movs	r2, #16
     512:	2180      	movs	r1, #128	; 0x80
     514:	505a      	str	r2, [r3, r1]
  \details Acts as a special kind of Data Memory Barrier.
           It completes when all explicit memory accesses before this instruction complete.
 */
__STATIC_FORCEINLINE void __DSB(void)
{
  __ASM volatile ("dsb 0xF":::"memory");
     516:	f3bf 8f4f 	dsb	sy
  __ASM volatile ("isb 0xF":::"memory");
     51a:	f3bf 8f6f 	isb	sy
 */
__STATIC_INLINE void __NVIC_ClearPendingIRQ(IRQn_Type IRQn)
{
  if ((int32_t)(IRQn) >= 0)
  {
    NVIC->ICPR[0U] = (uint32_t)(1UL << (((uint32_t)IRQn) & 0x1FUL));
     51e:	3101      	adds	r1, #1
     520:	31ff      	adds	r1, #255	; 0xff
     522:	505a      	str	r2, [r3, r1]
    NVIC->ISER[0U] = (uint32_t)(1UL << (((uint32_t)IRQn) & 0x1FUL));
     524:	601a      	str	r2, [r3, #0]
}
     526:	2000      	movs	r0, #0
     528:	bd70      	pop	{r4, r5, r6, pc}
     52a:	2000      	movs	r0, #0
     52c:	e7e4      	b.n	4f8 <_flash_init+0x14>
     52e:	46c0      	nop			; (mov r8, r8)
     530:	beffc000 	.word	0xbeffc000
     534:	00001e3c 	.word	0x00001e3c
     538:	000003a5 	.word	0x000003a5
     53c:	200000a8 	.word	0x200000a8
     540:	e000e100 	.word	0xe000e100

00000544 <_flash_read>:
{
     544:	b570      	push	{r4, r5, r6, lr}
	uint32_t nvm_address = src_addr / 2;
     546:	084c      	lsrs	r4, r1, #1
	while (!hri_nvmctrl_get_interrupt_READY_bit(device->hw)) {
     548:	6905      	ldr	r5, [r0, #16]
     54a:	2601      	movs	r6, #1
	return (((Nvmctrl *)hw)->INTFLAG.reg & NVMCTRL_INTFLAG_READY) >> NVMCTRL_INTFLAG_READY_Pos;
     54c:	7d28      	ldrb	r0, [r5, #20]
     54e:	4230      	tst	r0, r6
     550:	d0fc      	beq.n	54c <_flash_read+0x8>
	((Nvmctrl *)hw)->STATUS.reg = mask;
     552:	2020      	movs	r0, #32
     554:	30ff      	adds	r0, #255	; 0xff
     556:	8328      	strh	r0, [r5, #24]
		i = 0;
     558:	2000      	movs	r0, #0
	if (src_addr % 2) {
     55a:	07cd      	lsls	r5, r1, #31
     55c:	d505      	bpl.n	56a <_flash_read+0x26>
		data      = NVM_MEMORY[nvm_address++];
     55e:	3401      	adds	r4, #1
     560:	3001      	adds	r0, #1
     562:	4381      	bics	r1, r0
     564:	8809      	ldrh	r1, [r1, #0]
		buffer[0] = data >> 8;
     566:	0a09      	lsrs	r1, r1, #8
     568:	7011      	strb	r1, [r2, #0]
	while (i < length) {
     56a:	4298      	cmp	r0, r3
     56c:	d211      	bcs.n	592 <_flash_read+0x4e>
     56e:	1812      	adds	r2, r2, r0
     570:	0064      	lsls	r4, r4, #1
     572:	1a24      	subs	r4, r4, r0
		if (i < (length - 1)) {
     574:	1e5d      	subs	r5, r3, #1
     576:	e003      	b.n	580 <_flash_read+0x3c>
		i += 2;
     578:	3002      	adds	r0, #2
     57a:	3202      	adds	r2, #2
	while (i < length) {
     57c:	4283      	cmp	r3, r0
     57e:	d908      	bls.n	592 <_flash_read+0x4e>
     580:	1821      	adds	r1, r4, r0
		data      = NVM_MEMORY[nvm_address++];
     582:	8809      	ldrh	r1, [r1, #0]
     584:	b289      	uxth	r1, r1
		buffer[i] = (data & 0xFF);
     586:	7011      	strb	r1, [r2, #0]
		if (i < (length - 1)) {
     588:	4285      	cmp	r5, r0
     58a:	d9f5      	bls.n	578 <_flash_read+0x34>
			buffer[i + 1] = (data >> 8);
     58c:	0a09      	lsrs	r1, r1, #8
     58e:	7051      	strb	r1, [r2, #1]
     590:	e7f2      	b.n	578 <_flash_read+0x34>
}
     592:	bd70      	pop	{r4, r5, r6, pc}

00000594 <NVMCTRL_Handler>:

/**
 * \internal NVM interrupt handler
 */
void NVMCTRL_Handler(void)
{
     594:	b510      	push	{r4, lr}
	void *const hw = _nvm_dev->hw;
     596:	4b0a      	ldr	r3, [pc, #40]	; (5c0 <NVMCTRL_Handler+0x2c>)
     598:	6818      	ldr	r0, [r3, #0]
     59a:	6903      	ldr	r3, [r0, #16]
	return (((Nvmctrl *)hw)->INTFLAG.reg & NVMCTRL_INTFLAG_READY) >> NVMCTRL_INTFLAG_READY_Pos;
     59c:	7d1a      	ldrb	r2, [r3, #20]

	if (hri_nvmctrl_get_interrupt_READY_bit(hw)) {
     59e:	07d2      	lsls	r2, r2, #31
     5a0:	d504      	bpl.n	5ac <NVMCTRL_Handler+0x18>
		if (NULL != _nvm_dev->flash_cb.ready_cb) {
     5a2:	6803      	ldr	r3, [r0, #0]
     5a4:	2b00      	cmp	r3, #0
     5a6:	d000      	beq.n	5aa <NVMCTRL_Handler+0x16>
			_nvm_dev->flash_cb.ready_cb(_nvm_dev);
     5a8:	4798      	blx	r3
		hri_nvmctrl_clear_interrupt_ERROR_bit(hw);
		if (NULL != _nvm_dev->flash_cb.error_cb) {
			_nvm_dev->flash_cb.error_cb(_nvm_dev);
		}
	}
}
     5aa:	bd10      	pop	{r4, pc}
	return (((Nvmctrl *)hw)->INTFLAG.reg & NVMCTRL_INTFLAG_ERROR) >> NVMCTRL_INTFLAG_ERROR_Pos;
     5ac:	7d1a      	ldrb	r2, [r3, #20]
	} else if (hri_nvmctrl_get_interrupt_ERROR_bit(hw)) {
     5ae:	0792      	lsls	r2, r2, #30
     5b0:	d5fb      	bpl.n	5aa <NVMCTRL_Handler+0x16>
	((Nvmctrl *)hw)->INTFLAG.reg = NVMCTRL_INTFLAG_ERROR;
     5b2:	2202      	movs	r2, #2
     5b4:	751a      	strb	r2, [r3, #20]
		if (NULL != _nvm_dev->flash_cb.error_cb) {
     5b6:	6843      	ldr	r3, [r0, #4]
     5b8:	2b00      	cmp	r3, #0
     5ba:	d0f6      	beq.n	5aa <NVMCTRL_Handler+0x16>
			_nvm_dev->flash_cb.error_cb(_nvm_dev);
     5bc:	4798      	blx	r3
}
     5be:	e7f4      	b.n	5aa <NVMCTRL_Handler+0x16>
     5c0:	200000a8 	.word	0x200000a8

000005c4 <_rww_flash_read>:

/**
 * \brief Reads a number of bytes in the internal RWWEE Flash.
 */
int32_t _rww_flash_read(struct _flash_device *const device, const uint32_t src_addr, uint8_t *buffer, uint32_t length)
{
     5c4:	b570      	push	{r4, r5, r6, lr}
	    || (addr > (NVMCTRL_RWW_EEPROM_ADDR + NVMCTRL_PAGE_SIZE * NVMCTRL_RWWEE_PAGES))) {
     5c6:	4c0b      	ldr	r4, [pc, #44]	; (5f4 <_rww_flash_read+0x30>)
     5c8:	190d      	adds	r5, r1, r4
	/* Check if the address is valid */
	if (!_is_valid_rww_flash_address(src_addr) || !_is_valid_rww_flash_address(src_addr + length)) {
     5ca:	2480      	movs	r4, #128	; 0x80
     5cc:	01a4      	lsls	r4, r4, #6
     5ce:	42a5      	cmp	r5, r4
     5d0:	d80a      	bhi.n	5e8 <_rww_flash_read+0x24>
	    || (addr > (NVMCTRL_RWW_EEPROM_ADDR + NVMCTRL_PAGE_SIZE * NVMCTRL_RWWEE_PAGES))) {
     5d2:	4c08      	ldr	r4, [pc, #32]	; (5f4 <_rww_flash_read+0x30>)
     5d4:	191c      	adds	r4, r3, r4
     5d6:	1864      	adds	r4, r4, r1
	if (!_is_valid_rww_flash_address(src_addr) || !_is_valid_rww_flash_address(src_addr + length)) {
     5d8:	2580      	movs	r5, #128	; 0x80
     5da:	01ad      	lsls	r5, r5, #6
     5dc:	42ac      	cmp	r4, r5
     5de:	d806      	bhi.n	5ee <_rww_flash_read+0x2a>
		return ERR_BAD_ADDRESS;
	}

	_flash_read(device, src_addr, buffer, length);
     5e0:	4c05      	ldr	r4, [pc, #20]	; (5f8 <_rww_flash_read+0x34>)
     5e2:	47a0      	blx	r4

	return ERR_NONE;
     5e4:	2000      	movs	r0, #0
}
     5e6:	bd70      	pop	{r4, r5, r6, pc}
		return ERR_BAD_ADDRESS;
     5e8:	200e      	movs	r0, #14
     5ea:	4240      	negs	r0, r0
     5ec:	e7fb      	b.n	5e6 <_rww_flash_read+0x22>
     5ee:	200e      	movs	r0, #14
     5f0:	4240      	negs	r0, r0
     5f2:	e7f8      	b.n	5e6 <_rww_flash_read+0x22>
     5f4:	ffc00000 	.word	0xffc00000
     5f8:	00000545 	.word	0x00000545

000005fc <_rww_flash_write>:

/**
 * \brief Writes a number of bytes in the internal RWWEE Flash.
 */
int32_t _rww_flash_write(struct _flash_device *const device, const uint32_t dst_addr, uint8_t *buffer, uint32_t length)
{
     5fc:	b5f0      	push	{r4, r5, r6, r7, lr}
     5fe:	46de      	mov	lr, fp
     600:	4657      	mov	r7, sl
     602:	464e      	mov	r6, r9
     604:	4645      	mov	r5, r8
     606:	b5e0      	push	{r5, r6, r7, lr}
     608:	b0c5      	sub	sp, #276	; 0x114
     60a:	4683      	mov	fp, r0
     60c:	0016      	movs	r6, r2
     60e:	001d      	movs	r5, r3
	    || (addr > (NVMCTRL_RWW_EEPROM_ADDR + NVMCTRL_PAGE_SIZE * NVMCTRL_RWWEE_PAGES))) {
     610:	4b49      	ldr	r3, [pc, #292]	; (738 <_rww_flash_write+0x13c>)
     612:	18ca      	adds	r2, r1, r3
	uint32_t row_start_addr, row_end_addr;
	uint32_t i, j, k;
	uint32_t wr_start_addr = dst_addr;

	/* Check if the address is valid */
	if (!_is_valid_rww_flash_address(dst_addr) || !_is_valid_rww_flash_address(dst_addr + length)) {
     614:	2380      	movs	r3, #128	; 0x80
     616:	019b      	lsls	r3, r3, #6
     618:	429a      	cmp	r2, r3
     61a:	d900      	bls.n	61e <_rww_flash_write+0x22>
     61c:	e086      	b.n	72c <_rww_flash_write+0x130>
	    || (addr > (NVMCTRL_RWW_EEPROM_ADDR + NVMCTRL_PAGE_SIZE * NVMCTRL_RWWEE_PAGES))) {
     61e:	4b46      	ldr	r3, [pc, #280]	; (738 <_rww_flash_write+0x13c>)
     620:	18eb      	adds	r3, r5, r3
     622:	185b      	adds	r3, r3, r1
	if (!_is_valid_rww_flash_address(dst_addr) || !_is_valid_rww_flash_address(dst_addr + length)) {
     624:	2280      	movs	r2, #128	; 0x80
     626:	0192      	lsls	r2, r2, #6
     628:	4293      	cmp	r3, r2
     62a:	d900      	bls.n	62e <_rww_flash_write+0x32>
     62c:	e081      	b.n	732 <_rww_flash_write+0x136>
     62e:	000c      	movs	r4, r1
     630:	e02f      	b.n	692 <_rww_flash_write+0x96>
     632:	46ba      	mov	sl, r7
     634:	4667      	mov	r7, ip
			buffer++;
			length--;
		}

		/* erase row before write */
		_flash_erase_row(device->hw, row_start_addr, NVMCTRL_CTRLA_CMD_RWWEEER);
     636:	465b      	mov	r3, fp
     638:	691a      	ldr	r2, [r3, #16]
	while (!hri_nvmctrl_get_interrupt_READY_bit(hw)) {
     63a:	2101      	movs	r1, #1
	return (((Nvmctrl *)hw)->INTFLAG.reg & NVMCTRL_INTFLAG_READY) >> NVMCTRL_INTFLAG_READY_Pos;
     63c:	7d13      	ldrb	r3, [r2, #20]
     63e:	420b      	tst	r3, r1
     640:	d0fc      	beq.n	63c <_rww_flash_write+0x40>
	((Nvmctrl *)hw)->STATUS.reg = mask;
     642:	2320      	movs	r3, #32
     644:	33ff      	adds	r3, #255	; 0xff
     646:	8313      	strh	r3, [r2, #24]
	hri_nvmctrl_write_ADDR_reg(hw, dst_addr / 2);
     648:	464b      	mov	r3, r9
     64a:	085b      	lsrs	r3, r3, #1
	((Nvmctrl *)hw)->ADDR.reg = data;
     64c:	61d3      	str	r3, [r2, #28]
	((Nvmctrl *)hw)->CTRLA.reg = data;
     64e:	4b3b      	ldr	r3, [pc, #236]	; (73c <_rww_flash_write+0x140>)
     650:	8013      	strh	r3, [r2, #0]

		/* write buffer to flash */
		for (i = 0; i < NVMCTRL_ROW_PAGES; i++) {
			_flash_program(device->hw,
     652:	464b      	mov	r3, r9
     654:	46a0      	mov	r8, r4
     656:	9703      	str	r7, [sp, #12]
     658:	002a      	movs	r2, r5
     65a:	464d      	mov	r5, r9
     65c:	46b1      	mov	r9, r6
     65e:	465e      	mov	r6, fp
     660:	4693      	mov	fp, r2
     662:	001f      	movs	r7, r3
     664:	1b7a      	subs	r2, r7, r5
     666:	ab04      	add	r3, sp, #16
     668:	469c      	mov	ip, r3
     66a:	4462      	add	r2, ip
     66c:	231c      	movs	r3, #28
     66e:	9300      	str	r3, [sp, #0]
     670:	3324      	adds	r3, #36	; 0x24
     672:	0039      	movs	r1, r7
     674:	6930      	ldr	r0, [r6, #16]
     676:	4c32      	ldr	r4, [pc, #200]	; (740 <_rww_flash_write+0x144>)
     678:	47a0      	blx	r4
     67a:	3740      	adds	r7, #64	; 0x40
		for (i = 0; i < NVMCTRL_ROW_PAGES; i++) {
     67c:	9b03      	ldr	r3, [sp, #12]
     67e:	42bb      	cmp	r3, r7
     680:	d1f0      	bne.n	664 <_rww_flash_write+0x68>
     682:	4644      	mov	r4, r8
     684:	465d      	mov	r5, fp
     686:	46b3      	mov	fp, r6
     688:	464e      	mov	r6, r9
			               tmp_buffer[i],
			               NVMCTRL_PAGE_SIZE,
			               NVMCTRL_CTRLA_CMD_RWWEEWP);
		}

	} while (row_end_addr < (wr_start_addr + length - 1));
     68a:	192b      	adds	r3, r5, r4
     68c:	3b01      	subs	r3, #1
     68e:	459a      	cmp	sl, r3
     690:	d244      	bcs.n	71c <_rww_flash_write+0x120>
		row_start_addr = wr_start_addr & ~((NVMCTRL_PAGE_SIZE * NVMCTRL_ROW_PAGES) - 1);
     692:	23ff      	movs	r3, #255	; 0xff
     694:	0022      	movs	r2, r4
     696:	439a      	bics	r2, r3
     698:	4691      	mov	r9, r2
		row_end_addr   = row_start_addr + NVMCTRL_ROW_PAGES * NVMCTRL_PAGE_SIZE - 1;
     69a:	444b      	add	r3, r9
     69c:	469a      	mov	sl, r3
     69e:	2380      	movs	r3, #128	; 0x80
     6a0:	005b      	lsls	r3, r3, #1
     6a2:	444b      	add	r3, r9
     6a4:	4698      	mov	r8, r3
     6a6:	0017      	movs	r7, r2
     6a8:	4642      	mov	r2, r8
     6aa:	9203      	str	r2, [sp, #12]
     6ac:	46a0      	mov	r8, r4
     6ae:	464c      	mov	r4, r9
     6b0:	46b1      	mov	r9, r6
     6b2:	465e      	mov	r6, fp
     6b4:	46ab      	mov	fp, r5
			_rww_flash_read(device, row_start_addr + i * NVMCTRL_PAGE_SIZE, tmp_buffer[i], NVMCTRL_PAGE_SIZE);
     6b6:	1b3a      	subs	r2, r7, r4
     6b8:	ab04      	add	r3, sp, #16
     6ba:	469c      	mov	ip, r3
     6bc:	4462      	add	r2, ip
     6be:	2340      	movs	r3, #64	; 0x40
     6c0:	0039      	movs	r1, r7
     6c2:	0030      	movs	r0, r6
     6c4:	4d1f      	ldr	r5, [pc, #124]	; (744 <_rww_flash_write+0x148>)
     6c6:	47a8      	blx	r5
     6c8:	3740      	adds	r7, #64	; 0x40
		for (i = 0; i < NVMCTRL_ROW_PAGES; i++) {
     6ca:	9b03      	ldr	r3, [sp, #12]
     6cc:	429f      	cmp	r7, r3
     6ce:	d1f2      	bne.n	6b6 <_rww_flash_write+0xba>
     6d0:	465d      	mov	r5, fp
     6d2:	46b3      	mov	fp, r6
     6d4:	464e      	mov	r6, r9
     6d6:	46a1      	mov	r9, r4
     6d8:	4644      	mov	r4, r8
		j = (wr_start_addr - row_start_addr) / NVMCTRL_PAGE_SIZE;
     6da:	464b      	mov	r3, r9
     6dc:	1ae3      	subs	r3, r4, r3
     6de:	0999      	lsrs	r1, r3, #6
     6e0:	223f      	movs	r2, #63	; 0x3f
     6e2:	4013      	ands	r3, r2
		while ((wr_start_addr <= row_end_addr) && (length > 0)) {
     6e4:	4554      	cmp	r4, sl
     6e6:	d8a6      	bhi.n	636 <_rww_flash_write+0x3a>
     6e8:	2d00      	cmp	r5, #0
     6ea:	d0a4      	beq.n	636 <_rww_flash_write+0x3a>
			k                = (k + 1) % NVMCTRL_PAGE_SIZE;
     6ec:	46bc      	mov	ip, r7
     6ee:	4657      	mov	r7, sl
			tmp_buffer[j][k] = *buffer;
     6f0:	018a      	lsls	r2, r1, #6
     6f2:	a804      	add	r0, sp, #16
     6f4:	4680      	mov	r8, r0
     6f6:	4442      	add	r2, r8
     6f8:	7830      	ldrb	r0, [r6, #0]
     6fa:	54d0      	strb	r0, [r2, r3]
			k                = (k + 1) % NVMCTRL_PAGE_SIZE;
     6fc:	3301      	adds	r3, #1
     6fe:	223f      	movs	r2, #63	; 0x3f
     700:	4013      	ands	r3, r2
				j++;
     702:	425a      	negs	r2, r3
     704:	415a      	adcs	r2, r3
     706:	1889      	adds	r1, r1, r2
			wr_start_addr++;
     708:	3401      	adds	r4, #1
			buffer++;
     70a:	3601      	adds	r6, #1
			length--;
     70c:	3d01      	subs	r5, #1
		while ((wr_start_addr <= row_end_addr) && (length > 0)) {
     70e:	42a7      	cmp	r7, r4
     710:	d38f      	bcc.n	632 <_rww_flash_write+0x36>
     712:	2d00      	cmp	r5, #0
     714:	d1ec      	bne.n	6f0 <_rww_flash_write+0xf4>
     716:	46ba      	mov	sl, r7
     718:	4667      	mov	r7, ip
     71a:	e78c      	b.n	636 <_rww_flash_write+0x3a>

	return ERR_NONE;
     71c:	2000      	movs	r0, #0
}
     71e:	b045      	add	sp, #276	; 0x114
     720:	bc3c      	pop	{r2, r3, r4, r5}
     722:	4690      	mov	r8, r2
     724:	4699      	mov	r9, r3
     726:	46a2      	mov	sl, r4
     728:	46ab      	mov	fp, r5
     72a:	bdf0      	pop	{r4, r5, r6, r7, pc}
		return ERR_BAD_ADDRESS;
     72c:	200e      	movs	r0, #14
     72e:	4240      	negs	r0, r0
     730:	e7f5      	b.n	71e <_rww_flash_write+0x122>
     732:	200e      	movs	r0, #14
     734:	4240      	negs	r0, r0
     736:	e7f2      	b.n	71e <_rww_flash_write+0x122>
     738:	ffc00000 	.word	0xffc00000
     73c:	ffffa51a 	.word	0xffffa51a
     740:	00000459 	.word	0x00000459
     744:	000005c5 	.word	0x000005c5

00000748 <_osc32kctrl_init_sources>:
}

static inline hri_osc32kctrl_osculp32k_reg_t hri_osc32kctrl_read_OSCULP32K_CALIB_bf(const void *const hw)
{
	uint32_t tmp;
	tmp = ((Osc32kctrl *)hw)->OSCULP32K.reg;
     748:	4b04      	ldr	r3, [pc, #16]	; (75c <_osc32kctrl_init_sources+0x14>)
     74a:	69da      	ldr	r2, [r3, #28]
	calib = hri_osc32kctrl_read_OSCULP32K_CALIB_bf(hw);
	hri_osc32kctrl_write_OSCULP32K_reg(hw,
#if CONF_OSC32K_CALIB_ENABLE == 1
	                                   OSC32KCTRL_OSCULP32K_CALIB(CONF_OSC32K_CALIB)
#else
	                                   OSC32KCTRL_OSCULP32K_CALIB(calib)
     74c:	21f8      	movs	r1, #248	; 0xf8
     74e:	0149      	lsls	r1, r1, #5
     750:	400a      	ands	r2, r1
}

static inline void hri_osc32kctrl_write_OSCULP32K_reg(const void *const hw, hri_osc32kctrl_osculp32k_reg_t data)
{
	OSC32KCTRL_CRITICAL_SECTION_ENTER();
	((Osc32kctrl *)hw)->OSCULP32K.reg = data;
     752:	61da      	str	r2, [r3, #28]
	((Osc32kctrl *)hw)->RTCCTRL.reg = data;
     754:	2201      	movs	r2, #1
     756:	611a      	str	r2, [r3, #16]
		;
#endif
#endif
	hri_osc32kctrl_write_RTCCTRL_reg(hw, OSC32KCTRL_RTCCTRL_RTCSEL(CONF_RTCCTRL));
	(void)calib;
}
     758:	4770      	bx	lr
     75a:	46c0      	nop			; (mov r8, r8)
     75c:	40001000 	.word	0x40001000

00000760 <_oscctrl_init_sources>:
}

static inline void hri_oscctrl_write_OSC16MCTRL_reg(const void *const hw, hri_oscctrl_osc16mctrl_reg_t data)
{
	OSCCTRL_CRITICAL_SECTION_ENTER();
	((Oscctrl *)hw)->OSC16MCTRL.reg = data;
     760:	228a      	movs	r2, #138	; 0x8a
     762:	4b0c      	ldr	r3, [pc, #48]	; (794 <_oscctrl_init_sources+0x34>)
     764:	751a      	strb	r2, [r3, #20]
	while (((Oscctrl *)hw)->DPLLSYNCBUSY.reg & reg) {
     766:	0018      	movs	r0, r3
     768:	2138      	movs	r1, #56	; 0x38
     76a:	3a88      	subs	r2, #136	; 0x88
     76c:	5c43      	ldrb	r3, [r0, r1]
     76e:	4213      	tst	r3, r2
     770:	d1fc      	bne.n	76c <_oscctrl_init_sources+0xc>
	return (((Oscctrl *)hw)->STATUS.reg & OSCCTRL_STATUS_OSC16MRDY) >> OSCCTRL_STATUS_OSC16MRDY_Pos;
     772:	4908      	ldr	r1, [pc, #32]	; (794 <_oscctrl_init_sources+0x34>)
#endif
#endif

#if CONF_OSC16M_CONFIG == 1
#if CONF_OSC16M_ENABLE == 1
	while (!hri_oscctrl_get_STATUS_OSC16MRDY_bit(hw))
     774:	2210      	movs	r2, #16
     776:	68cb      	ldr	r3, [r1, #12]
     778:	421a      	tst	r2, r3
     77a:	d0fc      	beq.n	776 <_oscctrl_init_sources+0x16>
	((Oscctrl *)hw)->OSC16MCTRL.reg |= OSCCTRL_OSC16MCTRL_ONDEMAND;
     77c:	4a05      	ldr	r2, [pc, #20]	; (794 <_oscctrl_init_sources+0x34>)
     77e:	7d13      	ldrb	r3, [r2, #20]
     780:	2180      	movs	r1, #128	; 0x80
     782:	430b      	orrs	r3, r1
     784:	7513      	strb	r3, [r2, #20]
	while (((Oscctrl *)hw)->DPLLSYNCBUSY.reg & reg) {
     786:	0010      	movs	r0, r2
     788:	3948      	subs	r1, #72	; 0x48
     78a:	220e      	movs	r2, #14
     78c:	5c43      	ldrb	r3, [r0, r1]
     78e:	4213      	tst	r3, r2
     790:	d1fc      	bne.n	78c <_oscctrl_init_sources+0x2c>
#if CONF_OSC16M_ONDEMAND == 1
	hri_oscctrl_set_OSC16MCTRL_ONDEMAND_bit(hw);
#endif
#endif
	(void)hw;
}
     792:	4770      	bx	lr
     794:	40000c00 	.word	0x40000c00

00000798 <_oscctrl_init_referenced_generators>:
#if CONF_DFLL_CONFIG == 1
	while (hri_gclk_read_SYNCBUSY_reg(GCLK))
		;
#endif
	(void)hw, (void)tmp;
}
     798:	4770      	bx	lr

0000079a <_set_performance_level>:
}

static inline hri_pm_plcfg_reg_t hri_pm_get_PLCFG_PLSEL_bf(const void *const hw, hri_pm_plcfg_reg_t mask)
{
	uint8_t tmp;
	tmp = ((Pm *)hw)->PLCFG.reg;
     79a:	2380      	movs	r3, #128	; 0x80
     79c:	05db      	lsls	r3, r3, #23
     79e:	789b      	ldrb	r3, [r3, #2]
/**
 * \brief Set performance level
 */
void _set_performance_level(const uint8_t level)
{
	if (hri_pm_get_PLCFG_PLSEL_bf(PM, PM_PLCFG_PLSEL_Msk) != level) {
     7a0:	2203      	movs	r2, #3
     7a2:	4013      	ands	r3, r2
     7a4:	4298      	cmp	r0, r3
     7a6:	d00c      	beq.n	7c2 <_set_performance_level+0x28>
	((Pm *)hw)->INTFLAG.reg = mask;
     7a8:	2280      	movs	r2, #128	; 0x80
     7aa:	05d2      	lsls	r2, r2, #23
     7ac:	23ff      	movs	r3, #255	; 0xff
     7ae:	7193      	strb	r3, [r2, #6]

static inline void hri_pm_write_PLCFG_PLSEL_bf(const void *const hw, hri_pm_plcfg_reg_t data)
{
	uint8_t tmp;
	PM_CRITICAL_SECTION_ENTER();
	tmp = ((Pm *)hw)->PLCFG.reg;
     7b0:	7893      	ldrb	r3, [r2, #2]
	tmp &= ~PM_PLCFG_PLSEL_Msk;
     7b2:	2103      	movs	r1, #3
     7b4:	438b      	bics	r3, r1
	tmp |= PM_PLCFG_PLSEL(data);
     7b6:	4008      	ands	r0, r1
     7b8:	4318      	orrs	r0, r3
	((Pm *)hw)->PLCFG.reg = tmp;
     7ba:	7090      	strb	r0, [r2, #2]
	return ((Pm *)hw)->INTFLAG.reg;
     7bc:	7993      	ldrb	r3, [r2, #6]
		hri_pm_clear_INTFLAG_reg(PM, 0xFF);
		hri_pm_write_PLCFG_PLSEL_bf(PM, level);
		while (!hri_pm_read_INTFLAG_reg(PM))
     7be:	2b00      	cmp	r3, #0
     7c0:	d0fc      	beq.n	7bc <_set_performance_level+0x22>
			;
	}
}
     7c2:	4770      	bx	lr

000007c4 <_delay_init>:
 * \brief Initialize system time module
 */
void _system_time_init(void *const hw)
{
	(void)hw;
	SysTick->LOAD = (0xFFFFFF << SysTick_LOAD_RELOAD_Pos);
     7c4:	4b02      	ldr	r3, [pc, #8]	; (7d0 <_delay_init+0xc>)
     7c6:	4a03      	ldr	r2, [pc, #12]	; (7d4 <_delay_init+0x10>)
     7c8:	605a      	str	r2, [r3, #4]
	SysTick->CTRL = (1 << SysTick_CTRL_ENABLE_Pos) | (CONF_SYSTICK_TICKINT << SysTick_CTRL_TICKINT_Pos)
     7ca:	2205      	movs	r2, #5
     7cc:	601a      	str	r2, [r3, #0]
 * \brief Initialize delay functionality
 */
void _delay_init(void *const hw)
{
	_system_time_init(hw);
}
     7ce:	4770      	bx	lr
     7d0:	e000e010 	.word	0xe000e010
     7d4:	00ffffff 	.word	0x00ffffff

000007d8 <_delay_cycles>:
}
/**
 * \brief Delay loop to delay n number of cycles
 */
void _delay_cycles(void *const hw, uint32_t cycles)
{
     7d8:	b570      	push	{r4, r5, r6, lr}
	(void)hw;
	uint8_t  n   = cycles >> 24;
     7da:	0e0b      	lsrs	r3, r1, #24
	uint32_t buf = cycles;

	while (n--) {
     7dc:	1e5e      	subs	r6, r3, #1
     7de:	b2f6      	uxtb	r6, r6
     7e0:	2b00      	cmp	r3, #0
     7e2:	d013      	beq.n	80c <_delay_cycles+0x34>
     7e4:	0034      	movs	r4, r6
		SysTick->LOAD = 0xFFFFFF;
     7e6:	4a0e      	ldr	r2, [pc, #56]	; (820 <_delay_cycles+0x48>)
     7e8:	4d0e      	ldr	r5, [pc, #56]	; (824 <_delay_cycles+0x4c>)
		SysTick->VAL  = 0xFFFFFF;
		while (!(SysTick->CTRL & SysTick_CTRL_COUNTFLAG_Msk))
     7ea:	2080      	movs	r0, #128	; 0x80
     7ec:	0240      	lsls	r0, r0, #9
		SysTick->LOAD = 0xFFFFFF;
     7ee:	6055      	str	r5, [r2, #4]
		SysTick->VAL  = 0xFFFFFF;
     7f0:	6095      	str	r5, [r2, #8]
		while (!(SysTick->CTRL & SysTick_CTRL_COUNTFLAG_Msk))
     7f2:	6813      	ldr	r3, [r2, #0]
     7f4:	4203      	tst	r3, r0
     7f6:	d0fc      	beq.n	7f2 <_delay_cycles+0x1a>
	while (n--) {
     7f8:	3c01      	subs	r4, #1
     7fa:	b2e4      	uxtb	r4, r4
     7fc:	2cff      	cmp	r4, #255	; 0xff
     7fe:	d1f6      	bne.n	7ee <_delay_cycles+0x16>
     800:	0633      	lsls	r3, r6, #24
     802:	1af6      	subs	r6, r6, r3
     804:	4b08      	ldr	r3, [pc, #32]	; (828 <_delay_cycles+0x50>)
     806:	469c      	mov	ip, r3
     808:	4461      	add	r1, ip
     80a:	1871      	adds	r1, r6, r1
			;
		buf -= 0xFFFFFF;
	}

	SysTick->LOAD = buf;
     80c:	4b04      	ldr	r3, [pc, #16]	; (820 <_delay_cycles+0x48>)
     80e:	6059      	str	r1, [r3, #4]
	SysTick->VAL  = buf;
     810:	6099      	str	r1, [r3, #8]
	while (!(SysTick->CTRL & SysTick_CTRL_COUNTFLAG_Msk))
     812:	0019      	movs	r1, r3
     814:	2280      	movs	r2, #128	; 0x80
     816:	0252      	lsls	r2, r2, #9
     818:	680b      	ldr	r3, [r1, #0]
     81a:	4213      	tst	r3, r2
     81c:	d0fc      	beq.n	818 <_delay_cycles+0x40>
		;
}
     81e:	bd70      	pop	{r4, r5, r6, pc}
     820:	e000e010 	.word	0xe000e010
     824:	00ffffff 	.word	0x00ffffff
     828:	ff000001 	.word	0xff000001

0000082c <aes_measurement>:
static uint8_t iv[16] = { 0x00, 0x01, 0x02, 0x03, 0x04, 0x05, 0x06, 0x07, 0x08, 0x09, 0x0a, 0x0b, 0x0c, 0x0d, 0x0e, 0x0f };
static uint8_t iv2[16] = { 0x00, 0x01, 0x02, 0x03, 0x04, 0x05, 0x06, 0x07, 0x08, 0x09, 0x0a, 0x0b, 0x0c, 0x0d, 0x0e, 0x0f }; /*(This is same but needed for decryption. Note: AES Module was not doing decryption without iv2  )*/


void aes_measurement(void)
{
     82c:	b5f0      	push	{r4, r5, r6, r7, lr}
     82e:	46de      	mov	lr, fp
     830:	4657      	mov	r7, sl
     832:	464e      	mov	r6, r9
     834:	4645      	mov	r5, r8
     836:	b5e0      	push	{r5, r6, r7, lr}
     838:	4c8c      	ldr	r4, [pc, #560]	; (a6c <aes_measurement+0x240>)
     83a:	44a5      	add	sp, r4
	Aes enc;
	Aes dec;
	
	
	// Allocate buffer memory
	uint8_t *input = malloc(sizeof(uint8_t) * MAX_NUM_BYTES);
     83c:	488c      	ldr	r0, [pc, #560]	; (a70 <aes_measurement+0x244>)
     83e:	4b8d      	ldr	r3, [pc, #564]	; (a74 <aes_measurement+0x248>)
     840:	4798      	blx	r3
     842:	0004      	movs	r4, r0
	
	// Allocate buffer memory
	uint8_t *output = malloc(sizeof(uint8_t) * MAX_NUM_BYTES);
	//uint8_t output[MAX_NUM_BYTES];

    delay_ms(10);
     844:	200a      	movs	r0, #10
     846:	4b8c      	ldr	r3, [pc, #560]	; (a78 <aes_measurement+0x24c>)
     848:	4798      	blx	r3
     84a:	2720      	movs	r7, #32
     84c:	2510      	movs	r5, #16
		/* Read data from flash (Solution 2) */
		//flash_read(&FLASH_0, target_addr, output, num_bytes);
		STOP_MEASURE(DGI_GPIO3);
		
	
		wc_AesSetKey(&dec, key, sizeof(key), iv2, AES_DECRYPTION);
     84e:	4b8b      	ldr	r3, [pc, #556]	; (a7c <aes_measurement+0x250>)
     850:	3310      	adds	r3, #16
     852:	9302      	str	r3, [sp, #8]
     854:	4b89      	ldr	r3, [pc, #548]	; (a7c <aes_measurement+0x250>)
     856:	3310      	adds	r3, #16
     858:	9303      	str	r3, [sp, #12]
     85a:	46b8      	mov	r8, r7
     85c:	e090      	b.n	980 <aes_measurement+0x154>
		wc_AesSetKey(&enc, key, sizeof(key), iv, AES_ENCRYPTION);
     85e:	2300      	movs	r3, #0
     860:	9300      	str	r3, [sp, #0]
     862:	4b86      	ldr	r3, [pc, #536]	; (a7c <aes_measurement+0x250>)
     864:	2220      	movs	r2, #32
     866:	4986      	ldr	r1, [pc, #536]	; (a80 <aes_measurement+0x254>)
     868:	a84b      	add	r0, sp, #300	; 0x12c
     86a:	4e86      	ldr	r6, [pc, #536]	; (a84 <aes_measurement+0x258>)
     86c:	47b0      	blx	r6
		START_MEASURE(DGI_GPIO2);
     86e:	2002      	movs	r0, #2
     870:	4f81      	ldr	r7, [pc, #516]	; (a78 <aes_measurement+0x24c>)
     872:	47b8      	blx	r7
	((Port *)hw)->Group[submodule_index].OUTSET.reg = mask;
     874:	23c0      	movs	r3, #192	; 0xc0
     876:	05db      	lsls	r3, r3, #23
     878:	469b      	mov	fp, r3
     87a:	2380      	movs	r3, #128	; 0x80
     87c:	035b      	lsls	r3, r3, #13
     87e:	4699      	mov	r9, r3
     880:	465a      	mov	r2, fp
     882:	6193      	str	r3, [r2, #24]
		wc_AesCbcEncrypt(&enc, input, input, num_bytes);
     884:	2300      	movs	r3, #0
     886:	0022      	movs	r2, r4
     888:	0021      	movs	r1, r4
     88a:	a84b      	add	r0, sp, #300	; 0x12c
     88c:	4e7e      	ldr	r6, [pc, #504]	; (a88 <aes_measurement+0x25c>)
     88e:	47b0      	blx	r6
	((Port *)hw)->Group[submodule_index].OUTCLR.reg = mask;
     890:	464b      	mov	r3, r9
     892:	465a      	mov	r2, fp
     894:	6153      	str	r3, [r2, #20]
		STOP_MEASURE(DGI_GPIO2);
     896:	2002      	movs	r0, #2
     898:	47b8      	blx	r7
		START_MEASURE(DGI_GPIO3);
     89a:	2002      	movs	r0, #2
     89c:	47b8      	blx	r7
	((Port *)hw)->Group[submodule_index].OUTSET.reg = mask;
     89e:	2380      	movs	r3, #128	; 0x80
     8a0:	039b      	lsls	r3, r3, #14
     8a2:	465a      	mov	r2, fp
     8a4:	6193      	str	r3, [r2, #24]
		if (_rww_flash_write(&FLASH_0.dev, NVMCTRL_RWW_EEPROM_ADDR, input, num_bytes ) != ERR_NONE) {
     8a6:	2300      	movs	r3, #0
     8a8:	0022      	movs	r2, r4
     8aa:	2180      	movs	r1, #128	; 0x80
     8ac:	03c9      	lsls	r1, r1, #15
     8ae:	4877      	ldr	r0, [pc, #476]	; (a8c <aes_measurement+0x260>)
     8b0:	4e77      	ldr	r6, [pc, #476]	; (a90 <aes_measurement+0x264>)
     8b2:	47b0      	blx	r6
     8b4:	2800      	cmp	r0, #0
     8b6:	d000      	beq.n	8ba <aes_measurement+0x8e>
     8b8:	e0d6      	b.n	a68 <aes_measurement+0x23c>
	((Port *)hw)->Group[submodule_index].OUTCLR.reg = mask;
     8ba:	27c0      	movs	r7, #192	; 0xc0
     8bc:	05ff      	lsls	r7, r7, #23
     8be:	2380      	movs	r3, #128	; 0x80
     8c0:	039b      	lsls	r3, r3, #14
     8c2:	4699      	mov	r9, r3
     8c4:	617b      	str	r3, [r7, #20]
		STOP_MEASURE(DGI_GPIO3);
     8c6:	2002      	movs	r0, #2
     8c8:	4e6b      	ldr	r6, [pc, #428]	; (a78 <aes_measurement+0x24c>)
     8ca:	47b0      	blx	r6
		SLEEP
     8cc:	2002      	movs	r0, #2
     8ce:	47b0      	blx	r6
		START_MEASURE(DGI_GPIO3);
     8d0:	2002      	movs	r0, #2
     8d2:	47b0      	blx	r6
	((Port *)hw)->Group[submodule_index].OUTSET.reg = mask;
     8d4:	464b      	mov	r3, r9
     8d6:	61bb      	str	r3, [r7, #24]
		if (_rww_flash_read(&FLASH_0.dev, NVMCTRL_RWW_EEPROM_ADDR, input, num_bytes) != ERR_NONE) {
     8d8:	2300      	movs	r3, #0
     8da:	0022      	movs	r2, r4
     8dc:	2180      	movs	r1, #128	; 0x80
     8de:	03c9      	lsls	r1, r1, #15
     8e0:	486a      	ldr	r0, [pc, #424]	; (a8c <aes_measurement+0x260>)
     8e2:	4e6c      	ldr	r6, [pc, #432]	; (a94 <aes_measurement+0x268>)
     8e4:	47b0      	blx	r6
     8e6:	2800      	cmp	r0, #0
     8e8:	d121      	bne.n	92e <aes_measurement+0x102>
	((Port *)hw)->Group[submodule_index].OUTCLR.reg = mask;
     8ea:	27c0      	movs	r7, #192	; 0xc0
     8ec:	05ff      	lsls	r7, r7, #23
     8ee:	2380      	movs	r3, #128	; 0x80
     8f0:	039b      	lsls	r3, r3, #14
     8f2:	617b      	str	r3, [r7, #20]
		STOP_MEASURE(DGI_GPIO3);
     8f4:	2002      	movs	r0, #2
     8f6:	4b60      	ldr	r3, [pc, #384]	; (a78 <aes_measurement+0x24c>)
     8f8:	469b      	mov	fp, r3
     8fa:	4798      	blx	r3
		wc_AesSetKey(&dec, key, sizeof(key), iv2, AES_DECRYPTION);
     8fc:	2301      	movs	r3, #1
     8fe:	9300      	str	r3, [sp, #0]
     900:	9b03      	ldr	r3, [sp, #12]
     902:	2220      	movs	r2, #32
     904:	495e      	ldr	r1, [pc, #376]	; (a80 <aes_measurement+0x254>)
     906:	a804      	add	r0, sp, #16
     908:	4e5e      	ldr	r6, [pc, #376]	; (a84 <aes_measurement+0x258>)
     90a:	47b0      	blx	r6

		// Start decryption
		START_MEASURE(DGI_GPIO2);
     90c:	2002      	movs	r0, #2
     90e:	47d8      	blx	fp
	((Port *)hw)->Group[submodule_index].OUTSET.reg = mask;
     910:	2380      	movs	r3, #128	; 0x80
     912:	035b      	lsls	r3, r3, #13
     914:	4699      	mov	r9, r3
     916:	61bb      	str	r3, [r7, #24]
		/*decrypt*/
		wc_AesCbcDecrypt(&dec, input, input,num_bytes);
     918:	2300      	movs	r3, #0
     91a:	0022      	movs	r2, r4
     91c:	0021      	movs	r1, r4
     91e:	a804      	add	r0, sp, #16
     920:	4e5d      	ldr	r6, [pc, #372]	; (a98 <aes_measurement+0x26c>)
     922:	47b0      	blx	r6
	((Port *)hw)->Group[submodule_index].OUTCLR.reg = mask;
     924:	464b      	mov	r3, r9
     926:	617b      	str	r3, [r7, #20]
		STOP_MEASURE(DGI_GPIO2);
     928:	2002      	movs	r0, #2
     92a:	47d8      	blx	fp
     92c:	e024      	b.n	978 <aes_measurement+0x14c>
     92e:	e07d      	b.n	a2c <aes_measurement+0x200>
     930:	27c0      	movs	r7, #192	; 0xc0
     932:	05ff      	lsls	r7, r7, #23
     934:	2380      	movs	r3, #128	; 0x80
     936:	039b      	lsls	r3, r3, #14
     938:	617b      	str	r3, [r7, #20]
		STOP_MEASURE(DGI_GPIO3);
     93a:	2002      	movs	r0, #2
     93c:	4b4e      	ldr	r3, [pc, #312]	; (a78 <aes_measurement+0x24c>)
     93e:	469b      	mov	fp, r3
     940:	4798      	blx	r3
		wc_AesSetKey(&dec, key, sizeof(key), iv2, AES_DECRYPTION);
     942:	2301      	movs	r3, #1
     944:	9300      	str	r3, [sp, #0]
     946:	9b02      	ldr	r3, [sp, #8]
     948:	2220      	movs	r2, #32
     94a:	494d      	ldr	r1, [pc, #308]	; (a80 <aes_measurement+0x254>)
     94c:	a804      	add	r0, sp, #16
     94e:	4e4d      	ldr	r6, [pc, #308]	; (a84 <aes_measurement+0x258>)
     950:	47b0      	blx	r6
		START_MEASURE(DGI_GPIO2);
     952:	2002      	movs	r0, #2
     954:	47d8      	blx	fp
	((Port *)hw)->Group[submodule_index].OUTSET.reg = mask;
     956:	2380      	movs	r3, #128	; 0x80
     958:	035b      	lsls	r3, r3, #13
     95a:	4699      	mov	r9, r3
     95c:	61bb      	str	r3, [r7, #24]
		wc_AesCbcDecrypt(&dec, input, input,num_bytes);
     95e:	002b      	movs	r3, r5
     960:	0022      	movs	r2, r4
     962:	0021      	movs	r1, r4
     964:	a804      	add	r0, sp, #16
     966:	4e4c      	ldr	r6, [pc, #304]	; (a98 <aes_measurement+0x26c>)
     968:	47b0      	blx	r6
	((Port *)hw)->Group[submodule_index].OUTCLR.reg = mask;
     96a:	464b      	mov	r3, r9
     96c:	617b      	str	r3, [r7, #20]
		STOP_MEASURE(DGI_GPIO2);
     96e:	2002      	movs	r0, #2
     970:	47d8      	blx	fp
	for (size_t num_bytes = MIN_NUM_BYTES; num_bytes <= MAX_NUM_BYTES; num_bytes += STEP_SIZE) {
     972:	4b3f      	ldr	r3, [pc, #252]	; (a70 <aes_measurement+0x244>)
     974:	4598      	cmp	r8, r3
     976:	d85a      	bhi.n	a2e <aes_measurement+0x202>
     978:	3510      	adds	r5, #16
     97a:	2310      	movs	r3, #16
     97c:	469c      	mov	ip, r3
     97e:	44e0      	add	r8, ip
		for (size_t byte = 0; byte < num_bytes; byte++) {
     980:	2300      	movs	r3, #0
     982:	2d00      	cmp	r5, #0
     984:	d100      	bne.n	988 <aes_measurement+0x15c>
     986:	e76a      	b.n	85e <aes_measurement+0x32>
			input[byte] = byte; // 0x00 to write 0's OR 0xFF to write 1's.
     988:	54e3      	strb	r3, [r4, r3]
		for (size_t byte = 0; byte < num_bytes; byte++) {
     98a:	3301      	adds	r3, #1
     98c:	429d      	cmp	r5, r3
     98e:	d1fb      	bne.n	988 <aes_measurement+0x15c>
		wc_AesSetKey(&enc, key, sizeof(key), iv, AES_ENCRYPTION);
     990:	2300      	movs	r3, #0
     992:	9300      	str	r3, [sp, #0]
     994:	4b39      	ldr	r3, [pc, #228]	; (a7c <aes_measurement+0x250>)
     996:	2220      	movs	r2, #32
     998:	4939      	ldr	r1, [pc, #228]	; (a80 <aes_measurement+0x254>)
     99a:	a84b      	add	r0, sp, #300	; 0x12c
     99c:	4e39      	ldr	r6, [pc, #228]	; (a84 <aes_measurement+0x258>)
     99e:	47b0      	blx	r6
		START_MEASURE(DGI_GPIO2);
     9a0:	2002      	movs	r0, #2
     9a2:	4f35      	ldr	r7, [pc, #212]	; (a78 <aes_measurement+0x24c>)
     9a4:	47b8      	blx	r7
	((Port *)hw)->Group[submodule_index].OUTSET.reg = mask;
     9a6:	23c0      	movs	r3, #192	; 0xc0
     9a8:	05db      	lsls	r3, r3, #23
     9aa:	469b      	mov	fp, r3
     9ac:	2380      	movs	r3, #128	; 0x80
     9ae:	035b      	lsls	r3, r3, #13
     9b0:	4699      	mov	r9, r3
     9b2:	465a      	mov	r2, fp
     9b4:	6193      	str	r3, [r2, #24]
		wc_AesCbcEncrypt(&enc, input, input, num_bytes);
     9b6:	002b      	movs	r3, r5
     9b8:	0022      	movs	r2, r4
     9ba:	0021      	movs	r1, r4
     9bc:	a84b      	add	r0, sp, #300	; 0x12c
     9be:	4e32      	ldr	r6, [pc, #200]	; (a88 <aes_measurement+0x25c>)
     9c0:	47b0      	blx	r6
	((Port *)hw)->Group[submodule_index].OUTCLR.reg = mask;
     9c2:	464b      	mov	r3, r9
     9c4:	465a      	mov	r2, fp
     9c6:	6153      	str	r3, [r2, #20]
		STOP_MEASURE(DGI_GPIO2);
     9c8:	2002      	movs	r0, #2
     9ca:	47b8      	blx	r7
		START_MEASURE(DGI_GPIO3);
     9cc:	2002      	movs	r0, #2
     9ce:	47b8      	blx	r7
	((Port *)hw)->Group[submodule_index].OUTSET.reg = mask;
     9d0:	2380      	movs	r3, #128	; 0x80
     9d2:	039b      	lsls	r3, r3, #14
     9d4:	465a      	mov	r2, fp
     9d6:	6193      	str	r3, [r2, #24]
		if (_rww_flash_write(&FLASH_0.dev, NVMCTRL_RWW_EEPROM_ADDR, input, num_bytes ) != ERR_NONE) {
     9d8:	002b      	movs	r3, r5
     9da:	0022      	movs	r2, r4
     9dc:	2180      	movs	r1, #128	; 0x80
     9de:	03c9      	lsls	r1, r1, #15
     9e0:	482a      	ldr	r0, [pc, #168]	; (a8c <aes_measurement+0x260>)
     9e2:	4e2b      	ldr	r6, [pc, #172]	; (a90 <aes_measurement+0x264>)
     9e4:	47b0      	blx	r6
     9e6:	2800      	cmp	r0, #0
     9e8:	d13e      	bne.n	a68 <aes_measurement+0x23c>
	((Port *)hw)->Group[submodule_index].OUTCLR.reg = mask;
     9ea:	2280      	movs	r2, #128	; 0x80
     9ec:	0392      	lsls	r2, r2, #14
     9ee:	23c0      	movs	r3, #192	; 0xc0
     9f0:	05db      	lsls	r3, r3, #23
     9f2:	615a      	str	r2, [r3, #20]
		STOP_MEASURE(DGI_GPIO3);
     9f4:	2002      	movs	r0, #2
     9f6:	4e20      	ldr	r6, [pc, #128]	; (a78 <aes_measurement+0x24c>)
     9f8:	47b0      	blx	r6
		SLEEP
     9fa:	2002      	movs	r0, #2
     9fc:	47b0      	blx	r6
     9fe:	2300      	movs	r3, #0
			input[byte] = 0xfe;
     a00:	22fe      	movs	r2, #254	; 0xfe
     a02:	54e2      	strb	r2, [r4, r3]
		for (size_t byte = 0; byte < num_bytes; byte++) {
     a04:	3301      	adds	r3, #1
     a06:	429d      	cmp	r5, r3
     a08:	d8fb      	bhi.n	a02 <aes_measurement+0x1d6>
		START_MEASURE(DGI_GPIO3);
     a0a:	2002      	movs	r0, #2
     a0c:	4b1a      	ldr	r3, [pc, #104]	; (a78 <aes_measurement+0x24c>)
     a0e:	4798      	blx	r3
	((Port *)hw)->Group[submodule_index].OUTSET.reg = mask;
     a10:	2280      	movs	r2, #128	; 0x80
     a12:	0392      	lsls	r2, r2, #14
     a14:	23c0      	movs	r3, #192	; 0xc0
     a16:	05db      	lsls	r3, r3, #23
     a18:	619a      	str	r2, [r3, #24]
		if (_rww_flash_read(&FLASH_0.dev, NVMCTRL_RWW_EEPROM_ADDR, input, num_bytes) != ERR_NONE) {
     a1a:	002b      	movs	r3, r5
     a1c:	0022      	movs	r2, r4
     a1e:	2180      	movs	r1, #128	; 0x80
     a20:	03c9      	lsls	r1, r1, #15
     a22:	481a      	ldr	r0, [pc, #104]	; (a8c <aes_measurement+0x260>)
     a24:	4e1b      	ldr	r6, [pc, #108]	; (a94 <aes_measurement+0x268>)
     a26:	47b0      	blx	r6
     a28:	2800      	cmp	r0, #0
     a2a:	d081      	beq.n	930 <aes_measurement+0x104>
     a2c:	e7fe      	b.n	a2c <aes_measurement+0x200>
		
	}
	
	
		// Free the memory
		free(input);
     a2e:	0020      	movs	r0, r4
     a30:	4b1a      	ldr	r3, [pc, #104]	; (a9c <aes_measurement+0x270>)
     a32:	4798      	blx	r3

		END_MEASUREMENT;
     a34:	200a      	movs	r0, #10
     a36:	4b10      	ldr	r3, [pc, #64]	; (a78 <aes_measurement+0x24c>)
     a38:	4798      	blx	r3
     a3a:	23c0      	movs	r3, #192	; 0xc0
     a3c:	05db      	lsls	r3, r3, #23
     a3e:	2102      	movs	r1, #2
     a40:	2298      	movs	r2, #152	; 0x98
     a42:	5099      	str	r1, [r3, r2]
     a44:	2280      	movs	r2, #128	; 0x80
     a46:	0252      	lsls	r2, r2, #9
     a48:	619a      	str	r2, [r3, #24]
     a4a:	2280      	movs	r2, #128	; 0x80
     a4c:	0352      	lsls	r2, r2, #13
     a4e:	619a      	str	r2, [r3, #24]
     a50:	2280      	movs	r2, #128	; 0x80
     a52:	0392      	lsls	r2, r2, #14
     a54:	619a      	str	r2, [r3, #24]
			
	
}
     a56:	2393      	movs	r3, #147	; 0x93
     a58:	009b      	lsls	r3, r3, #2
     a5a:	449d      	add	sp, r3
     a5c:	bc3c      	pop	{r2, r3, r4, r5}
     a5e:	4690      	mov	r8, r2
     a60:	4699      	mov	r9, r3
     a62:	46a2      	mov	sl, r4
     a64:	46ab      	mov	fp, r5
     a66:	bdf0      	pop	{r4, r5, r6, r7, pc}
     a68:	e7fe      	b.n	a68 <aes_measurement+0x23c>
     a6a:	46c0      	nop			; (mov r8, r8)
     a6c:	fffffdb4 	.word	0xfffffdb4
     a70:	00001770 	.word	0x00001770
     a74:	00001c61 	.word	0x00001c61
     a78:	00000325 	.word	0x00000325
     a7c:	20000000 	.word	0x20000000
     a80:	00001e5c 	.word	0x00001e5c
     a84:	00000aed 	.word	0x00000aed
     a88:	00001065 	.word	0x00001065
     a8c:	200000b4 	.word	0x200000b4
     a90:	000005fd 	.word	0x000005fd
     a94:	000005c5 	.word	0x000005c5
     a98:	000016b9 	.word	0x000016b9
     a9c:	00001c75 	.word	0x00001c75

00000aa0 <main>:

int main(void)
{
     aa0:	b510      	push	{r4, lr}
	atmel_start_init();
     aa2:	4b03      	ldr	r3, [pc, #12]	; (ab0 <main+0x10>)
     aa4:	4798      	blx	r3

	aes_measurement();
     aa6:	4b03      	ldr	r3, [pc, #12]	; (ab4 <main+0x14>)
     aa8:	4798      	blx	r3
	/*while (true) {
		delay_ms(500);
		gpio_toggle_pin_level(LED0);
	}*/
	
     aaa:	2000      	movs	r0, #0
     aac:	bd10      	pop	{r4, pc}
     aae:	46c0      	nop			; (mov r8, r8)
     ab0:	00000115 	.word	0x00000115
     ab4:	0000082d 	.word	0x0000082d

00000ab8 <wc_AesSetIV>:
#endif /* wc_AesSetKey block */


/* wc_AesSetIV is shared between software and hardware */
int wc_AesSetIV(Aes* aes, const byte* iv)
{
     ab8:	b510      	push	{r4, lr}
    if (aes == NULL)
     aba:	2800      	cmp	r0, #0
     abc:	d00e      	beq.n	adc <wc_AesSetIV+0x24>
        return BAD_FUNC_ARG;

    if (iv)
     abe:	2900      	cmp	r1, #0
     ac0:	d005      	beq.n	ace <wc_AesSetIV+0x16>
        XMEMCPY(aes->reg, iv, AES_BLOCK_SIZE);
     ac2:	30f8      	adds	r0, #248	; 0xf8
     ac4:	2210      	movs	r2, #16
     ac6:	4b07      	ldr	r3, [pc, #28]	; (ae4 <wc_AesSetIV+0x2c>)
     ac8:	4798      	blx	r3
    else
        XMEMSET(aes->reg,  0, AES_BLOCK_SIZE);

    return 0;
     aca:	2000      	movs	r0, #0
}
     acc:	bd10      	pop	{r4, pc}
        XMEMSET(aes->reg,  0, AES_BLOCK_SIZE);
     ace:	30f8      	adds	r0, #248	; 0xf8
     ad0:	2210      	movs	r2, #16
     ad2:	2100      	movs	r1, #0
     ad4:	4b04      	ldr	r3, [pc, #16]	; (ae8 <wc_AesSetIV+0x30>)
     ad6:	4798      	blx	r3
    return 0;
     ad8:	2000      	movs	r0, #0
     ada:	e7f7      	b.n	acc <wc_AesSetIV+0x14>
        return BAD_FUNC_ARG;
     adc:	20ad      	movs	r0, #173	; 0xad
     ade:	4240      	negs	r0, r0
     ae0:	e7f4      	b.n	acc <wc_AesSetIV+0x14>
     ae2:	46c0      	nop			; (mov r8, r8)
     ae4:	00001c89 	.word	0x00001c89
     ae8:	00001c9b 	.word	0x00001c9b

00000aec <wc_AesSetKey>:
    {
     aec:	b5f0      	push	{r4, r5, r6, r7, lr}
     aee:	46de      	mov	lr, fp
     af0:	4657      	mov	r7, sl
     af2:	464e      	mov	r6, r9
     af4:	4645      	mov	r5, r8
     af6:	b5e0      	push	{r5, r6, r7, lr}
     af8:	b085      	sub	sp, #20
     afa:	0007      	movs	r7, r0
     afc:	0014      	movs	r4, r2
     afe:	9301      	str	r3, [sp, #4]
        if (aes == NULL ||
     b00:	2800      	cmp	r0, #0
     b02:	d100      	bne.n	b06 <wc_AesSetKey+0x1a>
     b04:	e2a3      	b.n	104e <wc_AesSetKey+0x562>
     b06:	2308      	movs	r3, #8
     b08:	439a      	bics	r2, r3
     b0a:	2a10      	cmp	r2, #16
     b0c:	d02c      	beq.n	b68 <wc_AesSetKey+0x7c>
                !((keylen == 16) || (keylen == 24) || (keylen == 32))) {
     b0e:	2c20      	cmp	r4, #32
     b10:	d000      	beq.n	b14 <wc_AesSetKey+0x28>
     b12:	e29f      	b.n	1054 <wc_AesSetKey+0x568>
        aes->keylen = keylen;
     b14:	23f4      	movs	r3, #244	; 0xf4
     b16:	50c4      	str	r4, [r0, r3]
        aes->rounds = keylen/4 + 6;
     b18:	08a6      	lsrs	r6, r4, #2
     b1a:	1db2      	adds	r2, r6, #6
     b1c:	3b04      	subs	r3, #4
     b1e:	50c2      	str	r2, [r0, r3]
        word32 *rk = aes->key;
     b20:	0005      	movs	r5, r0
        XMEMCPY(rk, userKey, keylen);
     b22:	0022      	movs	r2, r4
     b24:	4bb7      	ldr	r3, [pc, #732]	; (e04 <wc_AesSetKey+0x318>)
     b26:	4798      	blx	r3
     b28:	002a      	movs	r2, r5
     b2a:	00b1      	lsls	r1, r6, #2
     b2c:	1869      	adds	r1, r5, r1
    /* 5 instructions with rotate instruction, 9 without */
    return (rotrFixed(value, 8U) & 0xff00ff00) |
           (rotlFixed(value, 8U) & 0x00ff00ff);
#else
    /* 6 instructions with rotate instruction, 8 without */
    value = ((value & 0xFF00FF00) >> 8) | ((value & 0x00FF00FF) << 8);
     b2e:	4bb6      	ldr	r3, [pc, #728]	; (e08 <wc_AesSetKey+0x31c>)
     b30:	469c      	mov	ip, r3
     b32:	4eb6      	ldr	r6, [pc, #728]	; (e0c <wc_AesSetKey+0x320>)
        return (x << y) | (x >> (sizeof(y) * 8 - y));
     b34:	2010      	movs	r0, #16
     b36:	46a9      	mov	r9, r5
     b38:	46a0      	mov	r8, r4
                                    word32 byteCount)
{
    word32 count = byteCount/(word32)sizeof(word32), i;

    for (i = 0; i < count; i++)
        out[i] = ByteReverseWord32(in[i]);
     b3a:	6814      	ldr	r4, [r2, #0]
    value = ((value & 0xFF00FF00) >> 8) | ((value & 0x00FF00FF) << 8);
     b3c:	0a23      	lsrs	r3, r4, #8
     b3e:	4665      	mov	r5, ip
     b40:	402b      	ands	r3, r5
     b42:	0224      	lsls	r4, r4, #8
     b44:	4034      	ands	r4, r6
     b46:	4323      	orrs	r3, r4
        return (x << y) | (x >> (sizeof(y) * 8 - y));
     b48:	41c3      	rors	r3, r0
        out[i] = ByteReverseWord32(in[i]);
     b4a:	c208      	stmia	r2!, {r3}
    for (i = 0; i < count; i++)
     b4c:	428a      	cmp	r2, r1
     b4e:	d1f4      	bne.n	b3a <wc_AesSetKey+0x4e>
     b50:	464d      	mov	r5, r9
     b52:	4644      	mov	r4, r8
        switch (keylen) {
     b54:	2c18      	cmp	r4, #24
     b56:	d060      	beq.n	c1a <wc_AesSetKey+0x12e>
     b58:	2c20      	cmp	r4, #32
     b5a:	d100      	bne.n	b5e <wc_AesSetKey+0x72>
     b5c:	e0bd      	b.n	cda <wc_AesSetKey+0x1ee>
     b5e:	2c10      	cmp	r4, #16
     b60:	d00f      	beq.n	b82 <wc_AesSetKey+0x96>
            return BAD_FUNC_ARG;
     b62:	20ad      	movs	r0, #173	; 0xad
     b64:	4240      	negs	r0, r0
     b66:	e140      	b.n	dea <wc_AesSetKey+0x2fe>
        aes->keylen = keylen;
     b68:	23f4      	movs	r3, #244	; 0xf4
     b6a:	50c4      	str	r4, [r0, r3]
        aes->rounds = keylen/4 + 6;
     b6c:	08a6      	lsrs	r6, r4, #2
     b6e:	1db2      	adds	r2, r6, #6
     b70:	3b04      	subs	r3, #4
     b72:	50c2      	str	r2, [r0, r3]
        word32 *rk = aes->key;
     b74:	0005      	movs	r5, r0
        XMEMCPY(rk, userKey, keylen);
     b76:	0022      	movs	r2, r4
     b78:	4ba2      	ldr	r3, [pc, #648]	; (e04 <wc_AesSetKey+0x318>)
     b7a:	4798      	blx	r3
     b7c:	2e00      	cmp	r6, #0
     b7e:	d1d3      	bne.n	b28 <wc_AesSetKey+0x3c>
     b80:	e7e8      	b.n	b54 <wc_AesSetKey+0x68>
     b82:	4ea3      	ldr	r6, [pc, #652]	; (e10 <wc_AesSetKey+0x324>)
     b84:	2390      	movs	r3, #144	; 0x90
     b86:	4699      	mov	r9, r3
     b88:	44a9      	add	r9, r5
        switch (keylen) {
     b8a:	0029      	movs	r1, r5
                    (Te[0][GETBYTE(temp, 0)] & 0x0000ff00) ^
     b8c:	0034      	movs	r4, r6
     b8e:	20ff      	movs	r0, #255	; 0xff
     b90:	23ff      	movs	r3, #255	; 0xff
     b92:	021b      	lsls	r3, r3, #8
     b94:	4698      	mov	r8, r3
                    (Te[3][GETBYTE(temp, 1)] & 0x00ff0000) ^
     b96:	23ff      	movs	r3, #255	; 0xff
     b98:	041b      	lsls	r3, r3, #16
     b9a:	469c      	mov	ip, r3
     b9c:	464b      	mov	r3, r9
     b9e:	46a9      	mov	r9, r5
     ba0:	46ba      	mov	sl, r7
     ba2:	9300      	str	r3, [sp, #0]
                temp  = rk[3];
     ba4:	68ca      	ldr	r2, [r1, #12]
                    (Te[0][GETBYTE(temp, 0)] & 0x0000ff00) ^
     ba6:	0003      	movs	r3, r0
     ba8:	4013      	ands	r3, r2
     baa:	009b      	lsls	r3, r3, #2
     bac:	18e3      	adds	r3, r4, r3
     bae:	6a9f      	ldr	r7, [r3, #40]	; 0x28
     bb0:	4643      	mov	r3, r8
     bb2:	401f      	ands	r7, r3
                    (Te[1][GETBYTE(temp, 3)] & 0x000000ff) ^
     bb4:	ce08      	ldmia	r6!, {r3}
     bb6:	680d      	ldr	r5, [r1, #0]
     bb8:	406b      	eors	r3, r5
     bba:	407b      	eors	r3, r7
     bbc:	0e17      	lsrs	r7, r2, #24
     bbe:	3701      	adds	r7, #1
     bc0:	37ff      	adds	r7, #255	; 0xff
     bc2:	00bf      	lsls	r7, r7, #2
     bc4:	19e7      	adds	r7, r4, r7
     bc6:	6abf      	ldr	r7, [r7, #40]	; 0x28
     bc8:	4007      	ands	r7, r0
     bca:	407b      	eors	r3, r7
                    (Te[2][GETBYTE(temp, 2)] & 0xff000000) ^
     bcc:	0c17      	lsrs	r7, r2, #16
     bce:	4007      	ands	r7, r0
     bd0:	2580      	movs	r5, #128	; 0x80
     bd2:	00ad      	lsls	r5, r5, #2
     bd4:	46ab      	mov	fp, r5
     bd6:	445f      	add	r7, fp
     bd8:	00bf      	lsls	r7, r7, #2
     bda:	19e7      	adds	r7, r4, r7
     bdc:	6abf      	ldr	r7, [r7, #40]	; 0x28
     bde:	0e3f      	lsrs	r7, r7, #24
     be0:	063f      	lsls	r7, r7, #24
                    (Te[1][GETBYTE(temp, 3)] & 0x000000ff) ^
     be2:	407b      	eors	r3, r7
                    (Te[3][GETBYTE(temp, 1)] & 0x00ff0000) ^
     be4:	0a17      	lsrs	r7, r2, #8
     be6:	4007      	ands	r7, r0
     be8:	3501      	adds	r5, #1
     bea:	35ff      	adds	r5, #255	; 0xff
     bec:	46ab      	mov	fp, r5
     bee:	445f      	add	r7, fp
     bf0:	00bf      	lsls	r7, r7, #2
     bf2:	19e7      	adds	r7, r4, r7
     bf4:	6abf      	ldr	r7, [r7, #40]	; 0x28
     bf6:	4665      	mov	r5, ip
     bf8:	402f      	ands	r7, r5
                    (Te[1][GETBYTE(temp, 3)] & 0x000000ff) ^
     bfa:	407b      	eors	r3, r7
                rk[4] = rk[0] ^
     bfc:	610b      	str	r3, [r1, #16]
                rk[5] = rk[1] ^ rk[4];
     bfe:	684d      	ldr	r5, [r1, #4]
     c00:	406b      	eors	r3, r5
     c02:	614b      	str	r3, [r1, #20]
                rk[6] = rk[2] ^ rk[5];
     c04:	688d      	ldr	r5, [r1, #8]
     c06:	406b      	eors	r3, r5
     c08:	618b      	str	r3, [r1, #24]
                rk[7] = rk[3] ^ rk[6];
     c0a:	4053      	eors	r3, r2
     c0c:	61cb      	str	r3, [r1, #28]
                if (++i == 10)
     c0e:	9b00      	ldr	r3, [sp, #0]
     c10:	4299      	cmp	r1, r3
     c12:	d100      	bne.n	c16 <wc_AesSetKey+0x12a>
     c14:	e0e0      	b.n	dd8 <wc_AesSetKey+0x2ec>
                rk += 4;
     c16:	3110      	adds	r1, #16
     c18:	e7c4      	b.n	ba4 <wc_AesSetKey+0xb8>
     c1a:	4e7d      	ldr	r6, [pc, #500]	; (e10 <wc_AesSetKey+0x324>)
     c1c:	23a8      	movs	r3, #168	; 0xa8
     c1e:	4699      	mov	r9, r3
     c20:	44a9      	add	r9, r5
        switch (keylen) {
     c22:	0029      	movs	r1, r5
                    (Te[0][GETBYTE(temp, 0)] & 0x0000ff00) ^
     c24:	0034      	movs	r4, r6
     c26:	20ff      	movs	r0, #255	; 0xff
     c28:	23ff      	movs	r3, #255	; 0xff
     c2a:	021b      	lsls	r3, r3, #8
     c2c:	4698      	mov	r8, r3
                    (Te[3][GETBYTE(temp, 1)] & 0x00ff0000) ^
     c2e:	23ff      	movs	r3, #255	; 0xff
     c30:	041b      	lsls	r3, r3, #16
     c32:	469c      	mov	ip, r3
     c34:	464b      	mov	r3, r9
     c36:	9502      	str	r5, [sp, #8]
     c38:	46bb      	mov	fp, r7
     c3a:	9300      	str	r3, [sp, #0]
                temp = rk[ 5];
     c3c:	694a      	ldr	r2, [r1, #20]
                    (Te[0][GETBYTE(temp, 0)] & 0x0000ff00) ^
     c3e:	0003      	movs	r3, r0
     c40:	4013      	ands	r3, r2
     c42:	009b      	lsls	r3, r3, #2
     c44:	18e3      	adds	r3, r4, r3
     c46:	6a9f      	ldr	r7, [r3, #40]	; 0x28
     c48:	4643      	mov	r3, r8
     c4a:	401f      	ands	r7, r3
                    (Te[1][GETBYTE(temp, 3)] & 0x000000ff) ^
     c4c:	ce08      	ldmia	r6!, {r3}
     c4e:	680d      	ldr	r5, [r1, #0]
     c50:	406b      	eors	r3, r5
     c52:	407b      	eors	r3, r7
     c54:	0e17      	lsrs	r7, r2, #24
     c56:	1c7d      	adds	r5, r7, #1
     c58:	35ff      	adds	r5, #255	; 0xff
     c5a:	00ad      	lsls	r5, r5, #2
     c5c:	46aa      	mov	sl, r5
     c5e:	44a2      	add	sl, r4
     c60:	4655      	mov	r5, sl
     c62:	6aad      	ldr	r5, [r5, #40]	; 0x28
     c64:	002f      	movs	r7, r5
     c66:	4007      	ands	r7, r0
     c68:	407b      	eors	r3, r7
                    (Te[2][GETBYTE(temp, 2)] & 0xff000000) ^
     c6a:	0c15      	lsrs	r5, r2, #16
     c6c:	002f      	movs	r7, r5
     c6e:	4007      	ands	r7, r0
     c70:	46ba      	mov	sl, r7
     c72:	2580      	movs	r5, #128	; 0x80
     c74:	00ad      	lsls	r5, r5, #2
     c76:	46a9      	mov	r9, r5
     c78:	44ca      	add	sl, r9
     c7a:	4655      	mov	r5, sl
     c7c:	00ad      	lsls	r5, r5, #2
     c7e:	46aa      	mov	sl, r5
     c80:	44a2      	add	sl, r4
     c82:	4655      	mov	r5, sl
     c84:	6aad      	ldr	r5, [r5, #40]	; 0x28
     c86:	0e2d      	lsrs	r5, r5, #24
     c88:	062d      	lsls	r5, r5, #24
                    (Te[1][GETBYTE(temp, 3)] & 0x000000ff) ^
     c8a:	406b      	eors	r3, r5
                    (Te[3][GETBYTE(temp, 1)] & 0x00ff0000) ^
     c8c:	0a15      	lsrs	r5, r2, #8
     c8e:	002f      	movs	r7, r5
     c90:	4007      	ands	r7, r0
     c92:	46ba      	mov	sl, r7
     c94:	25c0      	movs	r5, #192	; 0xc0
     c96:	00ad      	lsls	r5, r5, #2
     c98:	46a9      	mov	r9, r5
     c9a:	44ca      	add	sl, r9
     c9c:	4655      	mov	r5, sl
     c9e:	00ad      	lsls	r5, r5, #2
     ca0:	46aa      	mov	sl, r5
     ca2:	44a2      	add	sl, r4
     ca4:	4655      	mov	r5, sl
     ca6:	6aad      	ldr	r5, [r5, #40]	; 0x28
     ca8:	002f      	movs	r7, r5
     caa:	4665      	mov	r5, ip
     cac:	402f      	ands	r7, r5
                    (Te[1][GETBYTE(temp, 3)] & 0x000000ff) ^
     cae:	407b      	eors	r3, r7
                rk[ 6] = rk[ 0] ^
     cb0:	618b      	str	r3, [r1, #24]
                rk[ 7] = rk[ 1] ^ rk[ 6];
     cb2:	684d      	ldr	r5, [r1, #4]
     cb4:	406b      	eors	r3, r5
     cb6:	61cb      	str	r3, [r1, #28]
                rk[ 8] = rk[ 2] ^ rk[ 7];
     cb8:	688d      	ldr	r5, [r1, #8]
     cba:	406b      	eors	r3, r5
     cbc:	620b      	str	r3, [r1, #32]
                rk[ 9] = rk[ 3] ^ rk[ 8];
     cbe:	68cd      	ldr	r5, [r1, #12]
     cc0:	406b      	eors	r3, r5
     cc2:	624b      	str	r3, [r1, #36]	; 0x24
                if (++i == 8)
     cc4:	9d00      	ldr	r5, [sp, #0]
     cc6:	42a9      	cmp	r1, r5
     cc8:	d100      	bne.n	ccc <wc_AesSetKey+0x1e0>
     cca:	e095      	b.n	df8 <wc_AesSetKey+0x30c>
                rk[10] = rk[ 4] ^ rk[ 9];
     ccc:	690d      	ldr	r5, [r1, #16]
     cce:	406b      	eors	r3, r5
     cd0:	628b      	str	r3, [r1, #40]	; 0x28
                rk[11] = rk[ 5] ^ rk[10];
     cd2:	4053      	eors	r3, r2
     cd4:	62cb      	str	r3, [r1, #44]	; 0x2c
                rk += 6;
     cd6:	3118      	adds	r1, #24
     cd8:	e7b0      	b.n	c3c <wc_AesSetKey+0x150>
     cda:	4b4d      	ldr	r3, [pc, #308]	; (e10 <wc_AesSetKey+0x324>)
     cdc:	4699      	mov	r9, r3
     cde:	23c0      	movs	r3, #192	; 0xc0
     ce0:	469c      	mov	ip, r3
     ce2:	44ac      	add	ip, r5
     ce4:	4663      	mov	r3, ip
        switch (keylen) {
     ce6:	002c      	movs	r4, r5
                    (Te[0][GETBYTE(temp, 0)] & 0x0000ff00) ^
     ce8:	46cc      	mov	ip, r9
     cea:	26ff      	movs	r6, #255	; 0xff
     cec:	22ff      	movs	r2, #255	; 0xff
     cee:	0212      	lsls	r2, r2, #8
     cf0:	4693      	mov	fp, r2
                    (Te[3][GETBYTE(temp, 1)] & 0x00ff0000) ^
     cf2:	22ff      	movs	r2, #255	; 0xff
     cf4:	0412      	lsls	r2, r2, #16
     cf6:	4692      	mov	sl, r2
                    (Te[3][GETBYTE(temp, 2)] & 0x00ff0000) ^
     cf8:	464a      	mov	r2, r9
     cfa:	46c8      	mov	r8, r9
     cfc:	9502      	str	r5, [sp, #8]
     cfe:	9703      	str	r7, [sp, #12]
     d00:	001f      	movs	r7, r3
     d02:	9200      	str	r2, [sp, #0]
                temp = rk[ 7];
     d04:	69e1      	ldr	r1, [r4, #28]
                    (Te[1][GETBYTE(temp, 3)] & 0x000000ff) ^
     d06:	9a00      	ldr	r2, [sp, #0]
     d08:	ca08      	ldmia	r2!, {r3}
     d0a:	9200      	str	r2, [sp, #0]
     d0c:	6822      	ldr	r2, [r4, #0]
     d0e:	4053      	eors	r3, r2
                    (Te[0][GETBYTE(temp, 0)] & 0x0000ff00) ^
     d10:	0032      	movs	r2, r6
     d12:	400a      	ands	r2, r1
     d14:	0092      	lsls	r2, r2, #2
     d16:	4462      	add	r2, ip
     d18:	6a92      	ldr	r2, [r2, #40]	; 0x28
     d1a:	4658      	mov	r0, fp
     d1c:	4002      	ands	r2, r0
                    (Te[1][GETBYTE(temp, 3)] & 0x000000ff) ^
     d1e:	4053      	eors	r3, r2
     d20:	0e0a      	lsrs	r2, r1, #24
     d22:	3201      	adds	r2, #1
     d24:	32ff      	adds	r2, #255	; 0xff
     d26:	0092      	lsls	r2, r2, #2
     d28:	4462      	add	r2, ip
     d2a:	6a92      	ldr	r2, [r2, #40]	; 0x28
     d2c:	4032      	ands	r2, r6
     d2e:	4053      	eors	r3, r2
                    (Te[2][GETBYTE(temp, 2)] & 0xff000000) ^
     d30:	0c0a      	lsrs	r2, r1, #16
     d32:	4032      	ands	r2, r6
     d34:	2080      	movs	r0, #128	; 0x80
     d36:	0080      	lsls	r0, r0, #2
     d38:	4681      	mov	r9, r0
     d3a:	444a      	add	r2, r9
     d3c:	0092      	lsls	r2, r2, #2
     d3e:	4462      	add	r2, ip
     d40:	6a92      	ldr	r2, [r2, #40]	; 0x28
     d42:	0e12      	lsrs	r2, r2, #24
     d44:	0612      	lsls	r2, r2, #24
                    (Te[1][GETBYTE(temp, 3)] & 0x000000ff) ^
     d46:	4053      	eors	r3, r2
                    (Te[3][GETBYTE(temp, 1)] & 0x00ff0000) ^
     d48:	0a0a      	lsrs	r2, r1, #8
     d4a:	4032      	ands	r2, r6
     d4c:	3001      	adds	r0, #1
     d4e:	30ff      	adds	r0, #255	; 0xff
     d50:	4681      	mov	r9, r0
     d52:	444a      	add	r2, r9
     d54:	0092      	lsls	r2, r2, #2
     d56:	4462      	add	r2, ip
     d58:	6a92      	ldr	r2, [r2, #40]	; 0x28
     d5a:	4650      	mov	r0, sl
     d5c:	4002      	ands	r2, r0
                    (Te[1][GETBYTE(temp, 3)] & 0x000000ff) ^
     d5e:	4053      	eors	r3, r2
                rk[ 8] = rk[ 0] ^
     d60:	6223      	str	r3, [r4, #32]
                rk[ 9] = rk[ 1] ^ rk[ 8];
     d62:	6862      	ldr	r2, [r4, #4]
     d64:	4053      	eors	r3, r2
     d66:	6263      	str	r3, [r4, #36]	; 0x24
                rk[10] = rk[ 2] ^ rk[ 9];
     d68:	68a2      	ldr	r2, [r4, #8]
     d6a:	4053      	eors	r3, r2
     d6c:	62a3      	str	r3, [r4, #40]	; 0x28
                rk[11] = rk[ 3] ^ rk[10];
     d6e:	68e2      	ldr	r2, [r4, #12]
     d70:	4053      	eors	r3, r2
     d72:	62e3      	str	r3, [r4, #44]	; 0x2c
                if (++i == 7)
     d74:	42bc      	cmp	r4, r7
     d76:	d042      	beq.n	dfe <wc_AesSetKey+0x312>
                    (Te[3][GETBYTE(temp, 2)] & 0x00ff0000) ^
     d78:	0c1a      	lsrs	r2, r3, #16
     d7a:	4032      	ands	r2, r6
     d7c:	444a      	add	r2, r9
     d7e:	0092      	lsls	r2, r2, #2
     d80:	4442      	add	r2, r8
     d82:	6a92      	ldr	r2, [r2, #40]	; 0x28
     d84:	4650      	mov	r0, sl
     d86:	4002      	ands	r2, r0
                    (Te[0][GETBYTE(temp, 1)] & 0x0000ff00) ^
     d88:	0a18      	lsrs	r0, r3, #8
     d8a:	4030      	ands	r0, r6
     d8c:	0080      	lsls	r0, r0, #2
     d8e:	4440      	add	r0, r8
     d90:	6a80      	ldr	r0, [r0, #40]	; 0x28
     d92:	465d      	mov	r5, fp
     d94:	4028      	ands	r0, r5
     d96:	4302      	orrs	r2, r0
     d98:	6920      	ldr	r0, [r4, #16]
     d9a:	4042      	eors	r2, r0
                    (Te[2][GETBYTE(temp, 3)] & 0xff000000) ^
     d9c:	0e18      	lsrs	r0, r3, #24
     d9e:	2580      	movs	r5, #128	; 0x80
     da0:	00ad      	lsls	r5, r5, #2
     da2:	46a9      	mov	r9, r5
     da4:	4448      	add	r0, r9
     da6:	0080      	lsls	r0, r0, #2
     da8:	4440      	add	r0, r8
     daa:	6a80      	ldr	r0, [r0, #40]	; 0x28
     dac:	0e00      	lsrs	r0, r0, #24
     dae:	0600      	lsls	r0, r0, #24
                    (Te[1][GETBYTE(temp, 0)] & 0x000000ff);
     db0:	4033      	ands	r3, r6
     db2:	3301      	adds	r3, #1
     db4:	33ff      	adds	r3, #255	; 0xff
     db6:	009b      	lsls	r3, r3, #2
     db8:	4443      	add	r3, r8
     dba:	6a9b      	ldr	r3, [r3, #40]	; 0x28
     dbc:	4033      	ands	r3, r6
                    (Te[0][GETBYTE(temp, 1)] & 0x0000ff00) ^
     dbe:	4318      	orrs	r0, r3
     dc0:	4042      	eors	r2, r0
                rk[12] = rk[ 4] ^
     dc2:	6322      	str	r2, [r4, #48]	; 0x30
                rk[13] = rk[ 5] ^ rk[12];
     dc4:	6963      	ldr	r3, [r4, #20]
     dc6:	405a      	eors	r2, r3
     dc8:	6362      	str	r2, [r4, #52]	; 0x34
                rk[14] = rk[ 6] ^ rk[13];
     dca:	69a3      	ldr	r3, [r4, #24]
     dcc:	405a      	eors	r2, r3
     dce:	63a2      	str	r2, [r4, #56]	; 0x38
                rk[15] = rk[ 7] ^ rk[14];
     dd0:	4051      	eors	r1, r2
     dd2:	63e1      	str	r1, [r4, #60]	; 0x3c
                rk += 8;
     dd4:	3420      	adds	r4, #32
     dd6:	e795      	b.n	d04 <wc_AesSetKey+0x218>
     dd8:	464d      	mov	r5, r9
     dda:	4657      	mov	r7, sl
        if (dir == AES_DECRYPTION) {
     ddc:	9b0e      	ldr	r3, [sp, #56]	; 0x38
     dde:	2b01      	cmp	r3, #1
     de0:	d01a      	beq.n	e18 <wc_AesSetKey+0x32c>
        return wc_AesSetIV(aes, iv);
     de2:	9901      	ldr	r1, [sp, #4]
     de4:	0038      	movs	r0, r7
     de6:	4b0b      	ldr	r3, [pc, #44]	; (e14 <wc_AesSetKey+0x328>)
     de8:	4798      	blx	r3
    }
     dea:	b005      	add	sp, #20
     dec:	bc3c      	pop	{r2, r3, r4, r5}
     dee:	4690      	mov	r8, r2
     df0:	4699      	mov	r9, r3
     df2:	46a2      	mov	sl, r4
     df4:	46ab      	mov	fp, r5
     df6:	bdf0      	pop	{r4, r5, r6, r7, pc}
     df8:	9d02      	ldr	r5, [sp, #8]
     dfa:	465f      	mov	r7, fp
     dfc:	e7ee      	b.n	ddc <wc_AesSetKey+0x2f0>
     dfe:	9d02      	ldr	r5, [sp, #8]
     e00:	9f03      	ldr	r7, [sp, #12]
     e02:	e7eb      	b.n	ddc <wc_AesSetKey+0x2f0>
     e04:	00001c89 	.word	0x00001c89
     e08:	00ff00ff 	.word	0x00ff00ff
     e0c:	ff00ff00 	.word	0xff00ff00
     e10:	00001e7c 	.word	0x00001e7c
     e14:	00000ab9 	.word	0x00000ab9
            for (i = 0, j = 4* aes->rounds; i < j; i += 4, j -= 4) {
     e18:	33ef      	adds	r3, #239	; 0xef
     e1a:	58fc      	ldr	r4, [r7, r3]
     e1c:	00a4      	lsls	r4, r4, #2
     e1e:	d019      	beq.n	e54 <wc_AesSetKey+0x368>
     e20:	002a      	movs	r2, r5
     e22:	00a3      	lsls	r3, r4, #2
     e24:	18eb      	adds	r3, r5, r3
     e26:	2100      	movs	r1, #0
                temp = rk[i    ]; rk[i    ] = rk[j    ]; rk[j    ] = temp;
     e28:	6810      	ldr	r0, [r2, #0]
     e2a:	681e      	ldr	r6, [r3, #0]
     e2c:	6016      	str	r6, [r2, #0]
     e2e:	6018      	str	r0, [r3, #0]
                temp = rk[i + 1]; rk[i + 1] = rk[j + 1]; rk[j + 1] = temp;
     e30:	6850      	ldr	r0, [r2, #4]
     e32:	685e      	ldr	r6, [r3, #4]
     e34:	6056      	str	r6, [r2, #4]
     e36:	6058      	str	r0, [r3, #4]
                temp = rk[i + 2]; rk[i + 2] = rk[j + 2]; rk[j + 2] = temp;
     e38:	6890      	ldr	r0, [r2, #8]
     e3a:	689e      	ldr	r6, [r3, #8]
     e3c:	6096      	str	r6, [r2, #8]
     e3e:	6098      	str	r0, [r3, #8]
                temp = rk[i + 3]; rk[i + 3] = rk[j + 3]; rk[j + 3] = temp;
     e40:	68d0      	ldr	r0, [r2, #12]
     e42:	68de      	ldr	r6, [r3, #12]
     e44:	60d6      	str	r6, [r2, #12]
     e46:	60d8      	str	r0, [r3, #12]
            for (i = 0, j = 4* aes->rounds; i < j; i += 4, j -= 4) {
     e48:	3104      	adds	r1, #4
     e4a:	3210      	adds	r2, #16
     e4c:	3b10      	subs	r3, #16
     e4e:	1a60      	subs	r0, r4, r1
     e50:	4281      	cmp	r1, r0
     e52:	d3e9      	bcc.n	e28 <wc_AesSetKey+0x33c>
            for (i = 1; i < aes->rounds; i++) {
     e54:	23f0      	movs	r3, #240	; 0xf0
     e56:	58fb      	ldr	r3, [r7, r3]
     e58:	2b01      	cmp	r3, #1
     e5a:	d9c2      	bls.n	de2 <wc_AesSetKey+0x2f6>
     e5c:	2401      	movs	r4, #1
                    Td[0][Te[1][GETBYTE(rk[0], 3)] & 0xff] ^
     e5e:	497f      	ldr	r1, [pc, #508]	; (105c <wc_AesSetKey+0x570>)
     e60:	4a7f      	ldr	r2, [pc, #508]	; (1060 <wc_AesSetKey+0x574>)
     e62:	23ff      	movs	r3, #255	; 0xff
            for (i = 1; i < aes->rounds; i++) {
     e64:	20f0      	movs	r0, #240	; 0xf0
     e66:	4682      	mov	sl, r0
     e68:	46bc      	mov	ip, r7
     e6a:	0027      	movs	r7, r4
                rk += 4;
     e6c:	3510      	adds	r5, #16
                    Td[0][Te[1][GETBYTE(rk[0], 3)] & 0xff] ^
     e6e:	6828      	ldr	r0, [r5, #0]
     e70:	0e04      	lsrs	r4, r0, #24
     e72:	3401      	adds	r4, #1
     e74:	34ff      	adds	r4, #255	; 0xff
     e76:	00a4      	lsls	r4, r4, #2
     e78:	1914      	adds	r4, r2, r4
     e7a:	6aa4      	ldr	r4, [r4, #40]	; 0x28
     e7c:	401c      	ands	r4, r3
     e7e:	00a4      	lsls	r4, r4, #2
     e80:	46a0      	mov	r8, r4
     e82:	4488      	add	r8, r1
                    Td[3][Te[1][GETBYTE(rk[0], 0)] & 0xff];
     e84:	001c      	movs	r4, r3
     e86:	4004      	ands	r4, r0
     e88:	3401      	adds	r4, #1
     e8a:	34ff      	adds	r4, #255	; 0xff
     e8c:	00a4      	lsls	r4, r4, #2
     e8e:	1914      	adds	r4, r2, r4
     e90:	6aa4      	ldr	r4, [r4, #40]	; 0x28
     e92:	401c      	ands	r4, r3
     e94:	26c0      	movs	r6, #192	; 0xc0
     e96:	00b6      	lsls	r6, r6, #2
     e98:	46b1      	mov	r9, r6
     e9a:	444c      	add	r4, r9
     e9c:	00a4      	lsls	r4, r4, #2
     e9e:	190c      	adds	r4, r1, r4
                    Td[2][Te[1][GETBYTE(rk[0], 1)] & 0xff] ^
     ea0:	4646      	mov	r6, r8
     ea2:	6ab6      	ldr	r6, [r6, #40]	; 0x28
     ea4:	6aa4      	ldr	r4, [r4, #40]	; 0x28
     ea6:	4066      	eors	r6, r4
                    Td[1][Te[1][GETBYTE(rk[0], 2)] & 0xff] ^
     ea8:	0c04      	lsrs	r4, r0, #16
     eaa:	401c      	ands	r4, r3
     eac:	3401      	adds	r4, #1
     eae:	34ff      	adds	r4, #255	; 0xff
     eb0:	00a4      	lsls	r4, r4, #2
     eb2:	1914      	adds	r4, r2, r4
     eb4:	6aa4      	ldr	r4, [r4, #40]	; 0x28
     eb6:	401c      	ands	r4, r3
     eb8:	3401      	adds	r4, #1
     eba:	34ff      	adds	r4, #255	; 0xff
     ebc:	00a4      	lsls	r4, r4, #2
     ebe:	190c      	adds	r4, r1, r4
                    Td[2][Te[1][GETBYTE(rk[0], 1)] & 0xff] ^
     ec0:	6aa4      	ldr	r4, [r4, #40]	; 0x28
     ec2:	4074      	eors	r4, r6
     ec4:	0a00      	lsrs	r0, r0, #8
     ec6:	4018      	ands	r0, r3
     ec8:	3001      	adds	r0, #1
     eca:	30ff      	adds	r0, #255	; 0xff
     ecc:	0080      	lsls	r0, r0, #2
     ece:	1810      	adds	r0, r2, r0
     ed0:	6a80      	ldr	r0, [r0, #40]	; 0x28
     ed2:	4018      	ands	r0, r3
     ed4:	2680      	movs	r6, #128	; 0x80
     ed6:	00b6      	lsls	r6, r6, #2
     ed8:	46b0      	mov	r8, r6
     eda:	4440      	add	r0, r8
     edc:	0080      	lsls	r0, r0, #2
     ede:	1808      	adds	r0, r1, r0
     ee0:	6a80      	ldr	r0, [r0, #40]	; 0x28
     ee2:	4044      	eors	r4, r0
                rk[0] =
     ee4:	602c      	str	r4, [r5, #0]
                    Td[0][Te[1][GETBYTE(rk[1], 3)] & 0xff] ^
     ee6:	6868      	ldr	r0, [r5, #4]
     ee8:	0e04      	lsrs	r4, r0, #24
     eea:	3401      	adds	r4, #1
     eec:	34ff      	adds	r4, #255	; 0xff
     eee:	00a4      	lsls	r4, r4, #2
     ef0:	1914      	adds	r4, r2, r4
     ef2:	6aa4      	ldr	r4, [r4, #40]	; 0x28
     ef4:	401c      	ands	r4, r3
     ef6:	00a4      	lsls	r4, r4, #2
     ef8:	46a0      	mov	r8, r4
     efa:	4488      	add	r8, r1
                    Td[3][Te[1][GETBYTE(rk[1], 0)] & 0xff];
     efc:	001c      	movs	r4, r3
     efe:	4004      	ands	r4, r0
     f00:	3401      	adds	r4, #1
     f02:	34ff      	adds	r4, #255	; 0xff
     f04:	00a4      	lsls	r4, r4, #2
     f06:	1914      	adds	r4, r2, r4
     f08:	6aa4      	ldr	r4, [r4, #40]	; 0x28
     f0a:	401c      	ands	r4, r3
     f0c:	444c      	add	r4, r9
     f0e:	00a4      	lsls	r4, r4, #2
     f10:	190c      	adds	r4, r1, r4
                    Td[2][Te[1][GETBYTE(rk[1], 1)] & 0xff] ^
     f12:	4646      	mov	r6, r8
     f14:	6ab6      	ldr	r6, [r6, #40]	; 0x28
     f16:	6aa4      	ldr	r4, [r4, #40]	; 0x28
     f18:	4066      	eors	r6, r4
                    Td[1][Te[1][GETBYTE(rk[1], 2)] & 0xff] ^
     f1a:	0c04      	lsrs	r4, r0, #16
     f1c:	401c      	ands	r4, r3
     f1e:	3401      	adds	r4, #1
     f20:	34ff      	adds	r4, #255	; 0xff
     f22:	00a4      	lsls	r4, r4, #2
     f24:	1914      	adds	r4, r2, r4
     f26:	6aa4      	ldr	r4, [r4, #40]	; 0x28
     f28:	401c      	ands	r4, r3
     f2a:	3401      	adds	r4, #1
     f2c:	34ff      	adds	r4, #255	; 0xff
     f2e:	00a4      	lsls	r4, r4, #2
     f30:	190c      	adds	r4, r1, r4
                    Td[2][Te[1][GETBYTE(rk[1], 1)] & 0xff] ^
     f32:	6aa4      	ldr	r4, [r4, #40]	; 0x28
     f34:	4074      	eors	r4, r6
     f36:	0a00      	lsrs	r0, r0, #8
     f38:	4018      	ands	r0, r3
     f3a:	3001      	adds	r0, #1
     f3c:	30ff      	adds	r0, #255	; 0xff
     f3e:	0080      	lsls	r0, r0, #2
     f40:	1810      	adds	r0, r2, r0
     f42:	6a80      	ldr	r0, [r0, #40]	; 0x28
     f44:	4018      	ands	r0, r3
     f46:	2680      	movs	r6, #128	; 0x80
     f48:	00b6      	lsls	r6, r6, #2
     f4a:	46b0      	mov	r8, r6
     f4c:	4440      	add	r0, r8
     f4e:	0080      	lsls	r0, r0, #2
     f50:	1808      	adds	r0, r1, r0
     f52:	6a80      	ldr	r0, [r0, #40]	; 0x28
     f54:	4044      	eors	r4, r0
                rk[1] =
     f56:	606c      	str	r4, [r5, #4]
                    Td[0][Te[1][GETBYTE(rk[2], 3)] & 0xff] ^
     f58:	68a8      	ldr	r0, [r5, #8]
     f5a:	0e04      	lsrs	r4, r0, #24
     f5c:	3401      	adds	r4, #1
     f5e:	34ff      	adds	r4, #255	; 0xff
     f60:	00a4      	lsls	r4, r4, #2
     f62:	1914      	adds	r4, r2, r4
     f64:	6aa4      	ldr	r4, [r4, #40]	; 0x28
     f66:	401c      	ands	r4, r3
     f68:	00a4      	lsls	r4, r4, #2
     f6a:	46a0      	mov	r8, r4
     f6c:	4488      	add	r8, r1
                    Td[3][Te[1][GETBYTE(rk[2], 0)] & 0xff];
     f6e:	001c      	movs	r4, r3
     f70:	4004      	ands	r4, r0
     f72:	3401      	adds	r4, #1
     f74:	34ff      	adds	r4, #255	; 0xff
     f76:	00a4      	lsls	r4, r4, #2
     f78:	1914      	adds	r4, r2, r4
     f7a:	6aa4      	ldr	r4, [r4, #40]	; 0x28
     f7c:	401c      	ands	r4, r3
     f7e:	444c      	add	r4, r9
     f80:	00a4      	lsls	r4, r4, #2
     f82:	190c      	adds	r4, r1, r4
                    Td[2][Te[1][GETBYTE(rk[2], 1)] & 0xff] ^
     f84:	4646      	mov	r6, r8
     f86:	6ab6      	ldr	r6, [r6, #40]	; 0x28
     f88:	6aa4      	ldr	r4, [r4, #40]	; 0x28
     f8a:	4066      	eors	r6, r4
                    Td[1][Te[1][GETBYTE(rk[2], 2)] & 0xff] ^
     f8c:	0c04      	lsrs	r4, r0, #16
     f8e:	401c      	ands	r4, r3
     f90:	3401      	adds	r4, #1
     f92:	34ff      	adds	r4, #255	; 0xff
     f94:	00a4      	lsls	r4, r4, #2
     f96:	1914      	adds	r4, r2, r4
     f98:	6aa4      	ldr	r4, [r4, #40]	; 0x28
     f9a:	401c      	ands	r4, r3
     f9c:	3401      	adds	r4, #1
     f9e:	34ff      	adds	r4, #255	; 0xff
     fa0:	00a4      	lsls	r4, r4, #2
     fa2:	190c      	adds	r4, r1, r4
                    Td[2][Te[1][GETBYTE(rk[2], 1)] & 0xff] ^
     fa4:	6aa4      	ldr	r4, [r4, #40]	; 0x28
     fa6:	4074      	eors	r4, r6
     fa8:	0a00      	lsrs	r0, r0, #8
     faa:	4018      	ands	r0, r3
     fac:	3001      	adds	r0, #1
     fae:	30ff      	adds	r0, #255	; 0xff
     fb0:	0080      	lsls	r0, r0, #2
     fb2:	1810      	adds	r0, r2, r0
     fb4:	6a80      	ldr	r0, [r0, #40]	; 0x28
     fb6:	4018      	ands	r0, r3
     fb8:	2680      	movs	r6, #128	; 0x80
     fba:	00b6      	lsls	r6, r6, #2
     fbc:	46b0      	mov	r8, r6
     fbe:	4440      	add	r0, r8
     fc0:	0080      	lsls	r0, r0, #2
     fc2:	1808      	adds	r0, r1, r0
     fc4:	6a80      	ldr	r0, [r0, #40]	; 0x28
     fc6:	4044      	eors	r4, r0
                rk[2] =
     fc8:	60ac      	str	r4, [r5, #8]
                    Td[0][Te[1][GETBYTE(rk[3], 3)] & 0xff] ^
     fca:	68e8      	ldr	r0, [r5, #12]
     fcc:	0e04      	lsrs	r4, r0, #24
     fce:	3401      	adds	r4, #1
     fd0:	34ff      	adds	r4, #255	; 0xff
     fd2:	00a4      	lsls	r4, r4, #2
     fd4:	1914      	adds	r4, r2, r4
     fd6:	6aa4      	ldr	r4, [r4, #40]	; 0x28
     fd8:	401c      	ands	r4, r3
     fda:	00a4      	lsls	r4, r4, #2
     fdc:	46a0      	mov	r8, r4
     fde:	4488      	add	r8, r1
                    Td[3][Te[1][GETBYTE(rk[3], 0)] & 0xff];
     fe0:	001c      	movs	r4, r3
     fe2:	4004      	ands	r4, r0
     fe4:	3401      	adds	r4, #1
     fe6:	34ff      	adds	r4, #255	; 0xff
     fe8:	00a4      	lsls	r4, r4, #2
     fea:	1914      	adds	r4, r2, r4
     fec:	6aa4      	ldr	r4, [r4, #40]	; 0x28
     fee:	401c      	ands	r4, r3
     ff0:	444c      	add	r4, r9
     ff2:	00a4      	lsls	r4, r4, #2
     ff4:	190c      	adds	r4, r1, r4
                    Td[2][Te[1][GETBYTE(rk[3], 1)] & 0xff] ^
     ff6:	4646      	mov	r6, r8
     ff8:	6ab6      	ldr	r6, [r6, #40]	; 0x28
     ffa:	6aa4      	ldr	r4, [r4, #40]	; 0x28
     ffc:	4066      	eors	r6, r4
                    Td[1][Te[1][GETBYTE(rk[3], 2)] & 0xff] ^
     ffe:	0c04      	lsrs	r4, r0, #16
    1000:	401c      	ands	r4, r3
    1002:	3401      	adds	r4, #1
    1004:	34ff      	adds	r4, #255	; 0xff
    1006:	00a4      	lsls	r4, r4, #2
    1008:	1914      	adds	r4, r2, r4
    100a:	6aa4      	ldr	r4, [r4, #40]	; 0x28
    100c:	401c      	ands	r4, r3
    100e:	3401      	adds	r4, #1
    1010:	34ff      	adds	r4, #255	; 0xff
    1012:	00a4      	lsls	r4, r4, #2
    1014:	190c      	adds	r4, r1, r4
                    Td[2][Te[1][GETBYTE(rk[3], 1)] & 0xff] ^
    1016:	6aa4      	ldr	r4, [r4, #40]	; 0x28
    1018:	4074      	eors	r4, r6
    101a:	0a00      	lsrs	r0, r0, #8
    101c:	4018      	ands	r0, r3
    101e:	3001      	adds	r0, #1
    1020:	30ff      	adds	r0, #255	; 0xff
    1022:	0080      	lsls	r0, r0, #2
    1024:	1810      	adds	r0, r2, r0
    1026:	6a80      	ldr	r0, [r0, #40]	; 0x28
    1028:	4018      	ands	r0, r3
    102a:	2680      	movs	r6, #128	; 0x80
    102c:	00b6      	lsls	r6, r6, #2
    102e:	46b0      	mov	r8, r6
    1030:	4440      	add	r0, r8
    1032:	0080      	lsls	r0, r0, #2
    1034:	1808      	adds	r0, r1, r0
    1036:	6a80      	ldr	r0, [r0, #40]	; 0x28
    1038:	4044      	eors	r4, r0
                rk[3] =
    103a:	60ec      	str	r4, [r5, #12]
            for (i = 1; i < aes->rounds; i++) {
    103c:	3701      	adds	r7, #1
    103e:	4660      	mov	r0, ip
    1040:	4654      	mov	r4, sl
    1042:	5900      	ldr	r0, [r0, r4]
    1044:	4287      	cmp	r7, r0
    1046:	d200      	bcs.n	104a <wc_AesSetKey+0x55e>
    1048:	e710      	b.n	e6c <wc_AesSetKey+0x380>
    104a:	4667      	mov	r7, ip
    104c:	e6c9      	b.n	de2 <wc_AesSetKey+0x2f6>
            return BAD_FUNC_ARG;
    104e:	20ad      	movs	r0, #173	; 0xad
    1050:	4240      	negs	r0, r0
    1052:	e6ca      	b.n	dea <wc_AesSetKey+0x2fe>
    1054:	20ad      	movs	r0, #173	; 0xad
    1056:	4240      	negs	r0, r0
    1058:	e6c7      	b.n	dea <wc_AesSetKey+0x2fe>
    105a:	46c0      	nop			; (mov r8, r8)
    105c:	00002e7c 	.word	0x00002e7c
    1060:	00001e7c 	.word	0x00001e7c

00001064 <wc_AesCbcEncrypt>:

#else

    /* Software AES - CBC Encrypt */
    int wc_AesCbcEncrypt(Aes* aes, byte* out, const byte* in, word32 sz)
    {
    1064:	b5f0      	push	{r4, r5, r6, r7, lr}
    1066:	46de      	mov	lr, fp
    1068:	4657      	mov	r7, sl
    106a:	464e      	mov	r6, r9
    106c:	4645      	mov	r5, r8
    106e:	b5e0      	push	{r5, r6, r7, lr}
    1070:	b093      	sub	sp, #76	; 0x4c
    1072:	9001      	str	r0, [sp, #4]
    1074:	9106      	str	r1, [sp, #24]
    1076:	9202      	str	r2, [sp, #8]
        word32 blocks = (sz / AES_BLOCK_SIZE);
    1078:	091b      	lsrs	r3, r3, #4

        if (aes == NULL || out == NULL || in == NULL) {
    107a:	2800      	cmp	r0, #0
    107c:	d100      	bne.n	1080 <wc_AesCbcEncrypt+0x1c>
    107e:	e307      	b.n	1690 <wc_AesCbcEncrypt+0x62c>
    1080:	2900      	cmp	r1, #0
    1082:	d100      	bne.n	1086 <wc_AesCbcEncrypt+0x22>
    1084:	e307      	b.n	1696 <wc_AesCbcEncrypt+0x632>
    1086:	2a00      	cmp	r2, #0
    1088:	d100      	bne.n	108c <wc_AesCbcEncrypt+0x28>
    108a:	e307      	b.n	169c <wc_AesCbcEncrypt+0x638>

            return 0;
        }
    #endif

        while (blocks--) {
    108c:	1e5a      	subs	r2, r3, #1
    108e:	9205      	str	r2, [sp, #20]
    1090:	2b00      	cmp	r3, #0
    1092:	d100      	bne.n	1096 <wc_AesCbcEncrypt+0x32>
    1094:	e305      	b.n	16a2 <wc_AesCbcEncrypt+0x63e>
            Te[0][GETBYTE(t0, 3)] ^
    1096:	4eed      	ldr	r6, [pc, #948]	; (144c <wc_AesCbcEncrypt+0x3e8>)
    1098:	e021      	b.n	10de <wc_AesCbcEncrypt+0x7a>
}


WC_STATIC WC_INLINE void xorbuf(void* buf, const void* mask, word32 count)
{
    if (((wolfssl_word)buf | (wolfssl_word)mask | count) % WOLFSSL_WORD_SIZE == 0)
    109a:	2300      	movs	r3, #0
    109c:	9904      	ldr	r1, [sp, #16]
    109e:	9c02      	ldr	r4, [sp, #8]
    else {
        word32 i;
        byte*       b = (byte*)buf;
        const byte* m = (const byte*)mask;

        for (i = 0; i < count; i++) b[i] ^= m[i];
    10a0:	5cca      	ldrb	r2, [r1, r3]
    10a2:	5ce0      	ldrb	r0, [r4, r3]
    10a4:	4042      	eors	r2, r0
    10a6:	54ca      	strb	r2, [r1, r3]
    10a8:	3301      	adds	r3, #1
    10aa:	2b10      	cmp	r3, #16
    10ac:	d1f8      	bne.n	10a0 <wc_AesCbcEncrypt+0x3c>
    word32 r = aes->rounds >> 1;
    10ae:	23f0      	movs	r3, #240	; 0xf0
    10b0:	9a01      	ldr	r2, [sp, #4]
    10b2:	58d4      	ldr	r4, [r2, r3]
    10b4:	0864      	lsrs	r4, r4, #1
    if (r > 7 || r == 0) {
    10b6:	1e63      	subs	r3, r4, #1
    10b8:	2b06      	cmp	r3, #6
    10ba:	d923      	bls.n	1104 <wc_AesCbcEncrypt+0xa0>
            xorbuf((byte*)aes->reg, in, AES_BLOCK_SIZE);
            wc_AesEncrypt(aes, (byte*)aes->reg, (byte*)aes->reg);
            XMEMCPY(out, aes->reg, AES_BLOCK_SIZE);
    10bc:	2210      	movs	r2, #16
    10be:	9904      	ldr	r1, [sp, #16]
    10c0:	9c06      	ldr	r4, [sp, #24]
    10c2:	0020      	movs	r0, r4
    10c4:	4be2      	ldr	r3, [pc, #904]	; (1450 <wc_AesCbcEncrypt+0x3ec>)
    10c6:	4798      	blx	r3

            out += AES_BLOCK_SIZE;
    10c8:	0023      	movs	r3, r4
    10ca:	3310      	adds	r3, #16
    10cc:	9306      	str	r3, [sp, #24]
            in  += AES_BLOCK_SIZE;
    10ce:	9b02      	ldr	r3, [sp, #8]
    10d0:	3310      	adds	r3, #16
    10d2:	9302      	str	r3, [sp, #8]
        while (blocks--) {
    10d4:	9b05      	ldr	r3, [sp, #20]
    10d6:	1e5a      	subs	r2, r3, #1
    10d8:	9205      	str	r2, [sp, #20]
    10da:	d200      	bcs.n	10de <wc_AesCbcEncrypt+0x7a>
    10dc:	e2d0      	b.n	1680 <wc_AesCbcEncrypt+0x61c>
            xorbuf((byte*)aes->reg, in, AES_BLOCK_SIZE);
    10de:	9b01      	ldr	r3, [sp, #4]
    10e0:	33f8      	adds	r3, #248	; 0xf8
    10e2:	001a      	movs	r2, r3
    10e4:	9304      	str	r3, [sp, #16]
    if (((wolfssl_word)buf | (wolfssl_word)mask | count) % WOLFSSL_WORD_SIZE == 0)
    10e6:	9802      	ldr	r0, [sp, #8]
    10e8:	0003      	movs	r3, r0
    10ea:	4313      	orrs	r3, r2
    10ec:	079b      	lsls	r3, r3, #30
    10ee:	d1d4      	bne.n	109a <wc_AesCbcEncrypt+0x36>
    10f0:	2300      	movs	r3, #0
    10f2:	0011      	movs	r1, r2
    for (i = 0; i < n; i++) r[i] ^= a[i];
    10f4:	58ca      	ldr	r2, [r1, r3]
    10f6:	58c4      	ldr	r4, [r0, r3]
    10f8:	4062      	eors	r2, r4
    10fa:	50ca      	str	r2, [r1, r3]
    10fc:	3304      	adds	r3, #4
    10fe:	2b10      	cmp	r3, #16
    1100:	d1f8      	bne.n	10f4 <wc_AesCbcEncrypt+0x90>
    1102:	e7d4      	b.n	10ae <wc_AesCbcEncrypt+0x4a>
    XMEMCPY(&s0, inBlock,                  sizeof(s0));
    1104:	2204      	movs	r2, #4
    1106:	9904      	ldr	r1, [sp, #16]
    1108:	a80e      	add	r0, sp, #56	; 0x38
    110a:	4bd1      	ldr	r3, [pc, #836]	; (1450 <wc_AesCbcEncrypt+0x3ec>)
    110c:	4798      	blx	r3
    XMEMCPY(&s1, inBlock + sizeof(s0),     sizeof(s1));
    110e:	9d01      	ldr	r5, [sp, #4]
    1110:	002b      	movs	r3, r5
    1112:	33fc      	adds	r3, #252	; 0xfc
    1114:	0019      	movs	r1, r3
    1116:	9308      	str	r3, [sp, #32]
    1118:	2204      	movs	r2, #4
    111a:	a80f      	add	r0, sp, #60	; 0x3c
    111c:	4bcc      	ldr	r3, [pc, #816]	; (1450 <wc_AesCbcEncrypt+0x3ec>)
    111e:	4798      	blx	r3
    XMEMCPY(&s2, inBlock + 2 * sizeof(s0), sizeof(s2));
    1120:	002b      	movs	r3, r5
    1122:	3301      	adds	r3, #1
    1124:	33ff      	adds	r3, #255	; 0xff
    1126:	9309      	str	r3, [sp, #36]	; 0x24
    1128:	2204      	movs	r2, #4
    112a:	0019      	movs	r1, r3
    112c:	a810      	add	r0, sp, #64	; 0x40
    112e:	4bc8      	ldr	r3, [pc, #800]	; (1450 <wc_AesCbcEncrypt+0x3ec>)
    1130:	4798      	blx	r3
    XMEMCPY(&s3, inBlock + 3 * sizeof(s0), sizeof(s3));
    1132:	9501      	str	r5, [sp, #4]
    1134:	1d6a      	adds	r2, r5, #5
    1136:	32ff      	adds	r2, #255	; 0xff
    1138:	0011      	movs	r1, r2
    113a:	920a      	str	r2, [sp, #40]	; 0x28
    113c:	2204      	movs	r2, #4
    113e:	a811      	add	r0, sp, #68	; 0x44
    1140:	4fc3      	ldr	r7, [pc, #780]	; (1450 <wc_AesCbcEncrypt+0x3ec>)
    1142:	47b8      	blx	r7
    s0 = ByteReverseWord32(s0);
    1144:	9a0e      	ldr	r2, [sp, #56]	; 0x38
    s1 = ByteReverseWord32(s1);
    1146:	9d0f      	ldr	r5, [sp, #60]	; 0x3c
    s2 = ByteReverseWord32(s2);
    1148:	9910      	ldr	r1, [sp, #64]	; 0x40
    value = ((value & 0xFF00FF00) >> 8) | ((value & 0x00FF00FF) << 8);
    114a:	0a10      	lsrs	r0, r2, #8
    114c:	4bc1      	ldr	r3, [pc, #772]	; (1454 <wc_AesCbcEncrypt+0x3f0>)
    114e:	4018      	ands	r0, r3
    1150:	0212      	lsls	r2, r2, #8
    1152:	4fc1      	ldr	r7, [pc, #772]	; (1458 <wc_AesCbcEncrypt+0x3f4>)
    1154:	46b9      	mov	r9, r7
    1156:	403a      	ands	r2, r7
    1158:	4302      	orrs	r2, r0
        return (x << y) | (x >> (sizeof(y) * 8 - y));
    115a:	2710      	movs	r7, #16
    115c:	41fa      	rors	r2, r7
    s0 ^= rk[0];
    115e:	9801      	ldr	r0, [sp, #4]
    1160:	6800      	ldr	r0, [r0, #0]
    1162:	4042      	eors	r2, r0
    1164:	4693      	mov	fp, r2
    value = ((value & 0xFF00FF00) >> 8) | ((value & 0x00FF00FF) << 8);
    1166:	0a28      	lsrs	r0, r5, #8
    1168:	4018      	ands	r0, r3
    116a:	022d      	lsls	r5, r5, #8
    116c:	464a      	mov	r2, r9
    116e:	4015      	ands	r5, r2
    1170:	4328      	orrs	r0, r5
        return (x << y) | (x >> (sizeof(y) * 8 - y));
    1172:	41f8      	rors	r0, r7
    s1 ^= rk[1];
    1174:	9d01      	ldr	r5, [sp, #4]
    1176:	686a      	ldr	r2, [r5, #4]
    1178:	4050      	eors	r0, r2
    value = ((value & 0xFF00FF00) >> 8) | ((value & 0x00FF00FF) << 8);
    117a:	0a0d      	lsrs	r5, r1, #8
    117c:	401d      	ands	r5, r3
    117e:	0209      	lsls	r1, r1, #8
    1180:	464a      	mov	r2, r9
    1182:	4011      	ands	r1, r2
    1184:	430d      	orrs	r5, r1
        return (x << y) | (x >> (sizeof(y) * 8 - y));
    1186:	41fd      	rors	r5, r7
    s2 ^= rk[2];
    1188:	9901      	ldr	r1, [sp, #4]
    118a:	688a      	ldr	r2, [r1, #8]
    118c:	4055      	eors	r5, r2
    value = ((value & 0xFF00FF00) >> 8) | ((value & 0x00FF00FF) << 8);
    118e:	9a11      	ldr	r2, [sp, #68]	; 0x44
    1190:	0a11      	lsrs	r1, r2, #8
    1192:	4019      	ands	r1, r3
    1194:	0213      	lsls	r3, r2, #8
    1196:	464a      	mov	r2, r9
    1198:	4013      	ands	r3, r2
    119a:	4319      	orrs	r1, r3
        return (x << y) | (x >> (sizeof(y) * 8 - y));
    119c:	41f9      	rors	r1, r7
    s3 ^= rk[3];
    119e:	9b01      	ldr	r3, [sp, #4]
    11a0:	68db      	ldr	r3, [r3, #12]
    11a2:	9300      	str	r3, [sp, #0]
    11a4:	404b      	eors	r3, r1
    11a6:	469c      	mov	ip, r3
    11a8:	2104      	movs	r1, #4
    11aa:	465a      	mov	r2, fp
    if (((wolfssl_word)buf | (wolfssl_word)mask | count) % WOLFSSL_WORD_SIZE == 0)
    11ac:	2320      	movs	r3, #32
    11ae:	3b01      	subs	r3, #1
        for (j = 0; j < 256; j += WC_CACHE_LINE_SZ/4) {
    11b0:	2b00      	cmp	r3, #0
    11b2:	d1fc      	bne.n	11ae <wc_AesCbcEncrypt+0x14a>
    11b4:	3901      	subs	r1, #1
    for (i = 0; i < 4; i++) {
    11b6:	2900      	cmp	r1, #0
    11b8:	d1f8      	bne.n	11ac <wc_AesCbcEncrypt+0x148>
    11ba:	4693      	mov	fp, r2
    const word32* rk = aes->key;
    11bc:	9901      	ldr	r1, [sp, #4]
    11be:	468a      	mov	sl, r1
    11c0:	0164      	lsls	r4, r4, #5
    11c2:	4454      	add	r4, sl
    11c4:	9407      	str	r4, [sp, #28]
            Te[0][GETBYTE(s0, 3)]  ^
    11c6:	4aa1      	ldr	r2, [pc, #644]	; (144c <wc_AesCbcEncrypt+0x3e8>)
    11c8:	4691      	mov	r9, r2
            Te[3][GETBYTE(s3, 0)]  ^
    11ca:	27ff      	movs	r7, #255	; 0xff
    11cc:	465a      	mov	r2, fp
    11ce:	9403      	str	r4, [sp, #12]
            Te[0][GETBYTE(s0, 3)]  ^
    11d0:	0e11      	lsrs	r1, r2, #24
    11d2:	0089      	lsls	r1, r1, #2
    11d4:	4449      	add	r1, r9
            Te[3][GETBYTE(s3, 0)]  ^
    11d6:	4663      	mov	r3, ip
    11d8:	403b      	ands	r3, r7
    11da:	24c0      	movs	r4, #192	; 0xc0
    11dc:	00a4      	lsls	r4, r4, #2
    11de:	46a3      	mov	fp, r4
    11e0:	445b      	add	r3, fp
    11e2:	009b      	lsls	r3, r3, #2
    11e4:	444b      	add	r3, r9
        t0 =
    11e6:	6a89      	ldr	r1, [r1, #40]	; 0x28
    11e8:	6a9b      	ldr	r3, [r3, #40]	; 0x28
    11ea:	4059      	eors	r1, r3
    11ec:	4653      	mov	r3, sl
    11ee:	691b      	ldr	r3, [r3, #16]
    11f0:	4059      	eors	r1, r3
            Te[1][GETBYTE(s1, 2)]  ^
    11f2:	0c03      	lsrs	r3, r0, #16
    11f4:	403b      	ands	r3, r7
    11f6:	3301      	adds	r3, #1
    11f8:	33ff      	adds	r3, #255	; 0xff
    11fa:	009b      	lsls	r3, r3, #2
    11fc:	444b      	add	r3, r9
        t0 =
    11fe:	6a9b      	ldr	r3, [r3, #40]	; 0x28
    1200:	4059      	eors	r1, r3
            Te[2][GETBYTE(s2, 1)]  ^
    1202:	0a2b      	lsrs	r3, r5, #8
    1204:	403b      	ands	r3, r7
    1206:	3c01      	subs	r4, #1
    1208:	3cff      	subs	r4, #255	; 0xff
    120a:	46a3      	mov	fp, r4
    120c:	445b      	add	r3, fp
    120e:	009b      	lsls	r3, r3, #2
    1210:	444b      	add	r3, r9
        t0 =
    1212:	6a9b      	ldr	r3, [r3, #40]	; 0x28
    1214:	4059      	eors	r1, r3
    1216:	9100      	str	r1, [sp, #0]
            Te[0][GETBYTE(s1, 3)]  ^
    1218:	0e03      	lsrs	r3, r0, #24
    121a:	009b      	lsls	r3, r3, #2
    121c:	444b      	add	r3, r9
            Te[3][GETBYTE(s0, 0)]  ^
    121e:	003c      	movs	r4, r7
    1220:	4014      	ands	r4, r2
    1222:	21c0      	movs	r1, #192	; 0xc0
    1224:	0089      	lsls	r1, r1, #2
    1226:	468b      	mov	fp, r1
    1228:	445c      	add	r4, fp
    122a:	00a4      	lsls	r4, r4, #2
    122c:	444c      	add	r4, r9
        t1 =
    122e:	6a9b      	ldr	r3, [r3, #40]	; 0x28
    1230:	6aa4      	ldr	r4, [r4, #40]	; 0x28
    1232:	4063      	eors	r3, r4
    1234:	4651      	mov	r1, sl
    1236:	6949      	ldr	r1, [r1, #20]
    1238:	404b      	eors	r3, r1
            Te[1][GETBYTE(s2, 2)]  ^
    123a:	0c2c      	lsrs	r4, r5, #16
    123c:	403c      	ands	r4, r7
    123e:	3401      	adds	r4, #1
    1240:	34ff      	adds	r4, #255	; 0xff
    1242:	00a4      	lsls	r4, r4, #2
    1244:	444c      	add	r4, r9
        t1 =
    1246:	6aa4      	ldr	r4, [r4, #40]	; 0x28
    1248:	4063      	eors	r3, r4
            Te[2][GETBYTE(s3, 1)]  ^
    124a:	4661      	mov	r1, ip
    124c:	0a0c      	lsrs	r4, r1, #8
    124e:	403c      	ands	r4, r7
    1250:	2180      	movs	r1, #128	; 0x80
    1252:	0089      	lsls	r1, r1, #2
    1254:	468b      	mov	fp, r1
    1256:	445c      	add	r4, fp
    1258:	00a4      	lsls	r4, r4, #2
    125a:	444c      	add	r4, r9
        t1 =
    125c:	6aa4      	ldr	r4, [r4, #40]	; 0x28
    125e:	4063      	eors	r3, r4
            Te[0][GETBYTE(s2, 3)] ^
    1260:	0e2c      	lsrs	r4, r5, #24
    1262:	00a4      	lsls	r4, r4, #2
    1264:	444c      	add	r4, r9
    1266:	46a3      	mov	fp, r4
            Te[3][GETBYTE(s1, 0)]  ^
    1268:	003c      	movs	r4, r7
    126a:	4004      	ands	r4, r0
    126c:	3101      	adds	r1, #1
    126e:	31ff      	adds	r1, #255	; 0xff
    1270:	4688      	mov	r8, r1
    1272:	4444      	add	r4, r8
    1274:	00a4      	lsls	r4, r4, #2
    1276:	444c      	add	r4, r9
        t2 =
    1278:	4659      	mov	r1, fp
    127a:	6a89      	ldr	r1, [r1, #40]	; 0x28
    127c:	6aa4      	ldr	r4, [r4, #40]	; 0x28
    127e:	404c      	eors	r4, r1
    1280:	4651      	mov	r1, sl
    1282:	6989      	ldr	r1, [r1, #24]
    1284:	4061      	eors	r1, r4
    1286:	468b      	mov	fp, r1
            Te[1][GETBYTE(s3, 2)]  ^
    1288:	4661      	mov	r1, ip
    128a:	0c0c      	lsrs	r4, r1, #16
    128c:	403c      	ands	r4, r7
    128e:	3401      	adds	r4, #1
    1290:	34ff      	adds	r4, #255	; 0xff
    1292:	00a4      	lsls	r4, r4, #2
    1294:	444c      	add	r4, r9
        t2 =
    1296:	6aa4      	ldr	r4, [r4, #40]	; 0x28
    1298:	4659      	mov	r1, fp
    129a:	4061      	eors	r1, r4
    129c:	468b      	mov	fp, r1
            Te[2][GETBYTE(s0, 1)]  ^
    129e:	0a14      	lsrs	r4, r2, #8
    12a0:	403c      	ands	r4, r7
    12a2:	2180      	movs	r1, #128	; 0x80
    12a4:	0089      	lsls	r1, r1, #2
    12a6:	4688      	mov	r8, r1
    12a8:	4444      	add	r4, r8
    12aa:	00a4      	lsls	r4, r4, #2
    12ac:	444c      	add	r4, r9
        t2 =
    12ae:	6aa4      	ldr	r4, [r4, #40]	; 0x28
    12b0:	4659      	mov	r1, fp
    12b2:	404c      	eors	r4, r1
            Te[0][GETBYTE(s3, 3)] ^
    12b4:	4661      	mov	r1, ip
    12b6:	0e09      	lsrs	r1, r1, #24
    12b8:	0089      	lsls	r1, r1, #2
    12ba:	468c      	mov	ip, r1
    12bc:	44cc      	add	ip, r9
            Te[3][GETBYTE(s2, 0)]  ^
    12be:	403d      	ands	r5, r7
    12c0:	21c0      	movs	r1, #192	; 0xc0
    12c2:	0089      	lsls	r1, r1, #2
    12c4:	4688      	mov	r8, r1
    12c6:	4445      	add	r5, r8
    12c8:	00ad      	lsls	r5, r5, #2
    12ca:	444d      	add	r5, r9
        t3 =
    12cc:	4661      	mov	r1, ip
    12ce:	6a89      	ldr	r1, [r1, #40]	; 0x28
    12d0:	6aad      	ldr	r5, [r5, #40]	; 0x28
    12d2:	404d      	eors	r5, r1
    12d4:	4651      	mov	r1, sl
    12d6:	69c9      	ldr	r1, [r1, #28]
    12d8:	4069      	eors	r1, r5
            Te[1][GETBYTE(s0, 2)]  ^
    12da:	0c15      	lsrs	r5, r2, #16
    12dc:	403d      	ands	r5, r7
    12de:	3501      	adds	r5, #1
    12e0:	35ff      	adds	r5, #255	; 0xff
    12e2:	00ad      	lsls	r5, r5, #2
    12e4:	444d      	add	r5, r9
        t3 =
    12e6:	6aaa      	ldr	r2, [r5, #40]	; 0x28
    12e8:	404a      	eors	r2, r1
            Te[2][GETBYTE(s1, 1)]  ^
    12ea:	0a00      	lsrs	r0, r0, #8
    12ec:	4038      	ands	r0, r7
    12ee:	2180      	movs	r1, #128	; 0x80
    12f0:	0089      	lsls	r1, r1, #2
    12f2:	468c      	mov	ip, r1
    12f4:	4460      	add	r0, ip
    12f6:	0080      	lsls	r0, r0, #2
    12f8:	4448      	add	r0, r9
        t3 =
    12fa:	6a80      	ldr	r0, [r0, #40]	; 0x28
    12fc:	4042      	eors	r2, r0
    12fe:	4694      	mov	ip, r2
        rk += 8;
    1300:	2220      	movs	r2, #32
    1302:	4690      	mov	r8, r2
    1304:	44c2      	add	sl, r8
        if (--r == 0) {
    1306:	9a03      	ldr	r2, [sp, #12]
    1308:	4592      	cmp	sl, r2
    130a:	d100      	bne.n	130e <wc_AesCbcEncrypt+0x2aa>
    130c:	e0a6      	b.n	145c <wc_AesCbcEncrypt+0x3f8>
            Te[0][GETBYTE(t0, 3)] ^
    130e:	9900      	ldr	r1, [sp, #0]
    1310:	0e0a      	lsrs	r2, r1, #24
    1312:	0092      	lsls	r2, r2, #2
    1314:	18b2      	adds	r2, r6, r2
            Te[3][GETBYTE(t3, 0)] ^
    1316:	4660      	mov	r0, ip
    1318:	4038      	ands	r0, r7
    131a:	21c0      	movs	r1, #192	; 0xc0
    131c:	0089      	lsls	r1, r1, #2
    131e:	4688      	mov	r8, r1
    1320:	4440      	add	r0, r8
    1322:	0080      	lsls	r0, r0, #2
    1324:	1830      	adds	r0, r6, r0
    1326:	6a92      	ldr	r2, [r2, #40]	; 0x28
    1328:	6a80      	ldr	r0, [r0, #40]	; 0x28
    132a:	4042      	eors	r2, r0
    132c:	4651      	mov	r1, sl
    132e:	6809      	ldr	r1, [r1, #0]
    1330:	404a      	eors	r2, r1
            Te[1][GETBYTE(t1, 2)] ^
    1332:	0c18      	lsrs	r0, r3, #16
    1334:	4038      	ands	r0, r7
    1336:	3001      	adds	r0, #1
    1338:	30ff      	adds	r0, #255	; 0xff
    133a:	0080      	lsls	r0, r0, #2
    133c:	1830      	adds	r0, r6, r0
            Te[3][GETBYTE(t3, 0)] ^
    133e:	6a80      	ldr	r0, [r0, #40]	; 0x28
    1340:	4042      	eors	r2, r0
            Te[2][GETBYTE(t2, 1)] ^
    1342:	0a20      	lsrs	r0, r4, #8
    1344:	4038      	ands	r0, r7
    1346:	2180      	movs	r1, #128	; 0x80
    1348:	0089      	lsls	r1, r1, #2
    134a:	4688      	mov	r8, r1
    134c:	4440      	add	r0, r8
    134e:	0080      	lsls	r0, r0, #2
    1350:	1830      	adds	r0, r6, r0
            Te[3][GETBYTE(t3, 0)] ^
    1352:	6a80      	ldr	r0, [r0, #40]	; 0x28
    1354:	4042      	eors	r2, r0
            Te[0][GETBYTE(t1, 3)] ^
    1356:	0e18      	lsrs	r0, r3, #24
    1358:	0080      	lsls	r0, r0, #2
    135a:	1830      	adds	r0, r6, r0
            Te[3][GETBYTE(t0, 0)] ^
    135c:	003d      	movs	r5, r7
    135e:	9900      	ldr	r1, [sp, #0]
    1360:	400d      	ands	r5, r1
    1362:	21c0      	movs	r1, #192	; 0xc0
    1364:	0089      	lsls	r1, r1, #2
    1366:	4688      	mov	r8, r1
    1368:	4445      	add	r5, r8
    136a:	00ad      	lsls	r5, r5, #2
    136c:	1975      	adds	r5, r6, r5
    136e:	6a80      	ldr	r0, [r0, #40]	; 0x28
    1370:	6aad      	ldr	r5, [r5, #40]	; 0x28
    1372:	4068      	eors	r0, r5
    1374:	4651      	mov	r1, sl
    1376:	6849      	ldr	r1, [r1, #4]
    1378:	4048      	eors	r0, r1
            Te[1][GETBYTE(t2, 2)] ^
    137a:	0c25      	lsrs	r5, r4, #16
    137c:	403d      	ands	r5, r7
    137e:	3501      	adds	r5, #1
    1380:	35ff      	adds	r5, #255	; 0xff
    1382:	00ad      	lsls	r5, r5, #2
    1384:	1975      	adds	r5, r6, r5
            Te[3][GETBYTE(t0, 0)] ^
    1386:	6aad      	ldr	r5, [r5, #40]	; 0x28
    1388:	4068      	eors	r0, r5
            Te[2][GETBYTE(t3, 1)] ^
    138a:	4661      	mov	r1, ip
    138c:	0a0d      	lsrs	r5, r1, #8
    138e:	403d      	ands	r5, r7
    1390:	2180      	movs	r1, #128	; 0x80
    1392:	0089      	lsls	r1, r1, #2
    1394:	4688      	mov	r8, r1
    1396:	4445      	add	r5, r8
    1398:	00ad      	lsls	r5, r5, #2
    139a:	1975      	adds	r5, r6, r5
            Te[3][GETBYTE(t0, 0)] ^
    139c:	6aad      	ldr	r5, [r5, #40]	; 0x28
    139e:	4068      	eors	r0, r5
            Te[0][GETBYTE(t2, 3)] ^
    13a0:	0e25      	lsrs	r5, r4, #24
    13a2:	00ad      	lsls	r5, r5, #2
    13a4:	46ab      	mov	fp, r5
    13a6:	44b3      	add	fp, r6
            Te[3][GETBYTE(t1, 0)] ^
    13a8:	003d      	movs	r5, r7
    13aa:	401d      	ands	r5, r3
    13ac:	3101      	adds	r1, #1
    13ae:	31ff      	adds	r1, #255	; 0xff
    13b0:	4688      	mov	r8, r1
    13b2:	4445      	add	r5, r8
    13b4:	00ad      	lsls	r5, r5, #2
    13b6:	1975      	adds	r5, r6, r5
    13b8:	4659      	mov	r1, fp
    13ba:	6a89      	ldr	r1, [r1, #40]	; 0x28
    13bc:	6aad      	ldr	r5, [r5, #40]	; 0x28
    13be:	404d      	eors	r5, r1
    13c0:	4651      	mov	r1, sl
    13c2:	6889      	ldr	r1, [r1, #8]
    13c4:	4069      	eors	r1, r5
    13c6:	468b      	mov	fp, r1
            Te[1][GETBYTE(t3, 2)] ^
    13c8:	4661      	mov	r1, ip
    13ca:	0c0d      	lsrs	r5, r1, #16
    13cc:	403d      	ands	r5, r7
    13ce:	3501      	adds	r5, #1
    13d0:	35ff      	adds	r5, #255	; 0xff
    13d2:	00ad      	lsls	r5, r5, #2
    13d4:	1975      	adds	r5, r6, r5
            Te[3][GETBYTE(t1, 0)] ^
    13d6:	6aad      	ldr	r5, [r5, #40]	; 0x28
    13d8:	4659      	mov	r1, fp
    13da:	4069      	eors	r1, r5
    13dc:	468b      	mov	fp, r1
            Te[2][GETBYTE(t0, 1)] ^
    13de:	9900      	ldr	r1, [sp, #0]
    13e0:	0a0d      	lsrs	r5, r1, #8
    13e2:	403d      	ands	r5, r7
    13e4:	2180      	movs	r1, #128	; 0x80
    13e6:	0089      	lsls	r1, r1, #2
    13e8:	4688      	mov	r8, r1
    13ea:	4445      	add	r5, r8
    13ec:	00ad      	lsls	r5, r5, #2
    13ee:	1975      	adds	r5, r6, r5
            Te[3][GETBYTE(t1, 0)] ^
    13f0:	6aad      	ldr	r5, [r5, #40]	; 0x28
    13f2:	4659      	mov	r1, fp
    13f4:	404d      	eors	r5, r1
            Te[0][GETBYTE(t3, 3)] ^
    13f6:	4661      	mov	r1, ip
    13f8:	0e09      	lsrs	r1, r1, #24
    13fa:	0089      	lsls	r1, r1, #2
    13fc:	468c      	mov	ip, r1
    13fe:	44b4      	add	ip, r6
            Te[3][GETBYTE(t2, 0)] ^
    1400:	403c      	ands	r4, r7
    1402:	21c0      	movs	r1, #192	; 0xc0
    1404:	0089      	lsls	r1, r1, #2
    1406:	4688      	mov	r8, r1
    1408:	4444      	add	r4, r8
    140a:	00a4      	lsls	r4, r4, #2
    140c:	1934      	adds	r4, r6, r4
    140e:	4661      	mov	r1, ip
    1410:	6a89      	ldr	r1, [r1, #40]	; 0x28
    1412:	6aa4      	ldr	r4, [r4, #40]	; 0x28
    1414:	404c      	eors	r4, r1
    1416:	4651      	mov	r1, sl
    1418:	68c9      	ldr	r1, [r1, #12]
    141a:	4061      	eors	r1, r4
    141c:	468c      	mov	ip, r1
            Te[1][GETBYTE(t0, 2)] ^
    141e:	9900      	ldr	r1, [sp, #0]
    1420:	0c0c      	lsrs	r4, r1, #16
    1422:	403c      	ands	r4, r7
    1424:	3401      	adds	r4, #1
    1426:	34ff      	adds	r4, #255	; 0xff
    1428:	00a4      	lsls	r4, r4, #2
    142a:	1934      	adds	r4, r6, r4
            Te[3][GETBYTE(t2, 0)] ^
    142c:	6aa1      	ldr	r1, [r4, #40]	; 0x28
    142e:	4664      	mov	r4, ip
    1430:	4061      	eors	r1, r4
            Te[2][GETBYTE(t1, 1)] ^
    1432:	0a1b      	lsrs	r3, r3, #8
    1434:	403b      	ands	r3, r7
    1436:	2480      	movs	r4, #128	; 0x80
    1438:	00a4      	lsls	r4, r4, #2
    143a:	46a4      	mov	ip, r4
    143c:	4463      	add	r3, ip
    143e:	009b      	lsls	r3, r3, #2
    1440:	18f3      	adds	r3, r6, r3
            Te[3][GETBYTE(t2, 0)] ^
    1442:	6a9b      	ldr	r3, [r3, #40]	; 0x28
    1444:	4059      	eors	r1, r3
    1446:	468c      	mov	ip, r1
    1448:	e6c2      	b.n	11d0 <wc_AesCbcEncrypt+0x16c>
    144a:	46c0      	nop			; (mov r8, r8)
    144c:	00001e7c 	.word	0x00001e7c
    1450:	00001c89 	.word	0x00001c89
    1454:	00ff00ff 	.word	0x00ff00ff
    1458:	ff00ff00 	.word	0xff00ff00
    145c:	4699      	mov	r9, r3
        (Te[1][GETBYTE(t3, 0)] & 0x000000ff) ^
    145e:	4892      	ldr	r0, [pc, #584]	; (16a8 <wc_AesCbcEncrypt+0x644>)
    1460:	22ff      	movs	r2, #255	; 0xff
    1462:	4665      	mov	r5, ip
    1464:	4015      	ands	r5, r2
    1466:	3501      	adds	r5, #1
    1468:	35ff      	adds	r5, #255	; 0xff
    146a:	00ad      	lsls	r5, r5, #2
    146c:	1945      	adds	r5, r0, r5
    146e:	6aad      	ldr	r5, [r5, #40]	; 0x28
    1470:	4015      	ands	r5, r2
    1472:	9f07      	ldr	r7, [sp, #28]
    1474:	683b      	ldr	r3, [r7, #0]
    1476:	405d      	eors	r5, r3
        (Te[0][GETBYTE(t2, 1)] & 0x0000ff00) ^
    1478:	0a23      	lsrs	r3, r4, #8
    147a:	4013      	ands	r3, r2
    147c:	009b      	lsls	r3, r3, #2
    147e:	4698      	mov	r8, r3
    1480:	4480      	add	r8, r0
    1482:	4643      	mov	r3, r8
    1484:	6a9b      	ldr	r3, [r3, #40]	; 0x28
    1486:	4698      	mov	r8, r3
    1488:	23ff      	movs	r3, #255	; 0xff
    148a:	021b      	lsls	r3, r3, #8
    148c:	0019      	movs	r1, r3
    148e:	4643      	mov	r3, r8
    1490:	9107      	str	r1, [sp, #28]
    1492:	400b      	ands	r3, r1
        (Te[1][GETBYTE(t3, 0)] & 0x000000ff) ^
    1494:	405d      	eors	r5, r3
        (Te[3][GETBYTE(t1, 2)] & 0x00ff0000) ^
    1496:	464b      	mov	r3, r9
    1498:	9303      	str	r3, [sp, #12]
    149a:	0c1b      	lsrs	r3, r3, #16
    149c:	4013      	ands	r3, r2
    149e:	4698      	mov	r8, r3
    14a0:	23c0      	movs	r3, #192	; 0xc0
    14a2:	009b      	lsls	r3, r3, #2
    14a4:	4699      	mov	r9, r3
    14a6:	44c8      	add	r8, r9
    14a8:	4643      	mov	r3, r8
    14aa:	009b      	lsls	r3, r3, #2
    14ac:	4698      	mov	r8, r3
    14ae:	4480      	add	r8, r0
    14b0:	4643      	mov	r3, r8
    14b2:	6a9b      	ldr	r3, [r3, #40]	; 0x28
    14b4:	4699      	mov	r9, r3
    14b6:	23ff      	movs	r3, #255	; 0xff
    14b8:	041b      	lsls	r3, r3, #16
    14ba:	469b      	mov	fp, r3
    14bc:	464b      	mov	r3, r9
    14be:	4659      	mov	r1, fp
    14c0:	400b      	ands	r3, r1
    14c2:	4699      	mov	r9, r3
        (Te[2][GETBYTE(t0, 3)] & 0xff000000) ^
    14c4:	9b00      	ldr	r3, [sp, #0]
    14c6:	0e1b      	lsrs	r3, r3, #24
    14c8:	4698      	mov	r8, r3
    14ca:	2380      	movs	r3, #128	; 0x80
    14cc:	009b      	lsls	r3, r3, #2
    14ce:	469a      	mov	sl, r3
    14d0:	44d0      	add	r8, sl
    14d2:	4643      	mov	r3, r8
    14d4:	009b      	lsls	r3, r3, #2
    14d6:	4698      	mov	r8, r3
    14d8:	4480      	add	r8, r0
    14da:	4643      	mov	r3, r8
    14dc:	6a9b      	ldr	r3, [r3, #40]	; 0x28
    14de:	0e1b      	lsrs	r3, r3, #24
    14e0:	061b      	lsls	r3, r3, #24
    14e2:	4698      	mov	r8, r3
    14e4:	464b      	mov	r3, r9
    14e6:	4641      	mov	r1, r8
    14e8:	430b      	orrs	r3, r1
        (Te[1][GETBYTE(t3, 0)] & 0x000000ff) ^
    14ea:	406b      	eors	r3, r5
    14ec:	930b      	str	r3, [sp, #44]	; 0x2c
        (Te[1][GETBYTE(t0, 0)] & 0x000000ff) ^
    14ee:	0015      	movs	r5, r2
    14f0:	9b00      	ldr	r3, [sp, #0]
    14f2:	401d      	ands	r5, r3
    14f4:	3501      	adds	r5, #1
    14f6:	35ff      	adds	r5, #255	; 0xff
    14f8:	00ad      	lsls	r5, r5, #2
    14fa:	1945      	adds	r5, r0, r5
    14fc:	6aad      	ldr	r5, [r5, #40]	; 0x28
    14fe:	4015      	ands	r5, r2
    1500:	6879      	ldr	r1, [r7, #4]
    1502:	000b      	movs	r3, r1
    1504:	406b      	eors	r3, r5
        (Te[0][GETBYTE(t3, 1)] & 0x0000ff00) ^
    1506:	4661      	mov	r1, ip
    1508:	0a0d      	lsrs	r5, r1, #8
    150a:	4015      	ands	r5, r2
    150c:	00ad      	lsls	r5, r5, #2
    150e:	1945      	adds	r5, r0, r5
    1510:	6aad      	ldr	r5, [r5, #40]	; 0x28
    1512:	9907      	ldr	r1, [sp, #28]
    1514:	400d      	ands	r5, r1
        (Te[1][GETBYTE(t0, 0)] & 0x000000ff) ^
    1516:	405d      	eors	r5, r3
        (Te[3][GETBYTE(t2, 2)] & 0x00ff0000) ^
    1518:	0c21      	lsrs	r1, r4, #16
    151a:	000b      	movs	r3, r1
    151c:	4013      	ands	r3, r2
    151e:	4698      	mov	r8, r3
    1520:	21c0      	movs	r1, #192	; 0xc0
    1522:	0089      	lsls	r1, r1, #2
    1524:	4689      	mov	r9, r1
    1526:	44c8      	add	r8, r9
    1528:	4641      	mov	r1, r8
    152a:	0089      	lsls	r1, r1, #2
    152c:	4688      	mov	r8, r1
    152e:	4480      	add	r8, r0
    1530:	4641      	mov	r1, r8
    1532:	6a89      	ldr	r1, [r1, #40]	; 0x28
    1534:	000b      	movs	r3, r1
    1536:	4659      	mov	r1, fp
    1538:	400b      	ands	r3, r1
        (Te[2][GETBYTE(t1, 3)] & 0xff000000) ^
    153a:	9903      	ldr	r1, [sp, #12]
    153c:	0e09      	lsrs	r1, r1, #24
    153e:	4688      	mov	r8, r1
    1540:	44d0      	add	r8, sl
    1542:	4641      	mov	r1, r8
    1544:	0089      	lsls	r1, r1, #2
    1546:	4688      	mov	r8, r1
    1548:	4480      	add	r8, r0
    154a:	4641      	mov	r1, r8
    154c:	6a89      	ldr	r1, [r1, #40]	; 0x28
    154e:	0e09      	lsrs	r1, r1, #24
    1550:	0609      	lsls	r1, r1, #24
    1552:	430b      	orrs	r3, r1
        (Te[1][GETBYTE(t0, 0)] & 0x000000ff) ^
    1554:	406b      	eors	r3, r5
    1556:	930c      	str	r3, [sp, #48]	; 0x30
        (Te[1][GETBYTE(t1, 0)] & 0x000000ff) ^
    1558:	0015      	movs	r5, r2
    155a:	9903      	ldr	r1, [sp, #12]
    155c:	400d      	ands	r5, r1
    155e:	3501      	adds	r5, #1
    1560:	35ff      	adds	r5, #255	; 0xff
    1562:	00ad      	lsls	r5, r5, #2
    1564:	1945      	adds	r5, r0, r5
    1566:	6aad      	ldr	r5, [r5, #40]	; 0x28
    1568:	4015      	ands	r5, r2
    156a:	68b9      	ldr	r1, [r7, #8]
    156c:	910d      	str	r1, [sp, #52]	; 0x34
    156e:	000b      	movs	r3, r1
    1570:	406b      	eors	r3, r5
    1572:	4698      	mov	r8, r3
        (Te[0][GETBYTE(t0, 1)] & 0x0000ff00) ^
    1574:	9b00      	ldr	r3, [sp, #0]
    1576:	0a1d      	lsrs	r5, r3, #8
    1578:	4015      	ands	r5, r2
    157a:	00ad      	lsls	r5, r5, #2
    157c:	1945      	adds	r5, r0, r5
    157e:	6aad      	ldr	r5, [r5, #40]	; 0x28
    1580:	9907      	ldr	r1, [sp, #28]
    1582:	400d      	ands	r5, r1
        (Te[1][GETBYTE(t1, 0)] & 0x000000ff) ^
    1584:	4641      	mov	r1, r8
    1586:	404d      	eors	r5, r1
        (Te[3][GETBYTE(t3, 2)] & 0x00ff0000) ^
    1588:	4661      	mov	r1, ip
    158a:	0c09      	lsrs	r1, r1, #16
    158c:	000b      	movs	r3, r1
    158e:	4013      	ands	r3, r2
    1590:	4698      	mov	r8, r3
    1592:	21c0      	movs	r1, #192	; 0xc0
    1594:	0089      	lsls	r1, r1, #2
    1596:	4689      	mov	r9, r1
    1598:	44c8      	add	r8, r9
    159a:	4641      	mov	r1, r8
    159c:	0089      	lsls	r1, r1, #2
    159e:	4688      	mov	r8, r1
    15a0:	4480      	add	r8, r0
    15a2:	4641      	mov	r1, r8
    15a4:	6a89      	ldr	r1, [r1, #40]	; 0x28
    15a6:	000b      	movs	r3, r1
    15a8:	4659      	mov	r1, fp
    15aa:	400b      	ands	r3, r1
        (Te[2][GETBYTE(t2, 3)] & 0xff000000) ^
    15ac:	0e21      	lsrs	r1, r4, #24
    15ae:	4688      	mov	r8, r1
    15b0:	44d0      	add	r8, sl
    15b2:	4641      	mov	r1, r8
    15b4:	0089      	lsls	r1, r1, #2
    15b6:	4688      	mov	r8, r1
    15b8:	4480      	add	r8, r0
    15ba:	4641      	mov	r1, r8
    15bc:	6a89      	ldr	r1, [r1, #40]	; 0x28
    15be:	0e09      	lsrs	r1, r1, #24
    15c0:	0609      	lsls	r1, r1, #24
    15c2:	430b      	orrs	r3, r1
        (Te[1][GETBYTE(t1, 0)] & 0x000000ff) ^
    15c4:	406b      	eors	r3, r5
    15c6:	4699      	mov	r9, r3
        (Te[1][GETBYTE(t2, 0)] & 0x000000ff) ^
    15c8:	4014      	ands	r4, r2
    15ca:	3401      	adds	r4, #1
    15cc:	34ff      	adds	r4, #255	; 0xff
    15ce:	00a4      	lsls	r4, r4, #2
    15d0:	1904      	adds	r4, r0, r4
    15d2:	6aa4      	ldr	r4, [r4, #40]	; 0x28
    15d4:	4014      	ands	r4, r2
    15d6:	68fd      	ldr	r5, [r7, #12]
    15d8:	406c      	eors	r4, r5
        (Te[0][GETBYTE(t1, 1)] & 0x0000ff00) ^
    15da:	9903      	ldr	r1, [sp, #12]
    15dc:	0a0b      	lsrs	r3, r1, #8
    15de:	4013      	ands	r3, r2
    15e0:	009b      	lsls	r3, r3, #2
    15e2:	18c3      	adds	r3, r0, r3
    15e4:	6a9d      	ldr	r5, [r3, #40]	; 0x28
    15e6:	9907      	ldr	r1, [sp, #28]
    15e8:	400d      	ands	r5, r1
        (Te[1][GETBYTE(t2, 0)] & 0x000000ff) ^
    15ea:	4065      	eors	r5, r4
        (Te[3][GETBYTE(t0, 2)] & 0x00ff0000) ^
    15ec:	9b00      	ldr	r3, [sp, #0]
    15ee:	0c19      	lsrs	r1, r3, #16
    15f0:	4011      	ands	r1, r2
    15f2:	22c0      	movs	r2, #192	; 0xc0
    15f4:	0092      	lsls	r2, r2, #2
    15f6:	188b      	adds	r3, r1, r2
    15f8:	009b      	lsls	r3, r3, #2
    15fa:	18c3      	adds	r3, r0, r3
    15fc:	6a9b      	ldr	r3, [r3, #40]	; 0x28
    15fe:	465a      	mov	r2, fp
    1600:	4013      	ands	r3, r2
        (Te[2][GETBYTE(t3, 3)] & 0xff000000) ^
    1602:	4662      	mov	r2, ip
    1604:	0e12      	lsrs	r2, r2, #24
    1606:	4452      	add	r2, sl
    1608:	0092      	lsls	r2, r2, #2
    160a:	1880      	adds	r0, r0, r2
    160c:	6a84      	ldr	r4, [r0, #40]	; 0x28
    160e:	0e24      	lsrs	r4, r4, #24
    1610:	0624      	lsls	r4, r4, #24
    1612:	431c      	orrs	r4, r3
        (Te[1][GETBYTE(t2, 0)] & 0x000000ff) ^
    1614:	406c      	eors	r4, r5
    value = ((value & 0xFF00FF00) >> 8) | ((value & 0x00FF00FF) << 8);
    1616:	9b0b      	ldr	r3, [sp, #44]	; 0x2c
    1618:	0a1a      	lsrs	r2, r3, #8
    161a:	4924      	ldr	r1, [pc, #144]	; (16ac <wc_AesCbcEncrypt+0x648>)
    161c:	400a      	ands	r2, r1
    161e:	021b      	lsls	r3, r3, #8
    1620:	4823      	ldr	r0, [pc, #140]	; (16b0 <wc_AesCbcEncrypt+0x64c>)
    1622:	4003      	ands	r3, r0
    1624:	4313      	orrs	r3, r2
        return (x << y) | (x >> (sizeof(y) * 8 - y));
    1626:	2210      	movs	r2, #16
    1628:	41d3      	rors	r3, r2
    s0 = ByteReverseWord32(s0);
    162a:	930e      	str	r3, [sp, #56]	; 0x38
    value = ((value & 0xFF00FF00) >> 8) | ((value & 0x00FF00FF) << 8);
    162c:	9d0c      	ldr	r5, [sp, #48]	; 0x30
    162e:	0a2b      	lsrs	r3, r5, #8
    1630:	400b      	ands	r3, r1
    1632:	022d      	lsls	r5, r5, #8
    1634:	4005      	ands	r5, r0
    1636:	432b      	orrs	r3, r5
        return (x << y) | (x >> (sizeof(y) * 8 - y));
    1638:	41d3      	rors	r3, r2
    s1 = ByteReverseWord32(s1);
    163a:	930f      	str	r3, [sp, #60]	; 0x3c
    value = ((value & 0xFF00FF00) >> 8) | ((value & 0x00FF00FF) << 8);
    163c:	464b      	mov	r3, r9
    163e:	0a1b      	lsrs	r3, r3, #8
    1640:	400b      	ands	r3, r1
    1642:	464d      	mov	r5, r9
    1644:	022d      	lsls	r5, r5, #8
    1646:	4005      	ands	r5, r0
    1648:	432b      	orrs	r3, r5
        return (x << y) | (x >> (sizeof(y) * 8 - y));
    164a:	41d3      	rors	r3, r2
    s2 = ByteReverseWord32(s2);
    164c:	9310      	str	r3, [sp, #64]	; 0x40
    value = ((value & 0xFF00FF00) >> 8) | ((value & 0x00FF00FF) << 8);
    164e:	0a23      	lsrs	r3, r4, #8
    1650:	4019      	ands	r1, r3
    1652:	0224      	lsls	r4, r4, #8
    1654:	4020      	ands	r0, r4
    1656:	4301      	orrs	r1, r0
        return (x << y) | (x >> (sizeof(y) * 8 - y));
    1658:	41d1      	rors	r1, r2
    s3 = ByteReverseWord32(s3);
    165a:	9111      	str	r1, [sp, #68]	; 0x44
    XMEMCPY(outBlock,                  &s0, sizeof(s0));
    165c:	3a0c      	subs	r2, #12
    165e:	a90e      	add	r1, sp, #56	; 0x38
    1660:	9804      	ldr	r0, [sp, #16]
    1662:	4c14      	ldr	r4, [pc, #80]	; (16b4 <wc_AesCbcEncrypt+0x650>)
    1664:	47a0      	blx	r4
    XMEMCPY(outBlock + sizeof(s0),     &s1, sizeof(s1));
    1666:	2204      	movs	r2, #4
    1668:	a90f      	add	r1, sp, #60	; 0x3c
    166a:	9808      	ldr	r0, [sp, #32]
    166c:	47a0      	blx	r4
    XMEMCPY(outBlock + 2 * sizeof(s0), &s2, sizeof(s2));
    166e:	2204      	movs	r2, #4
    1670:	a910      	add	r1, sp, #64	; 0x40
    1672:	9809      	ldr	r0, [sp, #36]	; 0x24
    1674:	47a0      	blx	r4
    XMEMCPY(outBlock + 3 * sizeof(s0), &s3, sizeof(s3));
    1676:	2204      	movs	r2, #4
    1678:	a911      	add	r1, sp, #68	; 0x44
    167a:	980a      	ldr	r0, [sp, #40]	; 0x28
    167c:	47a0      	blx	r4
    167e:	e51d      	b.n	10bc <wc_AesCbcEncrypt+0x58>
        }

        return 0;
    1680:	2000      	movs	r0, #0
    }
    1682:	b013      	add	sp, #76	; 0x4c
    1684:	bc3c      	pop	{r2, r3, r4, r5}
    1686:	4690      	mov	r8, r2
    1688:	4699      	mov	r9, r3
    168a:	46a2      	mov	sl, r4
    168c:	46ab      	mov	fp, r5
    168e:	bdf0      	pop	{r4, r5, r6, r7, pc}
            return BAD_FUNC_ARG;
    1690:	20ad      	movs	r0, #173	; 0xad
    1692:	4240      	negs	r0, r0
    1694:	e7f5      	b.n	1682 <wc_AesCbcEncrypt+0x61e>
    1696:	20ad      	movs	r0, #173	; 0xad
    1698:	4240      	negs	r0, r0
    169a:	e7f2      	b.n	1682 <wc_AesCbcEncrypt+0x61e>
    169c:	20ad      	movs	r0, #173	; 0xad
    169e:	4240      	negs	r0, r0
    16a0:	e7ef      	b.n	1682 <wc_AesCbcEncrypt+0x61e>
        return 0;
    16a2:	2000      	movs	r0, #0
    16a4:	e7ed      	b.n	1682 <wc_AesCbcEncrypt+0x61e>
    16a6:	46c0      	nop			; (mov r8, r8)
    16a8:	00001e7c 	.word	0x00001e7c
    16ac:	00ff00ff 	.word	0x00ff00ff
    16b0:	ff00ff00 	.word	0xff00ff00
    16b4:	00001c89 	.word	0x00001c89

000016b8 <wc_AesCbcDecrypt>:

    #ifdef HAVE_AES_DECRYPT
    /* Software AES - CBC Decrypt */
    int wc_AesCbcDecrypt(Aes* aes, byte* out, const byte* in, word32 sz)
    {
    16b8:	b5f0      	push	{r4, r5, r6, r7, lr}
    16ba:	46de      	mov	lr, fp
    16bc:	4657      	mov	r7, sl
    16be:	464e      	mov	r6, r9
    16c0:	4645      	mov	r5, r8
    16c2:	b5e0      	push	{r5, r6, r7, lr}
    16c4:	b08f      	sub	sp, #60	; 0x3c
    16c6:	9001      	str	r0, [sp, #4]
    16c8:	468b      	mov	fp, r1
    16ca:	9204      	str	r2, [sp, #16]
        word32 blocks;

        if (aes == NULL || out == NULL || in == NULL
    16cc:	2800      	cmp	r0, #0
    16ce:	d100      	bne.n	16d2 <wc_AesCbcDecrypt+0x1a>
    16d0:	e28e      	b.n	1bf0 <wc_AesCbcDecrypt+0x538>
    16d2:	4659      	mov	r1, fp
    16d4:	2900      	cmp	r1, #0
    16d6:	d100      	bne.n	16da <wc_AesCbcDecrypt+0x22>
    16d8:	e28d      	b.n	1bf6 <wc_AesCbcDecrypt+0x53e>
    16da:	2a00      	cmp	r2, #0
    16dc:	d100      	bne.n	16e0 <wc_AesCbcDecrypt+0x28>
    16de:	e28d      	b.n	1bfc <wc_AesCbcDecrypt+0x544>
                                       || sz % AES_BLOCK_SIZE != 0) {
    16e0:	220f      	movs	r2, #15
    16e2:	401a      	ands	r2, r3
    16e4:	9207      	str	r2, [sp, #28]
    16e6:	d000      	beq.n	16ea <wc_AesCbcDecrypt+0x32>
    16e8:	e28b      	b.n	1c02 <wc_AesCbcDecrypt+0x54a>
            XMEMCPY(aes->reg, aes->tmp, AES_BLOCK_SIZE);
            return 0;
        }
    #endif

        blocks = sz / AES_BLOCK_SIZE;
    16ea:	091b      	lsrs	r3, r3, #4
        while (blocks--) {
    16ec:	1e5a      	subs	r2, r3, #1
    16ee:	9206      	str	r2, [sp, #24]
    16f0:	2b00      	cmp	r3, #0
    16f2:	d100      	bne.n	16f6 <wc_AesCbcDecrypt+0x3e>
    16f4:	e288      	b.n	1c08 <wc_AesCbcDecrypt+0x550>
            Td[0][GETBYTE(t0, 3)] ^
    16f6:	4cce      	ldr	r4, [pc, #824]	; (1a30 <wc_AesCbcDecrypt+0x378>)
        ((word32)Td4[GETBYTE(t1, 0)]) ^
    16f8:	4bce      	ldr	r3, [pc, #824]	; (1a34 <wc_AesCbcDecrypt+0x37c>)
    16fa:	3328      	adds	r3, #40	; 0x28
    16fc:	9309      	str	r3, [sp, #36]	; 0x24
    16fe:	9102      	str	r1, [sp, #8]
    1700:	e24d      	b.n	1b9e <wc_AesCbcDecrypt+0x4e6>
    XMEMCPY(&s0, inBlock,                  sizeof(s0));
    1702:	2204      	movs	r2, #4
    1704:	9905      	ldr	r1, [sp, #20]
    1706:	a80a      	add	r0, sp, #40	; 0x28
    1708:	4bcb      	ldr	r3, [pc, #812]	; (1a38 <wc_AesCbcDecrypt+0x380>)
    170a:	4798      	blx	r3
    XMEMCPY(&s1, inBlock + sizeof(s0),     sizeof(s1));
    170c:	9e01      	ldr	r6, [sp, #4]
    170e:	0031      	movs	r1, r6
    1710:	310d      	adds	r1, #13
    1712:	31ff      	adds	r1, #255	; 0xff
    1714:	2204      	movs	r2, #4
    1716:	a80b      	add	r0, sp, #44	; 0x2c
    1718:	4bc7      	ldr	r3, [pc, #796]	; (1a38 <wc_AesCbcDecrypt+0x380>)
    171a:	4798      	blx	r3
    XMEMCPY(&s2, inBlock + 2 * sizeof(s0), sizeof(s2));
    171c:	0031      	movs	r1, r6
    171e:	3111      	adds	r1, #17
    1720:	31ff      	adds	r1, #255	; 0xff
    1722:	2204      	movs	r2, #4
    1724:	a80c      	add	r0, sp, #48	; 0x30
    1726:	4bc4      	ldr	r3, [pc, #784]	; (1a38 <wc_AesCbcDecrypt+0x380>)
    1728:	4798      	blx	r3
    XMEMCPY(&s3, inBlock + 3 * sizeof(s0), sizeof(s3));
    172a:	9601      	str	r6, [sp, #4]
    172c:	0031      	movs	r1, r6
    172e:	3115      	adds	r1, #21
    1730:	31ff      	adds	r1, #255	; 0xff
    1732:	2204      	movs	r2, #4
    1734:	a80d      	add	r0, sp, #52	; 0x34
    1736:	4bc0      	ldr	r3, [pc, #768]	; (1a38 <wc_AesCbcDecrypt+0x380>)
    1738:	4798      	blx	r3
    s0 = ByteReverseWord32(s0);
    173a:	980a      	ldr	r0, [sp, #40]	; 0x28
    s1 = ByteReverseWord32(s1);
    173c:	990b      	ldr	r1, [sp, #44]	; 0x2c
    s2 = ByteReverseWord32(s2);
    173e:	9a0c      	ldr	r2, [sp, #48]	; 0x30
    value = ((value & 0xFF00FF00) >> 8) | ((value & 0x00FF00FF) << 8);
    1740:	0a06      	lsrs	r6, r0, #8
    1742:	4bbe      	ldr	r3, [pc, #760]	; (1a3c <wc_AesCbcDecrypt+0x384>)
    1744:	401e      	ands	r6, r3
    1746:	0200      	lsls	r0, r0, #8
    1748:	4fbd      	ldr	r7, [pc, #756]	; (1a40 <wc_AesCbcDecrypt+0x388>)
    174a:	46b9      	mov	r9, r7
    174c:	4038      	ands	r0, r7
    174e:	4306      	orrs	r6, r0
        return (x << y) | (x >> (sizeof(y) * 8 - y));
    1750:	2710      	movs	r7, #16
    1752:	41fe      	rors	r6, r7
    s0 ^= rk[0];
    1754:	9801      	ldr	r0, [sp, #4]
    1756:	6800      	ldr	r0, [r0, #0]
    1758:	4046      	eors	r6, r0
    175a:	9600      	str	r6, [sp, #0]
    value = ((value & 0xFF00FF00) >> 8) | ((value & 0x00FF00FF) << 8);
    175c:	0a08      	lsrs	r0, r1, #8
    175e:	4018      	ands	r0, r3
    1760:	0209      	lsls	r1, r1, #8
    1762:	464e      	mov	r6, r9
    1764:	4031      	ands	r1, r6
    1766:	4308      	orrs	r0, r1
        return (x << y) | (x >> (sizeof(y) * 8 - y));
    1768:	41f8      	rors	r0, r7
    s1 ^= rk[1];
    176a:	9901      	ldr	r1, [sp, #4]
    176c:	684e      	ldr	r6, [r1, #4]
    176e:	4070      	eors	r0, r6
    value = ((value & 0xFF00FF00) >> 8) | ((value & 0x00FF00FF) << 8);
    1770:	0a11      	lsrs	r1, r2, #8
    1772:	4019      	ands	r1, r3
    1774:	0212      	lsls	r2, r2, #8
    1776:	464e      	mov	r6, r9
    1778:	4032      	ands	r2, r6
    177a:	4311      	orrs	r1, r2
        return (x << y) | (x >> (sizeof(y) * 8 - y));
    177c:	41f9      	rors	r1, r7
    s2 ^= rk[2];
    177e:	9a01      	ldr	r2, [sp, #4]
    1780:	6896      	ldr	r6, [r2, #8]
    1782:	4071      	eors	r1, r6
    value = ((value & 0xFF00FF00) >> 8) | ((value & 0x00FF00FF) << 8);
    1784:	9e0d      	ldr	r6, [sp, #52]	; 0x34
    1786:	0a32      	lsrs	r2, r6, #8
    1788:	401a      	ands	r2, r3
    178a:	0233      	lsls	r3, r6, #8
    178c:	464e      	mov	r6, r9
    178e:	4033      	ands	r3, r6
    1790:	431a      	orrs	r2, r3
        return (x << y) | (x >> (sizeof(y) * 8 - y));
    1792:	41fa      	rors	r2, r7
    s3 ^= rk[3];
    1794:	9b01      	ldr	r3, [sp, #4]
    1796:	68db      	ldr	r3, [r3, #12]
    1798:	9303      	str	r3, [sp, #12]
    179a:	4053      	eors	r3, r2
    179c:	4698      	mov	r8, r3
    179e:	2204      	movs	r2, #4
    17a0:	9e00      	ldr	r6, [sp, #0]
    {
    17a2:	2320      	movs	r3, #32
    17a4:	3b01      	subs	r3, #1
        for (j = 0; j < 256; j += WC_CACHE_LINE_SZ/4) {
    17a6:	2b00      	cmp	r3, #0
    17a8:	d1fc      	bne.n	17a4 <wc_AesCbcDecrypt+0xec>
    17aa:	3a01      	subs	r2, #1
    for (i = 0; i < 4; i++) {
    17ac:	2a00      	cmp	r2, #0
    17ae:	d1f8      	bne.n	17a2 <wc_AesCbcDecrypt+0xea>
    17b0:	9600      	str	r6, [sp, #0]
    const word32* rk = aes->key;
    17b2:	9a01      	ldr	r2, [sp, #4]
    17b4:	4693      	mov	fp, r2
    17b6:	016d      	lsls	r5, r5, #5
    17b8:	445d      	add	r5, fp
    17ba:	9508      	str	r5, [sp, #32]
            Td[0][GETBYTE(s0, 3)] ^
    17bc:	4b9c      	ldr	r3, [pc, #624]	; (1a30 <wc_AesCbcDecrypt+0x378>)
    17be:	469a      	mov	sl, r3
            Td[3][GETBYTE(s1, 0)] ^
    17c0:	27ff      	movs	r7, #255	; 0xff
    17c2:	4643      	mov	r3, r8
    17c4:	9503      	str	r5, [sp, #12]
            Td[0][GETBYTE(s0, 3)] ^
    17c6:	9e00      	ldr	r6, [sp, #0]
    17c8:	0e32      	lsrs	r2, r6, #24
    17ca:	0092      	lsls	r2, r2, #2
    17cc:	4452      	add	r2, sl
            Td[3][GETBYTE(s1, 0)] ^
    17ce:	003d      	movs	r5, r7
    17d0:	4005      	ands	r5, r0
    17d2:	26c0      	movs	r6, #192	; 0xc0
    17d4:	00b6      	lsls	r6, r6, #2
    17d6:	46b4      	mov	ip, r6
    17d8:	4465      	add	r5, ip
    17da:	00ad      	lsls	r5, r5, #2
    17dc:	4455      	add	r5, sl
        t0 =
    17de:	6a92      	ldr	r2, [r2, #40]	; 0x28
    17e0:	6aad      	ldr	r5, [r5, #40]	; 0x28
    17e2:	406a      	eors	r2, r5
    17e4:	465d      	mov	r5, fp
    17e6:	692d      	ldr	r5, [r5, #16]
    17e8:	406a      	eors	r2, r5
            Td[1][GETBYTE(s3, 2)] ^
    17ea:	0c1d      	lsrs	r5, r3, #16
    17ec:	403d      	ands	r5, r7
    17ee:	3501      	adds	r5, #1
    17f0:	35ff      	adds	r5, #255	; 0xff
    17f2:	00ad      	lsls	r5, r5, #2
    17f4:	4455      	add	r5, sl
        t0 =
    17f6:	6aad      	ldr	r5, [r5, #40]	; 0x28
    17f8:	406a      	eors	r2, r5
            Td[2][GETBYTE(s2, 1)] ^
    17fa:	0a0d      	lsrs	r5, r1, #8
    17fc:	403d      	ands	r5, r7
    17fe:	3e01      	subs	r6, #1
    1800:	3eff      	subs	r6, #255	; 0xff
    1802:	46b4      	mov	ip, r6
    1804:	4465      	add	r5, ip
    1806:	00ad      	lsls	r5, r5, #2
    1808:	4455      	add	r5, sl
        t0 =
    180a:	6aad      	ldr	r5, [r5, #40]	; 0x28
    180c:	406a      	eors	r2, r5
            Td[0][GETBYTE(s1, 3)] ^
    180e:	0e05      	lsrs	r5, r0, #24
    1810:	00ad      	lsls	r5, r5, #2
    1812:	4455      	add	r5, sl
    1814:	46ac      	mov	ip, r5
            Td[3][GETBYTE(s2, 0)] ^
    1816:	003d      	movs	r5, r7
    1818:	400d      	ands	r5, r1
    181a:	3601      	adds	r6, #1
    181c:	36ff      	adds	r6, #255	; 0xff
    181e:	46b1      	mov	r9, r6
    1820:	444d      	add	r5, r9
    1822:	00ad      	lsls	r5, r5, #2
    1824:	4455      	add	r5, sl
        t1 =
    1826:	4666      	mov	r6, ip
    1828:	6ab6      	ldr	r6, [r6, #40]	; 0x28
    182a:	6aad      	ldr	r5, [r5, #40]	; 0x28
    182c:	4075      	eors	r5, r6
    182e:	465e      	mov	r6, fp
    1830:	6976      	ldr	r6, [r6, #20]
    1832:	406e      	eors	r6, r5
    1834:	46b4      	mov	ip, r6
            Td[1][GETBYTE(s0, 2)] ^
    1836:	9e00      	ldr	r6, [sp, #0]
    1838:	0c35      	lsrs	r5, r6, #16
    183a:	403d      	ands	r5, r7
    183c:	3501      	adds	r5, #1
    183e:	35ff      	adds	r5, #255	; 0xff
    1840:	00ad      	lsls	r5, r5, #2
    1842:	4455      	add	r5, sl
        t1 =
    1844:	6aad      	ldr	r5, [r5, #40]	; 0x28
    1846:	4666      	mov	r6, ip
    1848:	406e      	eors	r6, r5
    184a:	46b4      	mov	ip, r6
            Td[2][GETBYTE(s3, 1)] ^
    184c:	0a1d      	lsrs	r5, r3, #8
    184e:	403d      	ands	r5, r7
    1850:	2680      	movs	r6, #128	; 0x80
    1852:	00b6      	lsls	r6, r6, #2
    1854:	46b1      	mov	r9, r6
    1856:	444d      	add	r5, r9
    1858:	00ad      	lsls	r5, r5, #2
    185a:	4455      	add	r5, sl
        t1 =
    185c:	6aad      	ldr	r5, [r5, #40]	; 0x28
    185e:	4666      	mov	r6, ip
    1860:	406e      	eors	r6, r5
    1862:	46b4      	mov	ip, r6
            Td[0][GETBYTE(s2, 3)] ^
    1864:	0e0d      	lsrs	r5, r1, #24
    1866:	00ad      	lsls	r5, r5, #2
    1868:	4455      	add	r5, sl
    186a:	46a9      	mov	r9, r5
            Td[3][GETBYTE(s3, 0)] ^
    186c:	003d      	movs	r5, r7
    186e:	401d      	ands	r5, r3
    1870:	26c0      	movs	r6, #192	; 0xc0
    1872:	00b6      	lsls	r6, r6, #2
    1874:	46b0      	mov	r8, r6
    1876:	4445      	add	r5, r8
    1878:	00ad      	lsls	r5, r5, #2
    187a:	4455      	add	r5, sl
        t2 =
    187c:	464e      	mov	r6, r9
    187e:	6ab6      	ldr	r6, [r6, #40]	; 0x28
    1880:	6aad      	ldr	r5, [r5, #40]	; 0x28
    1882:	4075      	eors	r5, r6
    1884:	465e      	mov	r6, fp
    1886:	69b6      	ldr	r6, [r6, #24]
    1888:	406e      	eors	r6, r5
            Td[1][GETBYTE(s1, 2)] ^
    188a:	0c05      	lsrs	r5, r0, #16
    188c:	403d      	ands	r5, r7
    188e:	3501      	adds	r5, #1
    1890:	35ff      	adds	r5, #255	; 0xff
    1892:	00ad      	lsls	r5, r5, #2
    1894:	4455      	add	r5, sl
        t2 =
    1896:	6aad      	ldr	r5, [r5, #40]	; 0x28
    1898:	406e      	eors	r6, r5
    189a:	46b1      	mov	r9, r6
            Td[2][GETBYTE(s0, 1)] ^
    189c:	9e00      	ldr	r6, [sp, #0]
    189e:	0a35      	lsrs	r5, r6, #8
    18a0:	403d      	ands	r5, r7
    18a2:	2680      	movs	r6, #128	; 0x80
    18a4:	00b6      	lsls	r6, r6, #2
    18a6:	46b0      	mov	r8, r6
    18a8:	4445      	add	r5, r8
    18aa:	00ad      	lsls	r5, r5, #2
    18ac:	4455      	add	r5, sl
        t2 =
    18ae:	6aad      	ldr	r5, [r5, #40]	; 0x28
    18b0:	464e      	mov	r6, r9
    18b2:	4075      	eors	r5, r6
            Td[0][GETBYTE(s3, 3)] ^
    18b4:	0e1b      	lsrs	r3, r3, #24
    18b6:	009b      	lsls	r3, r3, #2
    18b8:	4453      	add	r3, sl
    18ba:	4699      	mov	r9, r3
            Td[3][GETBYTE(s0, 0)] ^
    18bc:	9e00      	ldr	r6, [sp, #0]
    18be:	403e      	ands	r6, r7
    18c0:	23c0      	movs	r3, #192	; 0xc0
    18c2:	009b      	lsls	r3, r3, #2
    18c4:	18f3      	adds	r3, r6, r3
    18c6:	009b      	lsls	r3, r3, #2
    18c8:	4453      	add	r3, sl
        t3 =
    18ca:	464e      	mov	r6, r9
    18cc:	6ab6      	ldr	r6, [r6, #40]	; 0x28
    18ce:	6a9b      	ldr	r3, [r3, #40]	; 0x28
    18d0:	405e      	eors	r6, r3
    18d2:	465b      	mov	r3, fp
    18d4:	69db      	ldr	r3, [r3, #28]
    18d6:	405e      	eors	r6, r3
            Td[1][GETBYTE(s2, 2)] ^
    18d8:	0c0b      	lsrs	r3, r1, #16
    18da:	403b      	ands	r3, r7
    18dc:	3301      	adds	r3, #1
    18de:	33ff      	adds	r3, #255	; 0xff
    18e0:	009b      	lsls	r3, r3, #2
    18e2:	4453      	add	r3, sl
        t3 =
    18e4:	6a99      	ldr	r1, [r3, #40]	; 0x28
    18e6:	4071      	eors	r1, r6
            Td[2][GETBYTE(s1, 1)] ^
    18e8:	0a03      	lsrs	r3, r0, #8
    18ea:	403b      	ands	r3, r7
    18ec:	4443      	add	r3, r8
    18ee:	009b      	lsls	r3, r3, #2
    18f0:	4453      	add	r3, sl
        t3 =
    18f2:	6a98      	ldr	r0, [r3, #40]	; 0x28
    18f4:	4048      	eors	r0, r1
        rk += 8;
    18f6:	2320      	movs	r3, #32
    18f8:	4698      	mov	r8, r3
    18fa:	44c3      	add	fp, r8
        if (--r == 0) {
    18fc:	9b03      	ldr	r3, [sp, #12]
    18fe:	459b      	cmp	fp, r3
    1900:	d100      	bne.n	1904 <wc_AesCbcDecrypt+0x24c>
    1902:	e09f      	b.n	1a44 <wc_AesCbcDecrypt+0x38c>
            Td[0][GETBYTE(t0, 3)] ^
    1904:	0e11      	lsrs	r1, r2, #24
    1906:	0089      	lsls	r1, r1, #2
    1908:	1861      	adds	r1, r4, r1
            Td[3][GETBYTE(t1, 0)] ^
    190a:	4663      	mov	r3, ip
    190c:	403b      	ands	r3, r7
    190e:	26c0      	movs	r6, #192	; 0xc0
    1910:	00b6      	lsls	r6, r6, #2
    1912:	46b0      	mov	r8, r6
    1914:	4443      	add	r3, r8
    1916:	009b      	lsls	r3, r3, #2
    1918:	18e3      	adds	r3, r4, r3
    191a:	6a8e      	ldr	r6, [r1, #40]	; 0x28
    191c:	6a9b      	ldr	r3, [r3, #40]	; 0x28
    191e:	405e      	eors	r6, r3
    1920:	465b      	mov	r3, fp
    1922:	681b      	ldr	r3, [r3, #0]
    1924:	405e      	eors	r6, r3
            Td[1][GETBYTE(t3, 2)] ^
    1926:	0c03      	lsrs	r3, r0, #16
    1928:	403b      	ands	r3, r7
    192a:	3301      	adds	r3, #1
    192c:	33ff      	adds	r3, #255	; 0xff
    192e:	009b      	lsls	r3, r3, #2
    1930:	18e3      	adds	r3, r4, r3
            Td[3][GETBYTE(t1, 0)] ^
    1932:	6a9b      	ldr	r3, [r3, #40]	; 0x28
    1934:	405e      	eors	r6, r3
            Td[2][GETBYTE(t2, 1)] ^
    1936:	0a2b      	lsrs	r3, r5, #8
    1938:	403b      	ands	r3, r7
    193a:	2180      	movs	r1, #128	; 0x80
    193c:	0089      	lsls	r1, r1, #2
    193e:	4688      	mov	r8, r1
    1940:	4443      	add	r3, r8
    1942:	009b      	lsls	r3, r3, #2
    1944:	18e3      	adds	r3, r4, r3
            Td[3][GETBYTE(t1, 0)] ^
    1946:	6a9b      	ldr	r3, [r3, #40]	; 0x28
    1948:	405e      	eors	r6, r3
    194a:	9600      	str	r6, [sp, #0]
            Td[0][GETBYTE(t3, 3)] ^
    194c:	0e03      	lsrs	r3, r0, #24
    194e:	009b      	lsls	r3, r3, #2
    1950:	18e3      	adds	r3, r4, r3
            Td[3][GETBYTE(t0, 0)] ^
    1952:	0039      	movs	r1, r7
    1954:	4011      	ands	r1, r2
    1956:	26c0      	movs	r6, #192	; 0xc0
    1958:	00b6      	lsls	r6, r6, #2
    195a:	46b0      	mov	r8, r6
    195c:	4441      	add	r1, r8
    195e:	0089      	lsls	r1, r1, #2
    1960:	1861      	adds	r1, r4, r1
    1962:	6a9b      	ldr	r3, [r3, #40]	; 0x28
    1964:	6a89      	ldr	r1, [r1, #40]	; 0x28
    1966:	404b      	eors	r3, r1
    1968:	4659      	mov	r1, fp
    196a:	68c9      	ldr	r1, [r1, #12]
    196c:	404b      	eors	r3, r1
            Td[1][GETBYTE(t2, 2)] ^
    196e:	0c29      	lsrs	r1, r5, #16
    1970:	4039      	ands	r1, r7
    1972:	3101      	adds	r1, #1
    1974:	31ff      	adds	r1, #255	; 0xff
    1976:	0089      	lsls	r1, r1, #2
    1978:	1861      	adds	r1, r4, r1
            Td[3][GETBYTE(t0, 0)] ^
    197a:	6a89      	ldr	r1, [r1, #40]	; 0x28
    197c:	404b      	eors	r3, r1
            Td[2][GETBYTE(t1, 1)] ^
    197e:	4661      	mov	r1, ip
    1980:	0a09      	lsrs	r1, r1, #8
    1982:	4039      	ands	r1, r7
    1984:	3e01      	subs	r6, #1
    1986:	3eff      	subs	r6, #255	; 0xff
    1988:	46b0      	mov	r8, r6
    198a:	4441      	add	r1, r8
    198c:	0089      	lsls	r1, r1, #2
    198e:	1861      	adds	r1, r4, r1
            Td[3][GETBYTE(t0, 0)] ^
    1990:	6a89      	ldr	r1, [r1, #40]	; 0x28
    1992:	404b      	eors	r3, r1
            Td[0][GETBYTE(t2, 3)] ^
    1994:	0e29      	lsrs	r1, r5, #24
    1996:	0089      	lsls	r1, r1, #2
    1998:	4689      	mov	r9, r1
    199a:	44a1      	add	r9, r4
            Td[3][GETBYTE(t3, 0)] ^
    199c:	0039      	movs	r1, r7
    199e:	4001      	ands	r1, r0
    19a0:	3601      	adds	r6, #1
    19a2:	36ff      	adds	r6, #255	; 0xff
    19a4:	46b0      	mov	r8, r6
    19a6:	4441      	add	r1, r8
    19a8:	0089      	lsls	r1, r1, #2
    19aa:	1861      	adds	r1, r4, r1
    19ac:	464e      	mov	r6, r9
    19ae:	6ab6      	ldr	r6, [r6, #40]	; 0x28
    19b0:	6a89      	ldr	r1, [r1, #40]	; 0x28
    19b2:	4071      	eors	r1, r6
    19b4:	465e      	mov	r6, fp
    19b6:	68b6      	ldr	r6, [r6, #8]
    19b8:	404e      	eors	r6, r1
            Td[1][GETBYTE(t1, 2)] ^
    19ba:	4661      	mov	r1, ip
    19bc:	0c09      	lsrs	r1, r1, #16
    19be:	4039      	ands	r1, r7
    19c0:	3101      	adds	r1, #1
    19c2:	31ff      	adds	r1, #255	; 0xff
    19c4:	0089      	lsls	r1, r1, #2
    19c6:	1861      	adds	r1, r4, r1
            Td[3][GETBYTE(t3, 0)] ^
    19c8:	6a89      	ldr	r1, [r1, #40]	; 0x28
    19ca:	404e      	eors	r6, r1
    19cc:	46b1      	mov	r9, r6
            Td[2][GETBYTE(t0, 1)] ^
    19ce:	0a11      	lsrs	r1, r2, #8
    19d0:	4039      	ands	r1, r7
    19d2:	2680      	movs	r6, #128	; 0x80
    19d4:	00b6      	lsls	r6, r6, #2
    19d6:	46b0      	mov	r8, r6
    19d8:	4441      	add	r1, r8
    19da:	0089      	lsls	r1, r1, #2
    19dc:	1861      	adds	r1, r4, r1
            Td[3][GETBYTE(t3, 0)] ^
    19de:	6a89      	ldr	r1, [r1, #40]	; 0x28
    19e0:	464e      	mov	r6, r9
    19e2:	4071      	eors	r1, r6
            Td[0][GETBYTE(t1, 3)] ^
    19e4:	4666      	mov	r6, ip
    19e6:	0e36      	lsrs	r6, r6, #24
    19e8:	00b6      	lsls	r6, r6, #2
    19ea:	46b4      	mov	ip, r6
    19ec:	44a4      	add	ip, r4
            Td[3][GETBYTE(t2, 0)] ^
    19ee:	403d      	ands	r5, r7
    19f0:	26c0      	movs	r6, #192	; 0xc0
    19f2:	00b6      	lsls	r6, r6, #2
    19f4:	46b0      	mov	r8, r6
    19f6:	4445      	add	r5, r8
    19f8:	00ad      	lsls	r5, r5, #2
    19fa:	1965      	adds	r5, r4, r5
    19fc:	4666      	mov	r6, ip
    19fe:	6ab6      	ldr	r6, [r6, #40]	; 0x28
    1a00:	6aad      	ldr	r5, [r5, #40]	; 0x28
    1a02:	4075      	eors	r5, r6
    1a04:	465e      	mov	r6, fp
    1a06:	6876      	ldr	r6, [r6, #4]
    1a08:	4075      	eors	r5, r6
            Td[1][GETBYTE(t0, 2)] ^
    1a0a:	0c12      	lsrs	r2, r2, #16
    1a0c:	403a      	ands	r2, r7
    1a0e:	3201      	adds	r2, #1
    1a10:	32ff      	adds	r2, #255	; 0xff
    1a12:	0092      	lsls	r2, r2, #2
    1a14:	18a2      	adds	r2, r4, r2
            Td[3][GETBYTE(t2, 0)] ^
    1a16:	6a92      	ldr	r2, [r2, #40]	; 0x28
    1a18:	4055      	eors	r5, r2
            Td[2][GETBYTE(t3, 1)] ^
    1a1a:	0a02      	lsrs	r2, r0, #8
    1a1c:	403a      	ands	r2, r7
    1a1e:	2080      	movs	r0, #128	; 0x80
    1a20:	0080      	lsls	r0, r0, #2
    1a22:	4684      	mov	ip, r0
    1a24:	4462      	add	r2, ip
    1a26:	0092      	lsls	r2, r2, #2
    1a28:	18a2      	adds	r2, r4, r2
            Td[3][GETBYTE(t2, 0)] ^
    1a2a:	6a90      	ldr	r0, [r2, #40]	; 0x28
    1a2c:	4068      	eors	r0, r5
    1a2e:	e6ca      	b.n	17c6 <wc_AesCbcDecrypt+0x10e>
    1a30:	00002e7c 	.word	0x00002e7c
    1a34:	00003e7c 	.word	0x00003e7c
    1a38:	00001c89 	.word	0x00001c89
    1a3c:	00ff00ff 	.word	0x00ff00ff
    1a40:	ff00ff00 	.word	0xff00ff00
    1a44:	4692      	mov	sl, r2
    1a46:	0003      	movs	r3, r0
        ((word32)Td4[GETBYTE(t1, 0)]) ^
    1a48:	20ff      	movs	r0, #255	; 0xff
    1a4a:	4661      	mov	r1, ip
    1a4c:	4001      	ands	r1, r0
    1a4e:	9f09      	ldr	r7, [sp, #36]	; 0x24
    1a50:	5c7e      	ldrb	r6, [r7, r1]
    1a52:	9a08      	ldr	r2, [sp, #32]
    1a54:	6811      	ldr	r1, [r2, #0]
    1a56:	404e      	eors	r6, r1
        ((word32)Td4[GETBYTE(t0, 3)] << 24) ^
    1a58:	4651      	mov	r1, sl
    1a5a:	0e09      	lsrs	r1, r1, #24
    1a5c:	5c79      	ldrb	r1, [r7, r1]
    1a5e:	0609      	lsls	r1, r1, #24
        ((word32)Td4[GETBYTE(t1, 0)]) ^
    1a60:	4071      	eors	r1, r6
        ((word32)Td4[GETBYTE(t3, 2)] << 16) ^
    1a62:	0c1e      	lsrs	r6, r3, #16
    1a64:	4006      	ands	r6, r0
    1a66:	5dbe      	ldrb	r6, [r7, r6]
    1a68:	0436      	lsls	r6, r6, #16
        ((word32)Td4[GETBYTE(t1, 0)]) ^
    1a6a:	4071      	eors	r1, r6
        ((word32)Td4[GETBYTE(t2, 1)] <<  8) ^
    1a6c:	0a2e      	lsrs	r6, r5, #8
    1a6e:	4006      	ands	r6, r0
    1a70:	5dbe      	ldrb	r6, [r7, r6]
    1a72:	0236      	lsls	r6, r6, #8
        ((word32)Td4[GETBYTE(t1, 0)]) ^
    1a74:	4071      	eors	r1, r6
    1a76:	468b      	mov	fp, r1
        ((word32)Td4[GETBYTE(t2, 0)]) ^
    1a78:	0006      	movs	r6, r0
    1a7a:	402e      	ands	r6, r5
    1a7c:	5dbe      	ldrb	r6, [r7, r6]
    1a7e:	0011      	movs	r1, r2
    1a80:	6852      	ldr	r2, [r2, #4]
    1a82:	4072      	eors	r2, r6
    1a84:	4691      	mov	r9, r2
        ((word32)Td4[GETBYTE(t1, 3)] << 24) ^
    1a86:	4662      	mov	r2, ip
    1a88:	0e16      	lsrs	r6, r2, #24
    1a8a:	5dbe      	ldrb	r6, [r7, r6]
    1a8c:	0636      	lsls	r6, r6, #24
        ((word32)Td4[GETBYTE(t2, 0)]) ^
    1a8e:	464a      	mov	r2, r9
    1a90:	4056      	eors	r6, r2
        ((word32)Td4[GETBYTE(t0, 2)] << 16) ^
    1a92:	4652      	mov	r2, sl
    1a94:	0c12      	lsrs	r2, r2, #16
    1a96:	4002      	ands	r2, r0
    1a98:	5cba      	ldrb	r2, [r7, r2]
    1a9a:	0412      	lsls	r2, r2, #16
        ((word32)Td4[GETBYTE(t2, 0)]) ^
    1a9c:	4056      	eors	r6, r2
        ((word32)Td4[GETBYTE(t3, 1)] <<  8) ^
    1a9e:	0a1a      	lsrs	r2, r3, #8
    1aa0:	4002      	ands	r2, r0
    1aa2:	5cba      	ldrb	r2, [r7, r2]
    1aa4:	0212      	lsls	r2, r2, #8
        ((word32)Td4[GETBYTE(t2, 0)]) ^
    1aa6:	4072      	eors	r2, r6
    1aa8:	4691      	mov	r9, r2
        ((word32)Td4[GETBYTE(t3, 0)]) ^
    1aaa:	0006      	movs	r6, r0
    1aac:	401e      	ands	r6, r3
    1aae:	5dbe      	ldrb	r6, [r7, r6]
    1ab0:	688a      	ldr	r2, [r1, #8]
    1ab2:	9200      	str	r2, [sp, #0]
    1ab4:	4072      	eors	r2, r6
        ((word32)Td4[GETBYTE(t2, 3)] << 24) ^
    1ab6:	0e2e      	lsrs	r6, r5, #24
    1ab8:	5dbe      	ldrb	r6, [r7, r6]
    1aba:	0636      	lsls	r6, r6, #24
        ((word32)Td4[GETBYTE(t3, 0)]) ^
    1abc:	4056      	eors	r6, r2
        ((word32)Td4[GETBYTE(t1, 2)] << 16) ^
    1abe:	4662      	mov	r2, ip
    1ac0:	0c12      	lsrs	r2, r2, #16
    1ac2:	4002      	ands	r2, r0
    1ac4:	5cba      	ldrb	r2, [r7, r2]
    1ac6:	0412      	lsls	r2, r2, #16
        ((word32)Td4[GETBYTE(t3, 0)]) ^
    1ac8:	4072      	eors	r2, r6
    1aca:	4690      	mov	r8, r2
        ((word32)Td4[GETBYTE(t0, 1)] <<  8) ^
    1acc:	4652      	mov	r2, sl
    1ace:	0a16      	lsrs	r6, r2, #8
    1ad0:	4006      	ands	r6, r0
    1ad2:	5dbe      	ldrb	r6, [r7, r6]
    1ad4:	0236      	lsls	r6, r6, #8
        ((word32)Td4[GETBYTE(t3, 0)]) ^
    1ad6:	4642      	mov	r2, r8
    1ad8:	4056      	eors	r6, r2
        ((word32)Td4[GETBYTE(t0, 0)]) ^
    1ada:	4652      	mov	r2, sl
    1adc:	4002      	ands	r2, r0
    1ade:	5cba      	ldrb	r2, [r7, r2]
    1ae0:	68c9      	ldr	r1, [r1, #12]
    1ae2:	404a      	eors	r2, r1
        ((word32)Td4[GETBYTE(t3, 3)] << 24) ^
    1ae4:	0e1b      	lsrs	r3, r3, #24
    1ae6:	5cfb      	ldrb	r3, [r7, r3]
    1ae8:	061b      	lsls	r3, r3, #24
        ((word32)Td4[GETBYTE(t0, 0)]) ^
    1aea:	405a      	eors	r2, r3
        ((word32)Td4[GETBYTE(t2, 2)] << 16) ^
    1aec:	0c2d      	lsrs	r5, r5, #16
    1aee:	4005      	ands	r5, r0
    1af0:	5d7b      	ldrb	r3, [r7, r5]
    1af2:	041b      	lsls	r3, r3, #16
        ((word32)Td4[GETBYTE(t0, 0)]) ^
    1af4:	405a      	eors	r2, r3
        ((word32)Td4[GETBYTE(t1, 1)] <<  8) ^
    1af6:	4663      	mov	r3, ip
    1af8:	0a1b      	lsrs	r3, r3, #8
    1afa:	4018      	ands	r0, r3
    1afc:	5c3b      	ldrb	r3, [r7, r0]
    1afe:	021b      	lsls	r3, r3, #8
        ((word32)Td4[GETBYTE(t0, 0)]) ^
    1b00:	405a      	eors	r2, r3
    value = ((value & 0xFF00FF00) >> 8) | ((value & 0x00FF00FF) << 8);
    1b02:	465b      	mov	r3, fp
    1b04:	0a18      	lsrs	r0, r3, #8
    1b06:	4d41      	ldr	r5, [pc, #260]	; (1c0c <wc_AesCbcDecrypt+0x554>)
    1b08:	4028      	ands	r0, r5
    1b0a:	021b      	lsls	r3, r3, #8
    1b0c:	4940      	ldr	r1, [pc, #256]	; (1c10 <wc_AesCbcDecrypt+0x558>)
    1b0e:	400b      	ands	r3, r1
    1b10:	4303      	orrs	r3, r0
        return (x << y) | (x >> (sizeof(y) * 8 - y));
    1b12:	2010      	movs	r0, #16
    1b14:	41c3      	rors	r3, r0
    s0 = ByteReverseWord32(s0);
    1b16:	930a      	str	r3, [sp, #40]	; 0x28
    value = ((value & 0xFF00FF00) >> 8) | ((value & 0x00FF00FF) << 8);
    1b18:	464b      	mov	r3, r9
    1b1a:	0a1b      	lsrs	r3, r3, #8
    1b1c:	402b      	ands	r3, r5
    1b1e:	464f      	mov	r7, r9
    1b20:	023f      	lsls	r7, r7, #8
    1b22:	400f      	ands	r7, r1
    1b24:	433b      	orrs	r3, r7
        return (x << y) | (x >> (sizeof(y) * 8 - y));
    1b26:	41c3      	rors	r3, r0
    s1 = ByteReverseWord32(s1);
    1b28:	930b      	str	r3, [sp, #44]	; 0x2c
    value = ((value & 0xFF00FF00) >> 8) | ((value & 0x00FF00FF) << 8);
    1b2a:	0a33      	lsrs	r3, r6, #8
    1b2c:	402b      	ands	r3, r5
    1b2e:	0236      	lsls	r6, r6, #8
    1b30:	400e      	ands	r6, r1
    1b32:	4333      	orrs	r3, r6
        return (x << y) | (x >> (sizeof(y) * 8 - y));
    1b34:	41c3      	rors	r3, r0
    s2 = ByteReverseWord32(s2);
    1b36:	930c      	str	r3, [sp, #48]	; 0x30
    value = ((value & 0xFF00FF00) >> 8) | ((value & 0x00FF00FF) << 8);
    1b38:	0a13      	lsrs	r3, r2, #8
    1b3a:	401d      	ands	r5, r3
    1b3c:	0212      	lsls	r2, r2, #8
    1b3e:	4011      	ands	r1, r2
    1b40:	4329      	orrs	r1, r5
        return (x << y) | (x >> (sizeof(y) * 8 - y));
    1b42:	41c1      	rors	r1, r0
    s3 = ByteReverseWord32(s3);
    1b44:	910d      	str	r1, [sp, #52]	; 0x34
    XMEMCPY(outBlock,                  &s0, sizeof(s0));
    1b46:	2204      	movs	r2, #4
    1b48:	a90a      	add	r1, sp, #40	; 0x28
    1b4a:	9e02      	ldr	r6, [sp, #8]
    1b4c:	0030      	movs	r0, r6
    1b4e:	4d31      	ldr	r5, [pc, #196]	; (1c14 <wc_AesCbcDecrypt+0x55c>)
    1b50:	47a8      	blx	r5
    XMEMCPY(outBlock + sizeof(s0),     &s1, sizeof(s1));
    1b52:	1d30      	adds	r0, r6, #4
    1b54:	2204      	movs	r2, #4
    1b56:	a90b      	add	r1, sp, #44	; 0x2c
    1b58:	47a8      	blx	r5
    XMEMCPY(outBlock + 2 * sizeof(s0), &s2, sizeof(s2));
    1b5a:	0030      	movs	r0, r6
    1b5c:	3008      	adds	r0, #8
    1b5e:	2204      	movs	r2, #4
    1b60:	a90c      	add	r1, sp, #48	; 0x30
    1b62:	47a8      	blx	r5
    XMEMCPY(outBlock + 3 * sizeof(s0), &s3, sizeof(s3));
    1b64:	0030      	movs	r0, r6
    1b66:	300c      	adds	r0, #12
    1b68:	2204      	movs	r2, #4
    1b6a:	a90d      	add	r1, sp, #52	; 0x34
    1b6c:	47a8      	blx	r5
    1b6e:	e027      	b.n	1bc0 <wc_AesCbcDecrypt+0x508>
    if (((wolfssl_word)buf | (wolfssl_word)mask | count) % WOLFSSL_WORD_SIZE == 0)
    1b70:	9b07      	ldr	r3, [sp, #28]
    1b72:	9902      	ldr	r1, [sp, #8]
        for (i = 0; i < count; i++) b[i] ^= m[i];
    1b74:	5cca      	ldrb	r2, [r1, r3]
    1b76:	5cc5      	ldrb	r5, [r0, r3]
    1b78:	406a      	eors	r2, r5
    1b7a:	54ca      	strb	r2, [r1, r3]
    1b7c:	3301      	adds	r3, #1
    1b7e:	2b10      	cmp	r3, #16
    1b80:	d1f8      	bne.n	1b74 <wc_AesCbcDecrypt+0x4bc>
            XMEMCPY(aes->tmp, in, AES_BLOCK_SIZE);
            wc_AesDecrypt(aes, (byte*)aes->tmp, out);
            xorbuf(out, (byte*)aes->reg, AES_BLOCK_SIZE);
            /* store iv for next call */
            XMEMCPY(aes->reg, aes->tmp, AES_BLOCK_SIZE);
    1b82:	2210      	movs	r2, #16
    1b84:	9905      	ldr	r1, [sp, #20]
    1b86:	4b23      	ldr	r3, [pc, #140]	; (1c14 <wc_AesCbcDecrypt+0x55c>)
    1b88:	4798      	blx	r3

            out += AES_BLOCK_SIZE;
    1b8a:	9b02      	ldr	r3, [sp, #8]
    1b8c:	3310      	adds	r3, #16
    1b8e:	9302      	str	r3, [sp, #8]
            in  += AES_BLOCK_SIZE;
    1b90:	9b04      	ldr	r3, [sp, #16]
    1b92:	3310      	adds	r3, #16
    1b94:	9304      	str	r3, [sp, #16]
        while (blocks--) {
    1b96:	9b06      	ldr	r3, [sp, #24]
    1b98:	1e5a      	subs	r2, r3, #1
    1b9a:	9206      	str	r2, [sp, #24]
    1b9c:	d320      	bcc.n	1be0 <wc_AesCbcDecrypt+0x528>
            XMEMCPY(aes->tmp, in, AES_BLOCK_SIZE);
    1b9e:	9d01      	ldr	r5, [sp, #4]
    1ba0:	002b      	movs	r3, r5
    1ba2:	3309      	adds	r3, #9
    1ba4:	33ff      	adds	r3, #255	; 0xff
    1ba6:	0018      	movs	r0, r3
    1ba8:	9305      	str	r3, [sp, #20]
    1baa:	2210      	movs	r2, #16
    1bac:	9904      	ldr	r1, [sp, #16]
    1bae:	4b19      	ldr	r3, [pc, #100]	; (1c14 <wc_AesCbcDecrypt+0x55c>)
    1bb0:	4798      	blx	r3
    word32 r = aes->rounds >> 1;
    1bb2:	23f0      	movs	r3, #240	; 0xf0
    1bb4:	58ed      	ldr	r5, [r5, r3]
    1bb6:	086d      	lsrs	r5, r5, #1
    if (r > 7 || r == 0) {
    1bb8:	1e6b      	subs	r3, r5, #1
    1bba:	2b06      	cmp	r3, #6
    1bbc:	d800      	bhi.n	1bc0 <wc_AesCbcDecrypt+0x508>
    1bbe:	e5a0      	b.n	1702 <wc_AesCbcDecrypt+0x4a>
            xorbuf(out, (byte*)aes->reg, AES_BLOCK_SIZE);
    1bc0:	9801      	ldr	r0, [sp, #4]
    1bc2:	30f8      	adds	r0, #248	; 0xf8
    if (((wolfssl_word)buf | (wolfssl_word)mask | count) % WOLFSSL_WORD_SIZE == 0)
    1bc4:	9902      	ldr	r1, [sp, #8]
    1bc6:	000b      	movs	r3, r1
    1bc8:	4303      	orrs	r3, r0
    1bca:	079b      	lsls	r3, r3, #30
    1bcc:	d1d0      	bne.n	1b70 <wc_AesCbcDecrypt+0x4b8>
    1bce:	2300      	movs	r3, #0
    for (i = 0; i < n; i++) r[i] ^= a[i];
    1bd0:	58ca      	ldr	r2, [r1, r3]
    1bd2:	58c5      	ldr	r5, [r0, r3]
    1bd4:	406a      	eors	r2, r5
    1bd6:	50ca      	str	r2, [r1, r3]
    1bd8:	3304      	adds	r3, #4
    1bda:	2b10      	cmp	r3, #16
    1bdc:	d1f8      	bne.n	1bd0 <wc_AesCbcDecrypt+0x518>
    1bde:	e7d0      	b.n	1b82 <wc_AesCbcDecrypt+0x4ca>
        }

        return 0;
    1be0:	2000      	movs	r0, #0
    }
    1be2:	b00f      	add	sp, #60	; 0x3c
    1be4:	bc3c      	pop	{r2, r3, r4, r5}
    1be6:	4690      	mov	r8, r2
    1be8:	4699      	mov	r9, r3
    1bea:	46a2      	mov	sl, r4
    1bec:	46ab      	mov	fp, r5
    1bee:	bdf0      	pop	{r4, r5, r6, r7, pc}
            return BAD_FUNC_ARG;
    1bf0:	20ad      	movs	r0, #173	; 0xad
    1bf2:	4240      	negs	r0, r0
    1bf4:	e7f5      	b.n	1be2 <wc_AesCbcDecrypt+0x52a>
    1bf6:	20ad      	movs	r0, #173	; 0xad
    1bf8:	4240      	negs	r0, r0
    1bfa:	e7f2      	b.n	1be2 <wc_AesCbcDecrypt+0x52a>
    1bfc:	20ad      	movs	r0, #173	; 0xad
    1bfe:	4240      	negs	r0, r0
    1c00:	e7ef      	b.n	1be2 <wc_AesCbcDecrypt+0x52a>
    1c02:	20ad      	movs	r0, #173	; 0xad
    1c04:	4240      	negs	r0, r0
    1c06:	e7ec      	b.n	1be2 <wc_AesCbcDecrypt+0x52a>
        return 0;
    1c08:	2000      	movs	r0, #0
    1c0a:	e7ea      	b.n	1be2 <wc_AesCbcDecrypt+0x52a>
    1c0c:	00ff00ff 	.word	0x00ff00ff
    1c10:	ff00ff00 	.word	0xff00ff00
    1c14:	00001c89 	.word	0x00001c89

00001c18 <__libc_init_array>:
    1c18:	b570      	push	{r4, r5, r6, lr}
    1c1a:	2600      	movs	r6, #0
    1c1c:	4d0c      	ldr	r5, [pc, #48]	; (1c50 <__libc_init_array+0x38>)
    1c1e:	4c0d      	ldr	r4, [pc, #52]	; (1c54 <__libc_init_array+0x3c>)
    1c20:	1b64      	subs	r4, r4, r5
    1c22:	10a4      	asrs	r4, r4, #2
    1c24:	42a6      	cmp	r6, r4
    1c26:	d109      	bne.n	1c3c <__libc_init_array+0x24>
    1c28:	2600      	movs	r6, #0
    1c2a:	f002 f9eb 	bl	4004 <_init>
    1c2e:	4d0a      	ldr	r5, [pc, #40]	; (1c58 <__libc_init_array+0x40>)
    1c30:	4c0a      	ldr	r4, [pc, #40]	; (1c5c <__libc_init_array+0x44>)
    1c32:	1b64      	subs	r4, r4, r5
    1c34:	10a4      	asrs	r4, r4, #2
    1c36:	42a6      	cmp	r6, r4
    1c38:	d105      	bne.n	1c46 <__libc_init_array+0x2e>
    1c3a:	bd70      	pop	{r4, r5, r6, pc}
    1c3c:	00b3      	lsls	r3, r6, #2
    1c3e:	58eb      	ldr	r3, [r5, r3]
    1c40:	4798      	blx	r3
    1c42:	3601      	adds	r6, #1
    1c44:	e7ee      	b.n	1c24 <__libc_init_array+0xc>
    1c46:	00b3      	lsls	r3, r6, #2
    1c48:	58eb      	ldr	r3, [r5, r3]
    1c4a:	4798      	blx	r3
    1c4c:	3601      	adds	r6, #1
    1c4e:	e7f2      	b.n	1c36 <__libc_init_array+0x1e>
    1c50:	00004010 	.word	0x00004010
    1c54:	00004010 	.word	0x00004010
    1c58:	00004010 	.word	0x00004010
    1c5c:	00004014 	.word	0x00004014

00001c60 <malloc>:
    1c60:	b510      	push	{r4, lr}
    1c62:	4b03      	ldr	r3, [pc, #12]	; (1c70 <malloc+0x10>)
    1c64:	0001      	movs	r1, r0
    1c66:	6818      	ldr	r0, [r3, #0]
    1c68:	f000 f86a 	bl	1d40 <_malloc_r>
    1c6c:	bd10      	pop	{r4, pc}
    1c6e:	46c0      	nop			; (mov r8, r8)
    1c70:	20000020 	.word	0x20000020

00001c74 <free>:
    1c74:	b510      	push	{r4, lr}
    1c76:	4b03      	ldr	r3, [pc, #12]	; (1c84 <free+0x10>)
    1c78:	0001      	movs	r1, r0
    1c7a:	6818      	ldr	r0, [r3, #0]
    1c7c:	f000 f816 	bl	1cac <_free_r>
    1c80:	bd10      	pop	{r4, pc}
    1c82:	46c0      	nop			; (mov r8, r8)
    1c84:	20000020 	.word	0x20000020

00001c88 <memcpy>:
    1c88:	2300      	movs	r3, #0
    1c8a:	b510      	push	{r4, lr}
    1c8c:	429a      	cmp	r2, r3
    1c8e:	d100      	bne.n	1c92 <memcpy+0xa>
    1c90:	bd10      	pop	{r4, pc}
    1c92:	5ccc      	ldrb	r4, [r1, r3]
    1c94:	54c4      	strb	r4, [r0, r3]
    1c96:	3301      	adds	r3, #1
    1c98:	e7f8      	b.n	1c8c <memcpy+0x4>

00001c9a <memset>:
    1c9a:	0003      	movs	r3, r0
    1c9c:	1882      	adds	r2, r0, r2
    1c9e:	4293      	cmp	r3, r2
    1ca0:	d100      	bne.n	1ca4 <memset+0xa>
    1ca2:	4770      	bx	lr
    1ca4:	7019      	strb	r1, [r3, #0]
    1ca6:	3301      	adds	r3, #1
    1ca8:	e7f9      	b.n	1c9e <memset+0x4>
	...

00001cac <_free_r>:
    1cac:	b570      	push	{r4, r5, r6, lr}
    1cae:	0005      	movs	r5, r0
    1cb0:	2900      	cmp	r1, #0
    1cb2:	d010      	beq.n	1cd6 <_free_r+0x2a>
    1cb4:	1f0c      	subs	r4, r1, #4
    1cb6:	6823      	ldr	r3, [r4, #0]
    1cb8:	2b00      	cmp	r3, #0
    1cba:	da00      	bge.n	1cbe <_free_r+0x12>
    1cbc:	18e4      	adds	r4, r4, r3
    1cbe:	0028      	movs	r0, r5
    1cc0:	f000 f8ae 	bl	1e20 <__malloc_lock>
    1cc4:	4a1d      	ldr	r2, [pc, #116]	; (1d3c <_free_r+0x90>)
    1cc6:	6813      	ldr	r3, [r2, #0]
    1cc8:	2b00      	cmp	r3, #0
    1cca:	d105      	bne.n	1cd8 <_free_r+0x2c>
    1ccc:	6063      	str	r3, [r4, #4]
    1cce:	6014      	str	r4, [r2, #0]
    1cd0:	0028      	movs	r0, r5
    1cd2:	f000 f8a6 	bl	1e22 <__malloc_unlock>
    1cd6:	bd70      	pop	{r4, r5, r6, pc}
    1cd8:	42a3      	cmp	r3, r4
    1cda:	d909      	bls.n	1cf0 <_free_r+0x44>
    1cdc:	6821      	ldr	r1, [r4, #0]
    1cde:	1860      	adds	r0, r4, r1
    1ce0:	4283      	cmp	r3, r0
    1ce2:	d1f3      	bne.n	1ccc <_free_r+0x20>
    1ce4:	6818      	ldr	r0, [r3, #0]
    1ce6:	685b      	ldr	r3, [r3, #4]
    1ce8:	1841      	adds	r1, r0, r1
    1cea:	6021      	str	r1, [r4, #0]
    1cec:	e7ee      	b.n	1ccc <_free_r+0x20>
    1cee:	0013      	movs	r3, r2
    1cf0:	685a      	ldr	r2, [r3, #4]
    1cf2:	2a00      	cmp	r2, #0
    1cf4:	d001      	beq.n	1cfa <_free_r+0x4e>
    1cf6:	42a2      	cmp	r2, r4
    1cf8:	d9f9      	bls.n	1cee <_free_r+0x42>
    1cfa:	6819      	ldr	r1, [r3, #0]
    1cfc:	1858      	adds	r0, r3, r1
    1cfe:	42a0      	cmp	r0, r4
    1d00:	d10b      	bne.n	1d1a <_free_r+0x6e>
    1d02:	6820      	ldr	r0, [r4, #0]
    1d04:	1809      	adds	r1, r1, r0
    1d06:	1858      	adds	r0, r3, r1
    1d08:	6019      	str	r1, [r3, #0]
    1d0a:	4282      	cmp	r2, r0
    1d0c:	d1e0      	bne.n	1cd0 <_free_r+0x24>
    1d0e:	6810      	ldr	r0, [r2, #0]
    1d10:	6852      	ldr	r2, [r2, #4]
    1d12:	1841      	adds	r1, r0, r1
    1d14:	6019      	str	r1, [r3, #0]
    1d16:	605a      	str	r2, [r3, #4]
    1d18:	e7da      	b.n	1cd0 <_free_r+0x24>
    1d1a:	42a0      	cmp	r0, r4
    1d1c:	d902      	bls.n	1d24 <_free_r+0x78>
    1d1e:	230c      	movs	r3, #12
    1d20:	602b      	str	r3, [r5, #0]
    1d22:	e7d5      	b.n	1cd0 <_free_r+0x24>
    1d24:	6821      	ldr	r1, [r4, #0]
    1d26:	1860      	adds	r0, r4, r1
    1d28:	4282      	cmp	r2, r0
    1d2a:	d103      	bne.n	1d34 <_free_r+0x88>
    1d2c:	6810      	ldr	r0, [r2, #0]
    1d2e:	6852      	ldr	r2, [r2, #4]
    1d30:	1841      	adds	r1, r0, r1
    1d32:	6021      	str	r1, [r4, #0]
    1d34:	6062      	str	r2, [r4, #4]
    1d36:	605c      	str	r4, [r3, #4]
    1d38:	e7ca      	b.n	1cd0 <_free_r+0x24>
    1d3a:	46c0      	nop			; (mov r8, r8)
    1d3c:	200000ac 	.word	0x200000ac

00001d40 <_malloc_r>:
    1d40:	2303      	movs	r3, #3
    1d42:	b570      	push	{r4, r5, r6, lr}
    1d44:	1ccd      	adds	r5, r1, #3
    1d46:	439d      	bics	r5, r3
    1d48:	3508      	adds	r5, #8
    1d4a:	0006      	movs	r6, r0
    1d4c:	2d0c      	cmp	r5, #12
    1d4e:	d21e      	bcs.n	1d8e <_malloc_r+0x4e>
    1d50:	250c      	movs	r5, #12
    1d52:	42a9      	cmp	r1, r5
    1d54:	d81d      	bhi.n	1d92 <_malloc_r+0x52>
    1d56:	0030      	movs	r0, r6
    1d58:	f000 f862 	bl	1e20 <__malloc_lock>
    1d5c:	4a25      	ldr	r2, [pc, #148]	; (1df4 <_malloc_r+0xb4>)
    1d5e:	6814      	ldr	r4, [r2, #0]
    1d60:	0021      	movs	r1, r4
    1d62:	2900      	cmp	r1, #0
    1d64:	d119      	bne.n	1d9a <_malloc_r+0x5a>
    1d66:	4c24      	ldr	r4, [pc, #144]	; (1df8 <_malloc_r+0xb8>)
    1d68:	6823      	ldr	r3, [r4, #0]
    1d6a:	2b00      	cmp	r3, #0
    1d6c:	d103      	bne.n	1d76 <_malloc_r+0x36>
    1d6e:	0030      	movs	r0, r6
    1d70:	f000 f844 	bl	1dfc <_sbrk_r>
    1d74:	6020      	str	r0, [r4, #0]
    1d76:	0029      	movs	r1, r5
    1d78:	0030      	movs	r0, r6
    1d7a:	f000 f83f 	bl	1dfc <_sbrk_r>
    1d7e:	1c43      	adds	r3, r0, #1
    1d80:	d12c      	bne.n	1ddc <_malloc_r+0x9c>
    1d82:	230c      	movs	r3, #12
    1d84:	0030      	movs	r0, r6
    1d86:	6033      	str	r3, [r6, #0]
    1d88:	f000 f84b 	bl	1e22 <__malloc_unlock>
    1d8c:	e003      	b.n	1d96 <_malloc_r+0x56>
    1d8e:	2d00      	cmp	r5, #0
    1d90:	dadf      	bge.n	1d52 <_malloc_r+0x12>
    1d92:	230c      	movs	r3, #12
    1d94:	6033      	str	r3, [r6, #0]
    1d96:	2000      	movs	r0, #0
    1d98:	bd70      	pop	{r4, r5, r6, pc}
    1d9a:	680b      	ldr	r3, [r1, #0]
    1d9c:	1b5b      	subs	r3, r3, r5
    1d9e:	d41a      	bmi.n	1dd6 <_malloc_r+0x96>
    1da0:	2b0b      	cmp	r3, #11
    1da2:	d903      	bls.n	1dac <_malloc_r+0x6c>
    1da4:	600b      	str	r3, [r1, #0]
    1da6:	18cc      	adds	r4, r1, r3
    1da8:	6025      	str	r5, [r4, #0]
    1daa:	e003      	b.n	1db4 <_malloc_r+0x74>
    1dac:	428c      	cmp	r4, r1
    1dae:	d10e      	bne.n	1dce <_malloc_r+0x8e>
    1db0:	6863      	ldr	r3, [r4, #4]
    1db2:	6013      	str	r3, [r2, #0]
    1db4:	0030      	movs	r0, r6
    1db6:	f000 f834 	bl	1e22 <__malloc_unlock>
    1dba:	0020      	movs	r0, r4
    1dbc:	2207      	movs	r2, #7
    1dbe:	300b      	adds	r0, #11
    1dc0:	1d23      	adds	r3, r4, #4
    1dc2:	4390      	bics	r0, r2
    1dc4:	1ac3      	subs	r3, r0, r3
    1dc6:	d0e7      	beq.n	1d98 <_malloc_r+0x58>
    1dc8:	425a      	negs	r2, r3
    1dca:	50e2      	str	r2, [r4, r3]
    1dcc:	e7e4      	b.n	1d98 <_malloc_r+0x58>
    1dce:	684b      	ldr	r3, [r1, #4]
    1dd0:	6063      	str	r3, [r4, #4]
    1dd2:	000c      	movs	r4, r1
    1dd4:	e7ee      	b.n	1db4 <_malloc_r+0x74>
    1dd6:	000c      	movs	r4, r1
    1dd8:	6849      	ldr	r1, [r1, #4]
    1dda:	e7c2      	b.n	1d62 <_malloc_r+0x22>
    1ddc:	2303      	movs	r3, #3
    1dde:	1cc4      	adds	r4, r0, #3
    1de0:	439c      	bics	r4, r3
    1de2:	42a0      	cmp	r0, r4
    1de4:	d0e0      	beq.n	1da8 <_malloc_r+0x68>
    1de6:	1a21      	subs	r1, r4, r0
    1de8:	0030      	movs	r0, r6
    1dea:	f000 f807 	bl	1dfc <_sbrk_r>
    1dee:	1c43      	adds	r3, r0, #1
    1df0:	d1da      	bne.n	1da8 <_malloc_r+0x68>
    1df2:	e7c6      	b.n	1d82 <_malloc_r+0x42>
    1df4:	200000ac 	.word	0x200000ac
    1df8:	200000b0 	.word	0x200000b0

00001dfc <_sbrk_r>:
    1dfc:	2300      	movs	r3, #0
    1dfe:	b570      	push	{r4, r5, r6, lr}
    1e00:	4c06      	ldr	r4, [pc, #24]	; (1e1c <_sbrk_r+0x20>)
    1e02:	0005      	movs	r5, r0
    1e04:	0008      	movs	r0, r1
    1e06:	6023      	str	r3, [r4, #0]
    1e08:	f7fe fad0 	bl	3ac <_sbrk>
    1e0c:	1c43      	adds	r3, r0, #1
    1e0e:	d103      	bne.n	1e18 <_sbrk_r+0x1c>
    1e10:	6823      	ldr	r3, [r4, #0]
    1e12:	2b00      	cmp	r3, #0
    1e14:	d000      	beq.n	1e18 <_sbrk_r+0x1c>
    1e16:	602b      	str	r3, [r5, #0]
    1e18:	bd70      	pop	{r4, r5, r6, pc}
    1e1a:	46c0      	nop			; (mov r8, r8)
    1e1c:	200000d0 	.word	0x200000d0

00001e20 <__malloc_lock>:
    1e20:	4770      	bx	lr

00001e22 <__malloc_unlock>:
    1e22:	4770      	bx	lr
    1e24:	682f2e2e 	.word	0x682f2e2e
    1e28:	732f6c61 	.word	0x732f6c61
    1e2c:	682f6372 	.word	0x682f6372
    1e30:	665f6c61 	.word	0x665f6c61
    1e34:	6873616c 	.word	0x6873616c
    1e38:	0000632e 	.word	0x0000632e
    1e3c:	682f2e2e 	.word	0x682f2e2e
    1e40:	6e2f6c70 	.word	0x6e2f6c70
    1e44:	74636d76 	.word	0x74636d76
    1e48:	682f6c72 	.word	0x682f6c72
    1e4c:	6e5f6c70 	.word	0x6e5f6c70
    1e50:	74636d76 	.word	0x74636d76
    1e54:	632e6c72 	.word	0x632e6c72
    1e58:	00000000 	.word	0x00000000

00001e5c <key>:
    1e5c:	10eb3d60 be71ca15 f0ae732b 81777d85     `=....q.+s...}w.
    1e6c:	072c351f d708613b a310982d f4df1409     .5,.;a..-.......

00001e7c <rcon>:
    1e7c:	01000000 02000000 04000000 08000000     ................
    1e8c:	10000000 20000000 40000000 80000000     ....... ...@....
    1e9c:	1b000000 36000000                       .......6

00001ea4 <Te>:
    1ea4:	c66363a5 f87c7c84 ee777799 f67b7b8d     .cc..||..ww..{{.
    1eb4:	fff2f20d d66b6bbd de6f6fb1 91c5c554     .....kk..oo.T...
    1ec4:	60303050 02010103 ce6767a9 562b2b7d     P00`.....gg.}++V
    1ed4:	e7fefe19 b5d7d762 4dababe6 ec76769a     ....b......M.vv.
    1ee4:	8fcaca45 1f82829d 89c9c940 fa7d7d87     E.......@....}}.
    1ef4:	effafa15 b25959eb 8e4747c9 fbf0f00b     .....YY..GG.....
    1f04:	41adadec b3d4d467 5fa2a2fd 45afafea     ...Ag......_...E
    1f14:	239c9cbf 53a4a4f7 e4727296 9bc0c05b     ...#...S.rr.[...
    1f24:	75b7b7c2 e1fdfd1c 3d9393ae 4c26266a     ...u.......=j&&L
    1f34:	6c36365a 7e3f3f41 f5f7f702 83cccc4f     Z66lA??~....O...
    1f44:	6834345c 51a5a5f4 d1e5e534 f9f1f108     \44h...Q4.......
    1f54:	e2717193 abd8d873 62313153 2a15153f     .qq.s...S11b?..*
    1f64:	0804040c 95c7c752 46232365 9dc3c35e     ....R...e##F^...
    1f74:	30181828 379696a1 0a05050f 2f9a9ab5     (..0...7......./
    1f84:	0e070709 24121236 1b80809b dfe2e23d     ....6..$....=...
    1f94:	cdebeb26 4e272769 7fb2b2cd ea75759f     &...i''N.....uu.
    1fa4:	1209091b 1d83839e 582c2c74 341a1a2e     ........t,,X...4
    1fb4:	361b1b2d dc6e6eb2 b45a5aee 5ba0a0fb     -..6.nn..ZZ....[
    1fc4:	a45252f6 763b3b4d b7d6d661 7db3b3ce     .RR.M;;va......}
    1fd4:	5229297b dde3e33e 5e2f2f71 13848497     {))R>...q//^....
    1fe4:	a65353f5 b9d1d168 00000000 c1eded2c     .SS.h.......,...
    1ff4:	40202060 e3fcfc1f 79b1b1c8 b65b5bed     `  @.......y.[[.
    2004:	d46a6abe 8dcbcb46 67bebed9 7239394b     .jj.F......gK99r
    2014:	944a4ade 984c4cd4 b05858e8 85cfcf4a     .JJ..LL..XX.J...
    2024:	bbd0d06b c5efef2a 4faaaae5 edfbfb16     k...*......O....
    2034:	864343c5 9a4d4dd7 66333355 11858594     .CC..MM.U33f....
    2044:	8a4545cf e9f9f910 04020206 fe7f7f81     .EE.............
    2054:	a05050f0 783c3c44 259f9fba 4ba8a8e3     .PP.D<<x...%...K
    2064:	a25151f3 5da3a3fe 804040c0 058f8f8a     .QQ....].@@.....
    2074:	3f9292ad 219d9dbc 70383848 f1f5f504     ...?...!H88p....
    2084:	63bcbcdf 77b6b6c1 afdada75 42212163     ...c...wu...c!!B
    2094:	20101030 e5ffff1a fdf3f30e bfd2d26d     0.. ........m...
    20a4:	81cdcd4c 180c0c14 26131335 c3ecec2f     L.......5..&/...
    20b4:	be5f5fe1 359797a2 884444cc 2e171739     .__....5.DD.9...
    20c4:	93c4c457 55a7a7f2 fc7e7e82 7a3d3d47     W......U.~~.G==z
    20d4:	c86464ac ba5d5de7 3219192b e6737395     .dd..]].+..2.ss.
    20e4:	c06060a0 19818198 9e4f4fd1 a3dcdc7f     .``......OO.....
    20f4:	44222266 542a2a7e 3b9090ab 0b888883     f""D~**T...;....
    2104:	8c4646ca c7eeee29 6bb8b8d3 2814143c     .FF.)......k<..(
    2114:	a7dede79 bc5e5ee2 160b0b1d addbdb76     y....^^.....v...
    2124:	dbe0e03b 64323256 743a3a4e 140a0a1e     ;...V22dN::t....
    2134:	924949db 0c06060a 4824246c b85c5ce4     .II.....l$$H.\\.
    2144:	9fc2c25d bdd3d36e 43acacef c46262a6     ]...n......C.bb.
    2154:	399191a8 319595a4 d3e4e437 f279798b     ...9...17....yy.
    2164:	d5e7e732 8bc8c843 6e373759 da6d6db7     2...C...Y77n.mm.
    2174:	018d8d8c b1d5d564 9c4e4ed2 49a9a9e0     ....d....NN....I
    2184:	d86c6cb4 ac5656fa f3f4f407 cfeaea25     .ll..VV.....%...
    2194:	ca6565af f47a7a8e 47aeaee9 10080818     .ee..zz....G....
    21a4:	6fbabad5 f0787888 4a25256f 5c2e2e72     ...o.xx.o%%Jr..\
    21b4:	381c1c24 57a6a6f1 73b4b4c7 97c6c651     $..8...W...sQ...
    21c4:	cbe8e823 a1dddd7c e874749c 3e1f1f21     #...|....tt.!..>
    21d4:	964b4bdd 61bdbddc 0d8b8b86 0f8a8a85     .KK....a........
    21e4:	e0707090 7c3e3e42 71b5b5c4 cc6666aa     .pp.B>>|...q.ff.
    21f4:	904848d8 06030305 f7f6f601 1c0e0e12     .HH.............
    2204:	c26161a3 6a35355f ae5757f9 69b9b9d0     .aa._55j.WW....i
    2214:	17868691 99c1c158 3a1d1d27 279e9eb9     ....X...'..:...'
    2224:	d9e1e138 ebf8f813 2b9898b3 22111133     8..........+3.."
    2234:	d26969bb a9d9d970 078e8e89 339494a7     .ii.p..........3
    2244:	2d9b9bb6 3c1e1e22 15878792 c9e9e920     ...-"..<.... ...
    2254:	87cece49 aa5555ff 50282878 a5dfdf7a     I....UU.x((Pz...
    2264:	038c8c8f 59a1a1f8 09898980 1a0d0d17     .......Y........
    2274:	65bfbfda d7e6e631 844242c6 d06868b8     ...e1....BB..hh.
    2284:	824141c3 299999b0 5a2d2d77 1e0f0f11     .AA....)w--Z....
    2294:	7bb0b0cb a85454fc 6dbbbbd6 2c16163a     ...{.TT....m:..,
    22a4:	a5c66363 84f87c7c 99ee7777 8df67b7b     cc..||..ww..{{..
    22b4:	0dfff2f2 bdd66b6b b1de6f6f 5491c5c5     ....kk..oo.....T
    22c4:	50603030 03020101 a9ce6767 7d562b2b     00`P....gg..++V}
    22d4:	19e7fefe 62b5d7d7 e64dabab 9aec7676     .......b..M.vv..
    22e4:	458fcaca 9d1f8282 4089c9c9 87fa7d7d     ...E.......@}}..
    22f4:	15effafa ebb25959 c98e4747 0bfbf0f0     ....YY..GG......
    2304:	ec41adad 67b3d4d4 fd5fa2a2 ea45afaf     ..A....g.._...E.
    2314:	bf239c9c f753a4a4 96e47272 5b9bc0c0     ..#...S.rr.....[
    2324:	c275b7b7 1ce1fdfd ae3d9393 6a4c2626     ..u.......=.&&Lj
    2334:	5a6c3636 417e3f3f 02f5f7f7 4f83cccc     66lZ??~A.......O
    2344:	5c683434 f451a5a5 34d1e5e5 08f9f1f1     44h\..Q....4....
    2354:	93e27171 73abd8d8 53623131 3f2a1515     qq.....s11bS..*?
    2364:	0c080404 5295c7c7 65462323 5e9dc3c3     .......R##Fe...^
    2374:	28301818 a1379696 0f0a0505 b52f9a9a     ..0(..7......./.
    2384:	090e0707 36241212 9b1b8080 3ddfe2e2     ......$6.......=
    2394:	26cdebeb 694e2727 cd7fb2b2 9fea7575     ...&''Ni....uu..
    23a4:	1b120909 9e1d8383 74582c2c 2e341a1a     ........,,Xt..4.
    23b4:	2d361b1b b2dc6e6e eeb45a5a fb5ba0a0     ..6-nn..ZZ....[.
    23c4:	f6a45252 4d763b3b 61b7d6d6 ce7db3b3     RR..;;vM...a..}.
    23d4:	7b522929 3edde3e3 715e2f2f 97138484     ))R{...>//^q....
    23e4:	f5a65353 68b9d1d1 00000000 2cc1eded     SS.....h.......,
    23f4:	60402020 1fe3fcfc c879b1b1 edb65b5b       @`......y.[[..
    2404:	bed46a6a 468dcbcb d967bebe 4b723939     jj.....F..g.99rK
    2414:	de944a4a d4984c4c e8b05858 4a85cfcf     JJ..LL..XX.....J
    2424:	6bbbd0d0 2ac5efef e54faaaa 16edfbfb     ...k...*..O.....
    2434:	c5864343 d79a4d4d 55663333 94118585     CC..MM..33fU....
    2444:	cf8a4545 10e9f9f9 06040202 81fe7f7f     EE..............
    2454:	f0a05050 44783c3c ba259f9f e34ba8a8     PP..<<xD..%...K.
    2464:	f3a25151 fe5da3a3 c0804040 8a058f8f     QQ....].@@......
    2474:	ad3f9292 bc219d9d 48703838 04f1f5f5     ..?...!.88pH....
    2484:	df63bcbc c177b6b6 75afdada 63422121     ..c...w....u!!Bc
    2494:	30201010 1ae5ffff 0efdf3f3 6dbfd2d2     .. 0...........m
    24a4:	4c81cdcd 14180c0c 35261313 2fc3ecec     ...L......&5.../
    24b4:	e1be5f5f a2359797 cc884444 392e1717     __....5.DD.....9
    24c4:	5793c4c4 f255a7a7 82fc7e7e 477a3d3d     ...W..U.~~..==zG
    24d4:	acc86464 e7ba5d5d 2b321919 95e67373     dd..]]....2+ss..
    24e4:	a0c06060 98198181 d19e4f4f 7fa3dcdc     ``......OO......
    24f4:	66442222 7e542a2a ab3b9090 830b8888     ""Df**T~..;.....
    2504:	ca8c4646 29c7eeee d36bb8b8 3c281414     FF.....)..k...(<
    2514:	79a7dede e2bc5e5e 1d160b0b 76addbdb     ...y^^.........v
    2524:	3bdbe0e0 56643232 4e743a3a 1e140a0a     ...;22dV::tN....
    2534:	db924949 0a0c0606 6c482424 e4b85c5c     II......$$Hl\\..
    2544:	5d9fc2c2 6ebdd3d3 ef43acac a6c46262     ...]...n..C.bb..
    2554:	a8399191 a4319595 37d3e4e4 8bf27979     ..9...1....7yy..
    2564:	32d5e7e7 438bc8c8 596e3737 b7da6d6d     ...2...C77nYmm..
    2574:	8c018d8d 64b1d5d5 d29c4e4e e049a9a9     .......dNN....I.
    2584:	b4d86c6c faac5656 07f3f4f4 25cfeaea     ll..VV.........%
    2594:	afca6565 8ef47a7a e947aeae 18100808     ee..zz....G.....
    25a4:	d56fbaba 88f07878 6f4a2525 725c2e2e     ..o.xx..%%Jo..\r
    25b4:	24381c1c f157a6a6 c773b4b4 5197c6c6     ..8$..W...s....Q
    25c4:	23cbe8e8 7ca1dddd 9ce87474 213e1f1f     ...#...|tt....>!
    25d4:	dd964b4b dc61bdbd 860d8b8b 850f8a8a     KK....a.........
    25e4:	90e07070 427c3e3e c471b5b5 aacc6666     pp..>>|B..q.ff..
    25f4:	d8904848 05060303 01f7f6f6 121c0e0e     HH..............
    2604:	a3c26161 5f6a3535 f9ae5757 d069b9b9     aa..55j_WW....i.
    2614:	91178686 5899c1c1 273a1d1d b9279e9e     .......X..:'..'.
    2624:	38d9e1e1 13ebf8f8 b32b9898 33221111     ...8......+..."3
    2634:	bbd26969 70a9d9d9 89078e8e a7339494     ii.....p......3.
    2644:	b62d9b9b 223c1e1e 92158787 20c9e9e9     ..-...<"....... 
    2654:	4987cece ffaa5555 78502828 7aa5dfdf     ...IUU..((Px...z
    2664:	8f038c8c f859a1a1 80098989 171a0d0d     ......Y.........
    2674:	da65bfbf 31d7e6e6 c6844242 b8d06868     ..e....1BB..hh..
    2684:	c3824141 b0299999 775a2d2d 111e0f0f     AA....).--Zw....
    2694:	cb7bb0b0 fca85454 d66dbbbb 3a2c1616     ..{.TT....m...,:
    26a4:	63a5c663 7c84f87c 7799ee77 7b8df67b     c..c|..|w..w{..{
    26b4:	f20dfff2 6bbdd66b 6fb1de6f c55491c5     ....k..ko..o..T.
    26c4:	30506030 01030201 67a9ce67 2b7d562b     0`P0....g..g+V}+
    26d4:	fe19e7fe d762b5d7 abe64dab 769aec76     ......b..M..v..v
    26e4:	ca458fca 829d1f82 c94089c9 7d87fa7d     ..E.......@.}..}
    26f4:	fa15effa 59ebb259 47c98e47 f00bfbf0     ....Y..YG..G....
    2704:	adec41ad d467b3d4 a2fd5fa2 afea45af     .A....g.._...E..
    2714:	9cbf239c a4f753a4 7296e472 c05b9bc0     .#...S..r..r..[.
    2724:	b7c275b7 fd1ce1fd 93ae3d93 266a4c26     .u.......=..&Lj&
    2734:	365a6c36 3f417e3f f702f5f7 cc4f83cc     6lZ6?~A?......O.
    2744:	345c6834 a5f451a5 e534d1e5 f108f9f1     4h\4.Q....4.....
    2754:	7193e271 d873abd8 31536231 153f2a15     q..q..s.1bS1.*?.
    2764:	040c0804 c75295c7 23654623 c35e9dc3     ......R.#Fe#..^.
    2774:	18283018 96a13796 050f0a05 9ab52f9a     .0(..7......./..
    2784:	07090e07 12362412 809b1b80 e23ddfe2     .....$6.......=.
    2794:	eb26cdeb 27694e27 b2cd7fb2 759fea75     ..&.'Ni'....u..u
    27a4:	091b1209 839e1d83 2c74582c 1a2e341a     ........,Xt,.4..
    27b4:	1b2d361b 6eb2dc6e 5aeeb45a a0fb5ba0     .6-.n..nZ..Z.[..
    27c4:	52f6a452 3b4d763b d661b7d6 b3ce7db3     R..R;vM;..a..}..
    27d4:	297b5229 e33edde3 2f715e2f 84971384     )R{)..>./^q/....
    27e4:	53f5a653 d168b9d1 00000000 ed2cc1ed     S..S..h.......,.
    27f4:	20604020 fc1fe3fc b1c879b1 5bedb65b      @` .....y..[..[
    2804:	6abed46a cb468dcb bed967be 394b7239     j..j..F..g..9rK9
    2814:	4ade944a 4cd4984c 58e8b058 cf4a85cf     J..JL..LX..X..J.
    2824:	d06bbbd0 ef2ac5ef aae54faa fb16edfb     ..k...*..O......
    2834:	43c58643 4dd79a4d 33556633 85941185     C..CM..M3fU3....
    2844:	45cf8a45 f910e9f9 02060402 7f81fe7f     E..E............
    2854:	50f0a050 3c44783c 9fba259f a8e34ba8     P..P<xD<.%...K..
    2864:	51f3a251 a3fe5da3 40c08040 8f8a058f     Q..Q.]..@..@....
    2874:	92ad3f92 9dbc219d 38487038 f504f1f5     .?...!..8pH8....
    2884:	bcdf63bc b6c177b6 da75afda 21634221     .c...w....u.!Bc!
    2894:	10302010 ff1ae5ff f30efdf3 d26dbfd2     . 0...........m.
    28a4:	cd4c81cd 0c14180c 13352613 ec2fc3ec     ..L......&5.../.
    28b4:	5fe1be5f 97a23597 44cc8844 17392e17     _.._.5..D..D..9.
    28c4:	c45793c4 a7f255a7 7e82fc7e 3d477a3d     ..W..U..~..~=zG=
    28d4:	64acc864 5de7ba5d 192b3219 7395e673     d..d]..].2+.s..s
    28e4:	60a0c060 81981981 4fd19e4f dc7fa3dc     `..`....O..O....
    28f4:	22664422 2a7e542a 90ab3b90 88830b88     "Df"*T~*.;......
    2904:	46ca8c46 ee29c7ee b8d36bb8 143c2814     F..F..)..k...(<.
    2914:	de79a7de 5ee2bc5e 0b1d160b db76addb     ..y.^..^......v.
    2924:	e03bdbe0 32566432 3a4e743a 0a1e140a     ..;.2dV2:tN:....
    2934:	49db9249 060a0c06 246c4824 5ce4b85c     I..I....$Hl$\..\
    2944:	c25d9fc2 d36ebdd3 acef43ac 62a6c462     ..]...n..C..b..b
    2954:	91a83991 95a43195 e437d3e4 798bf279     .9...1....7.y..y
    2964:	e732d5e7 c8438bc8 37596e37 6db7da6d     ..2...C.7nY7m..m
    2974:	8d8c018d d564b1d5 4ed29c4e a9e049a9     ......d.N..N.I..
    2984:	6cb4d86c 56faac56 f407f3f4 ea25cfea     l..lV..V......%.
    2994:	65afca65 7a8ef47a aee947ae 08181008     e..ez..z.G......
    29a4:	bad56fba 7888f078 256f4a25 2e725c2e     .o..x..x%Jo%.\r.
    29b4:	1c24381c a6f157a6 b4c773b4 c65197c6     .8$..W...s....Q.
    29c4:	e823cbe8 dd7ca1dd 749ce874 1f213e1f     ..#...|.t..t.>!.
    29d4:	4bdd964b bddc61bd 8b860d8b 8a850f8a     K..K.a..........
    29e4:	7090e070 3e427c3e b5c471b5 66aacc66     p..p>|B>.q..f..f
    29f4:	48d89048 03050603 f601f7f6 0e121c0e     H..H............
    2a04:	61a3c261 355f6a35 57f9ae57 b9d069b9     a..a5j_5W..W.i..
    2a14:	86911786 c15899c1 1d273a1d 9eb9279e     ......X..:'..'..
    2a24:	e138d9e1 f813ebf8 98b32b98 11332211     ..8......+..."3.
    2a34:	69bbd269 d970a9d9 8e89078e 94a73394     i..i..p......3..
    2a44:	9bb62d9b 1e223c1e 87921587 e920c9e9     .-...<"....... .
    2a54:	ce4987ce 55ffaa55 28785028 df7aa5df     ..I.U..U(Px(..z.
    2a64:	8c8f038c a1f859a1 89800989 0d171a0d     .....Y..........
    2a74:	bfda65bf e631d7e6 42c68442 68b8d068     .e....1.B..Bh..h
    2a84:	41c38241 99b02999 2d775a2d 0f111e0f     A..A.)..-Zw-....
    2a94:	b0cb7bb0 54fca854 bbd66dbb 163a2c16     .{..T..T.m...,:.
    2aa4:	6363a5c6 7c7c84f8 777799ee 7b7b8df6     ..cc..||..ww..{{
    2ab4:	f2f20dff 6b6bbdd6 6f6fb1de c5c55491     ......kk..oo.T..
    2ac4:	30305060 01010302 6767a9ce 2b2b7d56     `P00......ggV}++
    2ad4:	fefe19e7 d7d762b5 ababe64d 76769aec     .....b..M.....vv
    2ae4:	caca458f 82829d1f c9c94089 7d7d87fa     .E.......@....}}
    2af4:	fafa15ef 5959ebb2 4747c98e f0f00bfb     ......YY..GG....
    2b04:	adadec41 d4d467b3 a2a2fd5f afafea45     A....g.._...E...
    2b14:	9c9cbf23 a4a4f753 727296e4 c0c05b9b     #...S.....rr.[..
    2b24:	b7b7c275 fdfd1ce1 9393ae3d 26266a4c     u.......=...Lj&&
    2b34:	36365a6c 3f3f417e f7f702f5 cccc4f83     lZ66~A??.....O..
    2b44:	34345c68 a5a5f451 e5e534d1 f1f108f9     h\44Q....4......
    2b54:	717193e2 d8d873ab 31315362 15153f2a     ..qq.s..bS11*?..
    2b64:	04040c08 c7c75295 23236546 c3c35e9d     .....R..Fe##.^..
    2b74:	18182830 9696a137 05050f0a 9a9ab52f     0(..7......./...
    2b84:	0707090e 12123624 80809b1b e2e23ddf     ....$6.......=..
    2b94:	ebeb26cd 2727694e b2b2cd7f 75759fea     .&..Ni''......uu
    2ba4:	09091b12 83839e1d 2c2c7458 1a1a2e34     ........Xt,,4...
    2bb4:	1b1b2d36 6e6eb2dc 5a5aeeb4 a0a0fb5b     6-....nn..ZZ[...
    2bc4:	5252f6a4 3b3b4d76 d6d661b7 b3b3ce7d     ..RRvM;;.a..}...
    2bd4:	29297b52 e3e33edd 2f2f715e 84849713     R{)).>..^q//....
    2be4:	5353f5a6 d1d168b9 00000000 eded2cc1     ..SS.h.......,..
    2bf4:	20206040 fcfc1fe3 b1b1c879 5b5bedb6     @`  ....y.....[[
    2c04:	6a6abed4 cbcb468d bebed967 39394b72     ..jj.F..g...rK99
    2c14:	4a4ade94 4c4cd498 5858e8b0 cfcf4a85     ..JJ..LL..XX.J..
    2c24:	d0d06bbb efef2ac5 aaaae54f fbfb16ed     .k...*..O.......
    2c34:	4343c586 4d4dd79a 33335566 85859411     ..CC..MMfU33....
    2c44:	4545cf8a f9f910e9 02020604 7f7f81fe     ..EE............
    2c54:	5050f0a0 3c3c4478 9f9fba25 a8a8e34b     ..PPxD<<%...K...
    2c64:	5151f3a2 a3a3fe5d 4040c080 8f8f8a05     ..QQ].....@@....
    2c74:	9292ad3f 9d9dbc21 38384870 f5f504f1     ?...!...pH88....
    2c84:	bcbcdf63 b6b6c177 dada75af 21216342     c...w....u..Bc!!
    2c94:	10103020 ffff1ae5 f3f30efd d2d26dbf      0...........m..
    2ca4:	cdcd4c81 0c0c1418 13133526 ecec2fc3     .L......&5.../..
    2cb4:	5f5fe1be 9797a235 4444cc88 1717392e     ..__5.....DD.9..
    2cc4:	c4c45793 a7a7f255 7e7e82fc 3d3d477a     .W..U.....~~zG==
    2cd4:	6464acc8 5d5de7ba 19192b32 737395e6     ..dd..]]2+....ss
    2ce4:	6060a0c0 81819819 4f4fd19e dcdc7fa3     ..``......OO....
    2cf4:	22226644 2a2a7e54 9090ab3b 8888830b     Df""T~**;.......
    2d04:	4646ca8c eeee29c7 b8b8d36b 14143c28     ..FF.)..k...(<..
    2d14:	dede79a7 5e5ee2bc 0b0b1d16 dbdb76ad     .y....^^.....v..
    2d24:	e0e03bdb 32325664 3a3a4e74 0a0a1e14     .;..dV22tN::....
    2d34:	4949db92 06060a0c 24246c48 5c5ce4b8     ..II....Hl$$..\\
    2d44:	c2c25d9f d3d36ebd acacef43 6262a6c4     .]...n..C.....bb
    2d54:	9191a839 9595a431 e4e437d3 79798bf2     9...1....7....yy
    2d64:	e7e732d5 c8c8438b 3737596e 6d6db7da     .2...C..nY77..mm
    2d74:	8d8d8c01 d5d564b1 4e4ed29c a9a9e049     .....d....NNI...
    2d84:	6c6cb4d8 5656faac f4f407f3 eaea25cf     ..ll..VV.....%..
    2d94:	6565afca 7a7a8ef4 aeaee947 08081810     ..ee..zzG.......
    2da4:	babad56f 787888f0 25256f4a 2e2e725c     o.....xxJo%%\r..
    2db4:	1c1c2438 a6a6f157 b4b4c773 c6c65197     8$..W...s....Q..
    2dc4:	e8e823cb dddd7ca1 74749ce8 1f1f213e     .#...|....tt>!..
    2dd4:	4b4bdd96 bdbddc61 8b8b860d 8a8a850f     ..KKa...........
    2de4:	707090e0 3e3e427c b5b5c471 6666aacc     ..pp|B>>q.....ff
    2df4:	4848d890 03030506 f6f601f7 0e0e121c     ..HH............
    2e04:	6161a3c2 35355f6a 5757f9ae b9b9d069     ..aaj_55..WWi...
    2e14:	86869117 c1c15899 1d1d273a 9e9eb927     .....X..:'..'...
    2e24:	e1e138d9 f8f813eb 9898b32b 11113322     .8......+..."3..
    2e34:	6969bbd2 d9d970a9 8e8e8907 9494a733     ..ii.p......3...
    2e44:	9b9bb62d 1e1e223c 87879215 e9e920c9     -...<"....... ..
    2e54:	cece4987 5555ffaa 28287850 dfdf7aa5     .I....UUPx((.z..
    2e64:	8c8c8f03 a1a1f859 89898009 0d0d171a     ....Y...........
    2e74:	bfbfda65 e6e631d7 4242c684 6868b8d0     e....1....BB..hh
    2e84:	4141c382 9999b029 2d2d775a 0f0f111e     ..AA)...Zw--....
    2e94:	b0b0cb7b 5454fca8 bbbbd66d 16163a2c     {.....TTm...,:..

00002ea4 <Td>:
    2ea4:	51f4a750 7e416553 1a17a4c3 3a275e96     P..QSeA~.....^':
    2eb4:	3bab6bcb 1f9d45f1 acfa58ab 4be30393     .k.;.E...X.....K
    2ec4:	2030fa55 ad766df6 88cc7691 f5024c25     U.0 .mv..v..%L..
    2ed4:	4fe5d7fc c52acbd7 26354480 b562a38f     ...O..*..D5&..b.
    2ee4:	deb15a49 25ba1b67 45ea0e98 5dfec0e1     IZ..g..%...E...]
    2ef4:	c32f7502 814cf012 8d4697a3 6bd3f9c6     .u/...L...F....k
    2f04:	038f5fe7 15929c95 bf6d7aeb 955259da     ._.......zm..YR.
    2f14:	d4be832d 587421d3 49e06929 8ec9c844     -....!tX)i.ID...
    2f24:	75c2896a f48e7978 99583e6b 27b971dd     j..uxy..k>X..q.'
    2f34:	bee14fb6 f088ad17 c920ac66 7dce3ab4     .O......f. ..:.}
    2f44:	63df4a18 e51a3182 97513360 62537f45     .J.c.1..`3Q.E.Sb
    2f54:	b16477e0 bb6bae84 fe81a01c f9082b94     .wd...k......+..
    2f64:	70486858 8f45fd19 94de6c87 527bf8b7     XhHp..E..l....{R
    2f74:	ab73d323 724b02e2 e31f8f57 6655ab2a     #.s...KrW...*.Uf
    2f84:	b2eb2807 2fb5c203 86c57b9a d33708a5     .(...../.{....7.
    2f94:	302887f2 23bfa5b2 02036aba ed16825c     ..(0...#.j..\...
    2fa4:	8acf1c2b a779b492 f307f2f0 4e69e2a1     +.....y.......iN
    2fb4:	65daf4cd 0605bed5 d134621f c4a6fe8a     ...e.....b4.....
    2fc4:	342e539d a2f355a0 058ae132 a4f6eb75     .S.4.U..2...u...
    2fd4:	0b83ec39 4060efaa 5e719f06 bd6e1051     9.....`@..q^Q.n.
    2fe4:	3e218af9 96dd063d dd3e05ae 4de6bd46     ..!>=.....>.F..M
    2ff4:	91548db5 71c45d05 0406d46f 605015ff     ..T..].qo.....P`
    3004:	1998fb24 d6bde997 894043cc 67d99e77     $........C@.w..g
    3014:	b0e842bd 07898b88 e7195b38 79c8eedb     .B......8[.....y
    3024:	a17c0a47 7c420fe9 f8841ec9 00000000     G.|...B|........
    3034:	09808683 322bed48 1e1170ac 6c5a724e     ....H.+2.p..NrZl
    3044:	fd0efffb 0f853856 3daed51e 362d3927     ....V8.....='9-6
    3054:	0a0fd964 685ca621 9b5b54d1 24362e3a     d...!.\h.T[.:.6$
    3064:	0c0a67b1 9357e70f b4ee96d2 1b9b919e     .g....W.........
    3074:	80c0c54f 61dc20a2 5a774b69 1c121a16     O.... .aiKwZ....
    3084:	e293ba0a c0a02ae5 3c22e043 121b171d     .....*..C."<....
    3094:	0e090d0b f28bc7ad 2db6a8b9 141ea9c8     ...........-....
    30a4:	57f11985 af75074c ee99ddbb a37f60fd     ...WL.u......`..
    30b4:	f701269f 5c72f5bc 44663bc5 5bfb7e34     .&....r\.;fD4~.[
    30c4:	8b432976 cb23c6dc b6edfc68 b8e4f163     v)C...#.h...c...
    30d4:	d731dcca 42638510 13972240 84c61120     ..1...cB@".. ...
    30e4:	854a247d d2bb3df8 aef93211 c729a16d     }$J..=...2..m.).
    30f4:	1d9e2f4b dcb230f3 0d8652ec 77c1e3d0     K/...0...R.....w
    3104:	2bb3166c a970b999 119448fa 47e96422     l..+..p..H.."d.G
    3114:	a8fc8cc4 a0f03f1a 567d2cd8 223390ef     .....?...,}V..3"
    3124:	87494ec7 d938d1c1 8ccaa2fe 98d40b36     .NI...8.....6...
    3134:	a6f581cf a57ade28 dab78e26 3fadbfa4     ....(.z.&......?
    3144:	2c3a9de4 5078920d 6a5fcc9b 547e4662     ..:,..xP.._jbF~T
    3154:	f68d13c2 90d8b8e8 2e39f75e 82c3aff5     ........^.9.....
    3164:	9f5d80be 69d0937c 6fd52da9 cf2512b3     ..].|..i.-.o..%.
    3174:	c8ac993b 10187da7 e89c636e db3bbb7b     ;....}..nc..{.;.
    3184:	cd267809 6e5918f4 ec9ab701 834f9aa8     .x&...Yn......O.
    3194:	e6956e65 aaffe67e 21bccf08 ef15e8e6     en..~......!....
    31a4:	bae79bd9 4a6f36ce ea9f09d4 29b07cd6     .....6oJ.....|.)
    31b4:	31a4b2af 2a3f2331 c6a59430 35a266c0     ...11#?*0....f.5
    31c4:	744ebc37 fc82caa6 e090d0b0 33a7d815     7.Nt...........3
    31d4:	f104984a 41ecdaf7 7fcd500e 1791f62f     J......A.P../...
    31e4:	764dd68d 43efb04d ccaa4d54 e49604df     ..MvM..CTM......
    31f4:	9ed1b5e3 4c6a881b c12c1fb8 4665517f     ......jL..,..QeF
    3204:	9d5eea04 018c355d fa877473 fb0b412e     ..^.]5..st...A..
    3214:	b3671d5a 92dbd252 e9105633 6dd64713     Z.g.R...3V...G.m
    3224:	9ad7618c 37a10c7a 59f8148e eb133c89     .a..z..7...Y.<..
    3234:	cea927ee b761c935 e11ce5ed 7a47b13c     .'..5.a.....<.Gz
    3244:	9cd2df59 55f2733f 1814ce79 73c737bf     Y...?s.Uy....7.s
    3254:	53f7cdea 5ffdaa5b df3d6f14 7844db86     ...S[.._.o=...Dx
    3264:	caaff381 b968c43e 3824342c c2a3405f     ....>.h.,4$8_@..
    3274:	161dc372 bce2250c 283c498b ff0d9541     r....%...I<(A...
    3284:	39a80171 080cb3de d8b4e49c 6456c190     q..9..........Vd
    3294:	7bcb8461 d532b670 486c5c74 d0b85742     a..{p.2.t\lHBW..
    32a4:	5051f4a7 537e4165 c31a17a4 963a275e     ..QPeA~S....^':.
    32b4:	cb3bab6b f11f9d45 abacfa58 934be303     k.;.E...X.....K.
    32c4:	552030fa f6ad766d 9188cc76 25f5024c     .0 Umv..v...L..%
    32d4:	fc4fe5d7 d7c52acb 80263544 8fb562a3     ..O..*..D5&..b..
    32e4:	49deb15a 6725ba1b 9845ea0e e15dfec0     Z..I..%g..E...].
    32f4:	02c32f75 12814cf0 a38d4697 c66bd3f9     u/...L...F....k.
    3304:	e7038f5f 9515929c ebbf6d7a da955259     _.......zm..YR..
    3314:	2dd4be83 d3587421 2949e069 448ec9c8     ...-!tX.i.I)...D
    3324:	6a75c289 78f48e79 6b99583e dd27b971     ..ujy..x>X.kq.'.
    3334:	b6bee14f 17f088ad 66c920ac b47dce3a     O........ .f:.}.
    3344:	1863df4a 82e51a31 60975133 4562537f     J.c.1...3Q.`.SbE
    3354:	e0b16477 84bb6bae 1cfe81a0 94f9082b     wd...k......+...
    3364:	58704868 198f45fd 8794de6c b7527bf8     hHpX.E..l....{R.
    3374:	23ab73d3 e2724b02 57e31f8f 2a6655ab     .s.#.Kr....W.Uf*
    3384:	07b2eb28 032fb5c2 9a86c57b a5d33708     (...../.{....7..
    3394:	f2302887 b223bfa5 ba02036a 5ced1682     .(0...#.j......\
    33a4:	2b8acf1c 92a779b4 f0f307f2 a14e69e2     ...+.y.......iN.
    33b4:	cd65daf4 d50605be 1fd13462 8ac4a6fe     ..e.....b4......
    33c4:	9d342e53 a0a2f355 32058ae1 75a4f6eb     S.4.U......2...u
    33d4:	390b83ec aa4060ef 065e719f 51bd6e10     ...9.`@..q^..n.Q
    33e4:	f93e218a 3d96dd06 aedd3e05 464de6bd     .!>....=.>....MF
    33f4:	b591548d 0571c45d 6f0406d4 ff605015     .T..].q....o.P`.
    3404:	241998fb 97d6bde9 cc894043 7767d99e     ...$....C@....gw
    3414:	bdb0e842 8807898b 38e7195b db79c8ee     B.......[..8..y.
    3424:	47a17c0a e97c420f c9f8841e 00000000     .|.G.B|.........
    3434:	83098086 48322bed ac1e1170 4e6c5a72     .....+2Hp...rZlN
    3444:	fbfd0eff 560f8538 1e3daed5 27362d39     ....8..V..=.9-6'
    3454:	640a0fd9 21685ca6 d19b5b54 3a24362e     ...d.\h!T[...6$:
    3464:	b10c0a67 0f9357e7 d2b4ee96 9e1b9b91     g....W..........
    3474:	4f80c0c5 a261dc20 695a774b 161c121a     ...O .a.KwZi....
    3484:	0ae293ba e5c0a02a 433c22e0 1d121b17     ....*...."<C....
    3494:	0b0e090d adf28bc7 b92db6a8 c8141ea9     ..........-.....
    34a4:	8557f119 4caf7507 bbee99dd fda37f60     ..W..u.L....`...
    34b4:	9ff70126 bc5c72f5 c544663b 345bfb7e     &....r\.;fD.~.[4
    34c4:	768b4329 dccb23c6 68b6edfc 63b8e4f1     )C.v.#.....h...c
    34d4:	cad731dc 10426385 40139722 2084c611     .1...cB."..@... 
    34e4:	7d854a24 f8d2bb3d 11aef932 6dc729a1     $J.}=...2....).m
    34f4:	4b1d9e2f f3dcb230 ec0d8652 d077c1e3     /..K0...R.....w.
    3504:	6c2bb316 99a970b9 fa119448 2247e964     ..+l.p..H...d.G"
    3514:	c4a8fc8c 1aa0f03f d8567d2c ef223390     ....?...,}V..3".
    3524:	c787494e c1d938d1 fe8ccaa2 3698d40b     NI...8.........6
    3534:	cfa6f581 28a57ade 26dab78e a43fadbf     .....z.(...&..?.
    3544:	e42c3a9d 0d507892 9b6a5fcc 62547e46     .:,..xP.._j.F~Tb
    3554:	c2f68d13 e890d8b8 5e2e39f7 f582c3af     .........9.^....
    3564:	be9f5d80 7c69d093 a96fd52d b3cf2512     .]....i|-.o..%..
    3574:	3bc8ac99 a710187d 6ee89c63 7bdb3bbb     ...;}...c..n.;.{
    3584:	09cd2678 f46e5918 01ec9ab7 a8834f9a     x&...Yn......O..
    3594:	65e6956e 7eaaffe6 0821bccf e6ef15e8     n..e...~..!.....
    35a4:	d9bae79b ce4a6f36 d4ea9f09 d629b07c     ....6oJ.....|.).
    35b4:	af31a4b2 312a3f23 30c6a594 c035a266     ..1.#?*1...0f.5.
    35c4:	37744ebc a6fc82ca b0e090d0 1533a7d8     .Nt7..........3.
    35d4:	4af10498 f741ecda 0e7fcd50 2f1791f6     ...J..A.P....../
    35e4:	8d764dd6 4d43efb0 54ccaa4d dfe49604     .Mv...CMM..T....
    35f4:	e39ed1b5 1b4c6a88 b8c12c1f 7f466551     .....jL..,..QeF.
    3604:	049d5eea 5d018c35 73fa8774 2efb0b41     .^..5..]t..sA...
    3614:	5ab3671d 5292dbd2 33e91056 136dd647     .g.Z...RV..3G.m.
    3624:	8c9ad761 7a37a10c 8e59f814 89eb133c     a.....7z..Y.<...
    3634:	eecea927 35b761c9 ede11ce5 3c7a47b1     '....a.5.....Gz<
    3644:	599cd2df 3f55f273 791814ce bf73c737     ...Ys.U?...y7.s.
    3654:	ea53f7cd 5b5ffdaa 14df3d6f 867844db     ..S..._[o=...Dx.
    3664:	81caaff3 3eb968c4 2c382434 5fc2a340     .....h.>4$8,@.._
    3674:	72161dc3 0cbce225 8b283c49 41ff0d95     ...r%...I<(....A
    3684:	7139a801 de080cb3 9cd8b4e4 906456c1     ..9q.........Vd.
    3694:	617bcb84 70d532b6 74486c5c 42d0b857     ..{a.2.p\lHtW..B
    36a4:	a75051f4 65537e41 a4c31a17 5e963a27     .QP.A~Se....':.^
    36b4:	6bcb3bab 45f11f9d 58abacfa 03934be3     .;.k...E...X.K..
    36c4:	fa552030 6df6ad76 769188cc 4c25f502     0 U.v..m...v..%L
    36d4:	d7fc4fe5 cbd7c52a 44802635 a38fb562     .O..*...5&.Db...
    36e4:	5a49deb1 1b6725ba 0e9845ea c0e15dfe     ..IZ.%g..E...]..
    36f4:	7502c32f f012814c 97a38d46 f9c66bd3     /..uL...F....k..
    3704:	5fe7038f 9c951592 7aebbf6d 59da9552     ..._....m..zR..Y
    3714:	832dd4be 21d35874 692949e0 c8448ec9     ..-.tX.!.I)i..D.
    3724:	896a75c2 7978f48e 3e6b9958 71dd27b9     .uj...xyX.k>.'.q
    3734:	4fb6bee1 ad17f088 ac66c920 3ab47dce     ...O.... .f..}.:
    3744:	4a1863df 3182e51a 33609751 7f456253     .c.J...1Q.`3SbE.
    3754:	77e0b164 ae84bb6b a01cfe81 2b94f908     d..wk..........+
    3764:	68587048 fd198f45 6c8794de f8b7527b     HpXhE......l{R..
    3774:	d323ab73 02e2724b 8f57e31f ab2a6655     s.#.Kr....W.Uf*.
    3784:	2807b2eb c2032fb5 7b9a86c5 08a5d337     ...(./.....{7...
    3794:	87f23028 a5b223bf 6aba0203 825ced16     (0...#.....j..\.
    37a4:	1c2b8acf b492a779 f2f0f307 e2a14e69     ..+.y.......iN..
    37b4:	f4cd65da bed50605 621fd134 fe8ac4a6     .e......4..b....
    37c4:	539d342e 55a0a2f3 e132058a eb75a4f6     .4.S...U..2...u.
    37d4:	ec390b83 efaa4060 9f065e71 1051bd6e     ..9.`@..q^..n.Q.
    37e4:	8af93e21 063d96dd 05aedd3e bd464de6     !>....=.>....MF.
    37f4:	8db59154 5d0571c4 d46f0406 15ff6050     T....q.]..o.P`..
    3804:	fb241998 e997d6bd 43cc8940 9e7767d9     ..$.....@..C.gw.
    3814:	42bdb0e8 8b880789 5b38e719 eedb79c8     ...B......8[.y..
    3824:	0a47a17c 0fe97c42 1ec9f884 00000000     |.G.B|..........
    3834:	86830980 ed48322b 70ac1e11 724e6c5a     ....+2H....pZlNr
    3844:	fffbfd0e 38560f85 d51e3dae 3927362d     ......V8.=..-6'9
    3854:	d9640a0f a621685c 54d19b5b 2e3a2436     ..d.\h!.[..T6$:.
    3864:	67b10c0a e70f9357 96d2b4ee 919e1b9b     ...gW...........
    3874:	c54f80c0 20a261dc 4b695a77 1a161c12     ..O..a. wZiK....
    3884:	ba0ae293 2ae5c0a0 e0433c22 171d121b     .......*"<C.....
    3894:	0d0b0e09 c7adf28b a8b92db6 a9c8141e     .........-......
    38a4:	198557f1 074caf75 ddbbee99 60fda37f     .W..u.L........`
    38b4:	269ff701 f5bc5c72 3bc54466 7e345bfb     ...&r\..fD.;.[4~
    38c4:	29768b43 c6dccb23 fc68b6ed f163b8e4     C.v)#.....h...c.
    38d4:	dccad731 85104263 22401397 112084c6     1...cB....@".. .
    38e4:	247d854a 3df8d2bb 3211aef9 a16dc729     J.}$...=...2).m.
    38f4:	2f4b1d9e 30f3dcb2 52ec0d86 e3d077c1     ..K/...0...R.w..
    3904:	166c2bb3 b999a970 48fa1194 642247e9     .+l.p......H.G"d
    3914:	8cc4a8fc 3f1aa0f0 2cd8567d 90ef2233     .......?}V.,3"..
    3924:	4ec78749 d1c1d938 a2fe8cca 0b3698d4     I..N8.........6.
    3934:	81cfa6f5 de28a57a 8e26dab7 bfa43fad     ....z.(...&..?..
    3944:	9de42c3a 920d5078 cc9b6a5f 4662547e     :,..xP.._j..~TbF
    3954:	13c2f68d b8e890d8 f75e2e39 aff582c3     ........9.^.....
    3964:	80be9f5d 937c69d0 2da96fd5 12b3cf25     ]....i|..o.-%...
    3974:	993bc8ac 7da71018 636ee89c bb7bdb3b     ..;....}..nc;.{.
    3984:	7809cd26 18f46e59 b701ec9a 9aa8834f     &..xYn......O...
    3994:	6e65e695 e67eaaff cf0821bc e8e6ef15     ..en..~..!......
    39a4:	9bd9bae7 36ce4a6f 09d4ea9f 7cd629b0     ....oJ.6.....).|
    39b4:	b2af31a4 23312a3f 9430c6a5 66c035a2     .1..?*1#..0..5.f
    39c4:	bc37744e caa6fc82 d0b0e090 d81533a7     Nt7..........3..
    39d4:	984af104 daf741ec 500e7fcd f62f1791     ..J..A.....P../.
    39e4:	d68d764d b04d43ef 4d54ccaa 04dfe496     Mv...CM...TM....
    39f4:	b5e39ed1 881b4c6a 1fb8c12c 517f4665     ....jL..,...eF.Q
    3a04:	ea049d5e 355d018c 7473fa87 412efb0b     ^.....]5..st...A
    3a14:	1d5ab367 d25292db 5633e910 47136dd6     g.Z...R...3V.m.G
    3a24:	618c9ad7 0c7a37a1 148e59f8 3c89eb13     ...a.7z..Y.....<
    3a34:	27eecea9 c935b761 e5ede11c b13c7a47     ...'a.5.....Gz<.
    3a44:	df599cd2 733f55f2 ce791814 37bf73c7     ..Y..U?s..y..s.7
    3a54:	cdea53f7 aa5b5ffd 6f14df3d db867844     .S..._[.=..oDx..
    3a64:	f381caaf c43eb968 342c3824 405fc2a3     ....h.>.$8,4.._@
    3a74:	c372161d 250cbce2 498b283c 9541ff0d     ..r....%<(.I..A.
    3a84:	017139a8 b3de080c e49cd8b4 c1906456     .9q.........Vd..
    3a94:	84617bcb b670d532 5c74486c 5742d0b8     .{a.2.p.lHt\..BW
    3aa4:	f4a75051 4165537e 17a4c31a 275e963a     QP..~SeA....:.^'
    3ab4:	ab6bcb3b 9d45f11f fa58abac e303934b     ;.k...E...X.K...
    3ac4:	30fa5520 766df6ad cc769188 024c25f5      U.0..mv..v..%L.
    3ad4:	e5d7fc4f 2acbd7c5 35448026 62a38fb5     O......*&.D5...b
    3ae4:	b15a49de ba1b6725 ea0e9845 fec0e15d     .IZ.%g..E...]...
    3af4:	2f7502c3 4cf01281 4697a38d d3f9c66b     ..u/...L...Fk...
    3b04:	8f5fe703 929c9515 6d7aebbf 5259da95     .._.......zm..YR
    3b14:	be832dd4 7421d358 e0692949 c9c8448e     .-..X.!tI)i..D..
    3b24:	c2896a75 8e7978f4 583e6b99 b971dd27     uj...xy..k>X'.q.
    3b34:	e14fb6be 88ad17f0 20ac66c9 ce3ab47d     ..O......f. }.:.
    3b44:	df4a1863 1a3182e5 51336097 537f4562     c.J...1..`3QbE.S
    3b54:	6477e0b1 6bae84bb 81a01cfe 082b94f9     ..wd...k......+.
    3b64:	48685870 45fd198f de6c8794 7bf8b752     pXhH...E..l.R..{
    3b74:	73d323ab 4b02e272 1f8f57e3 55ab2a66     .#.sr..K.W..f*.U
    3b84:	eb2807b2 b5c2032f c57b9a86 3708a5d3     ..(./.....{....7
    3b94:	2887f230 bfa5b223 036aba02 16825ced     0..(#.....j..\..
    3ba4:	cf1c2b8a 79b492a7 07f2f0f3 69e2a14e     .+.....y....N..i
    3bb4:	daf4cd65 05bed506 34621fd1 a6fe8ac4     e.........b4....
    3bc4:	2e539d34 f355a0a2 8ae13205 f6eb75a4     4.S...U..2...u..
    3bd4:	83ec390b 60efaa40 719f065e 6e1051bd     .9..@..`^..q.Q.n
    3be4:	218af93e dd063d96 3e05aedd e6bd464d     >..!.=.....>MF..
    3bf4:	548db591 c45d0571 06d46f04 5015ff60     ...Tq.]..o..`..P
    3c04:	98fb2419 bde997d6 4043cc89 d99e7767     .$........C@gw..
    3c14:	e842bdb0 898b8807 195b38e7 c8eedb79     ..B......8[.y...
    3c24:	7c0a47a1 420fe97c 841ec9f8 00000000     .G.||..B........
    3c34:	80868309 2bed4832 1170ac1e 5a724e6c     ....2H.+..p.lNrZ
    3c44:	0efffbfd 8538560f aed51e3d 2d392736     .....V8.=...6'9-
    3c54:	0fd9640a 5ca62168 5b54d19b 362e3a24     .d..h!.\..T[$:.6
    3c64:	0a67b10c 57e70f93 ee96d2b4 9b919e1b     ..g....W........
    3c74:	c0c54f80 dc20a261 774b695a 121a161c     .O..a. .ZiKw....
    3c84:	93ba0ae2 a02ae5c0 22e0433c 1b171d12     ......*.<C."....
    3c94:	090d0b0e 8bc7adf2 b6a8b92d 1ea9c814     ........-.......
    3ca4:	f1198557 75074caf 99ddbbee 7f60fda3     W....L.u......`.
    3cb4:	01269ff7 72f5bc5c 663bc544 fb7e345b     ..&.\..rD.;f[4~.
    3cc4:	4329768b 23c6dccb edfc68b6 e4f163b8     .v)C...#.h...c..
    3cd4:	31dccad7 63851042 97224013 c6112084     ...1B..c.@".. ..
    3ce4:	4a247d85 bb3df8d2 f93211ae 29a16dc7     .}$J..=...2..m.)
    3cf4:	9e2f4b1d b230f3dc 8652ec0d c1e3d077     .K/...0...R.w...
    3d04:	b3166c2b 70b999a9 9448fa11 e9642247     +l.....p..H.G"d.
    3d14:	fc8cc4a8 f03f1aa0 7d2cd856 3390ef22     ......?.V.,}"..3
    3d24:	494ec787 38d1c1d9 caa2fe8c d40b3698     ..NI...8.....6..
    3d34:	f581cfa6 7ade28a5 b78e26da adbfa43f     .....(.z.&..?...
    3d44:	3a9de42c 78920d50 5fcc9b6a 7e466254     ,..:P..xj.._TbF~
    3d54:	8d13c2f6 d8b8e890 39f75e2e c3aff582     .........^.9....
    3d64:	5d80be9f d0937c69 d52da96f 2512b3cf     ...]i|..o.-....%
    3d74:	ac993bc8 187da710 9c636ee8 3bbb7bdb     .;....}..nc..{.;
    3d84:	267809cd 5918f46e 9ab701ec 4f9aa883     ..x&n..Y.......O
    3d94:	956e65e6 ffe67eaa bccf0821 15e8e6ef     .en..~..!.......
    3da4:	e79bd9ba 6f36ce4a 9f09d4ea b07cd629     ....J.6o....).|.
    3db4:	a4b2af31 3f23312a a59430c6 a266c035     1...*1#?.0..5.f.
    3dc4:	4ebc3774 82caa6fc 90d0b0e0 a7d81533     t7.N........3...
    3dd4:	04984af1 ecdaf741 cd500e7f 91f62f17     .J..A.....P../..
    3de4:	4dd68d76 efb04d43 aa4d54cc 9604dfe4     v..MCM...TM.....
    3df4:	d1b5e39e 6a881b4c 2c1fb8c1 65517f46     ....L..j...,F.Qe
    3e04:	5eea049d 8c355d01 877473fa 0b412efb     ...^.]5..st...A.
    3e14:	671d5ab3 dbd25292 105633e9 d647136d     .Z.g.R...3V.m.G.
    3e24:	d7618c9a a10c7a37 f8148e59 133c89eb     ..a.7z..Y.....<.
    3e34:	a927eece 61c935b7 1ce5ede1 47b13c7a     ..'..5.a....z<.G
    3e44:	d2df599c f2733f55 14ce7918 c737bf73     .Y..U?s..y..s.7.
    3e54:	f7cdea53 fdaa5b5f 3d6f14df 44db8678     S..._[....o=x..D
    3e64:	aff381ca 68c43eb9 24342c38 a3405fc2     .....>.h8,4$._@.
    3e74:	1dc37216 e2250cbc 3c498b28 0d9541ff     .r....%.(.I<.A..
    3e84:	a8017139 0cb3de08 b4e49cd8 56c19064     9q..........d..V
    3e94:	cb84617b 32b670d5 6c5c7448 b85742d0     {a...p.2Ht\l.BW.

00003ea4 <Td4>:
    3ea4:	d56a0952 38a53630 9ea340bf fbd7f381     R.j.06.8.@......
    3eb4:	8239e37c 87ff2f9b 44438e34 cbe9dec4     |.9../..4.CD....
    3ec4:	32947b54 3d23c2a6 0b954cee 4ec3fa42     T{.2..#=.L..B..N
    3ed4:	66a12e08 b224d928 49a25b76 25d18b6d     ...f(.$.v[.Im..%
    3ee4:	64f6f872 16986886 cc5ca4d4 92b6655d     r..d.h....\.]e..
    3ef4:	5048706c dab9edfd 5746155e 849d8da7     lpHP....^.FW....
    3f04:	00abd890 0ad3bc8c 0558e4f7 0645b3b8     ..........X...E.
    3f14:	8f1e2cd0 020f3fca 03bdafc1 6b8a1301     .,...?.........k
    3f24:	4111913a eadc674f cecff297 73e6b4f0     :..AOg.........s
    3f34:	2274ac96 8535ade7 e837f9e2 6edf751c     ..t"..5...7..u.n
    3f44:	711af147 89c5291d 0e62b76f 1bbe18aa     G..q.)..o.b.....
    3f54:	4b3e56fc 2079d2c6 fec0db9a f45acd78     .V>K..y ....x.Z.
    3f64:	33a8dd1f 31c70788 591012b1 5fec8027     ...3...1...Y'.._
    3f74:	a97f5160 0d4ab519 9f7ae52d ef9cc993     `Q....J.-.z.....
    3f84:	4d3be0a0 b0f52aae 3cbbebc8 61995383     ..;M.*.....<.S.a
    3f94:	7e042b17 26d677ba 631469e1 7d0c2155     .+.~.w.&.i.cU!.}

00003fa4 <__sf_fake_stderr>:
	...

00003fc4 <__sf_fake_stdin>:
	...

00003fe4 <__sf_fake_stdout>:
	...

00004004 <_init>:
    4004:	b5f8      	push	{r3, r4, r5, r6, r7, lr}
    4006:	46c0      	nop			; (mov r8, r8)
    4008:	bcf8      	pop	{r3, r4, r5, r6, r7}
    400a:	bc08      	pop	{r3}
    400c:	469e      	mov	lr, r3
    400e:	4770      	bx	lr

00004010 <__init_array_start>:
    4010:	000000dd 	.word	0x000000dd

00004014 <_fini>:
    4014:	b5f8      	push	{r3, r4, r5, r6, r7, lr}
    4016:	46c0      	nop			; (mov r8, r8)
    4018:	bcf8      	pop	{r3, r4, r5, r6, r7}
    401a:	bc08      	pop	{r3}
    401c:	469e      	mov	lr, r3
    401e:	4770      	bx	lr

00004020 <__fini_array_start>:
    4020:	000000b5 	.word	0x000000b5
