
AES-256_mbedTLS_library.elf:     file format elf32-littlearm

Sections:
Idx Name          Size      VMA       LMA       File off  Algn
  0 .text         00004944  00000000  00000000  00010000  2**2
                  CONTENTS, ALLOC, LOAD, READONLY, CODE
  1 .relocate     00000088  20000000  00004944  00020000  2**2
                  CONTENTS, ALLOC, LOAD, DATA
  2 .lpram        00000000  30000000  30000000  00020088  2**0
                  CONTENTS
  3 .bss          00000280  20000088  000049cc  00020088  2**2
                  ALLOC
  4 .stack        00002000  20000308  00004c4c  00020088  2**0
                  ALLOC
  5 .ARM.attributes 00000028  00000000  00000000  00020088  2**0
                  CONTENTS, READONLY
  6 .comment      00000059  00000000  00000000  000200b0  2**0
                  CONTENTS, READONLY
  7 .debug_info   00012df9  00000000  00000000  00020109  2**0
                  CONTENTS, READONLY, DEBUGGING
  8 .debug_abbrev 00002ee8  00000000  00000000  00032f02  2**0
                  CONTENTS, READONLY, DEBUGGING
  9 .debug_loc    00009bdf  00000000  00000000  00035dea  2**0
                  CONTENTS, READONLY, DEBUGGING
 10 .debug_aranges 00000548  00000000  00000000  0003f9c9  2**0
                  CONTENTS, READONLY, DEBUGGING
 11 .debug_ranges 00000fb0  00000000  00000000  0003ff11  2**0
                  CONTENTS, READONLY, DEBUGGING
 12 .debug_macro  0001bc9e  00000000  00000000  00040ec1  2**0
                  CONTENTS, READONLY, DEBUGGING
 13 .debug_line   0000e282  00000000  00000000  0005cb5f  2**0
                  CONTENTS, READONLY, DEBUGGING
 14 .debug_str    00090c5d  00000000  00000000  0006ade1  2**0
                  CONTENTS, READONLY, DEBUGGING
 15 .debug_frame  00000f4c  00000000  00000000  000fba40  2**2
                  CONTENTS, READONLY, DEBUGGING

Disassembly of section .text:

00000000 <exception_table>:
       0:	08 23 00 20 2d 01 00 00 29 01 00 00 29 01 00 00     .#. -...)...)...
	...
      2c:	29 01 00 00 00 00 00 00 00 00 00 00 29 01 00 00     )...........)...
      3c:	29 01 00 00 29 01 00 00 29 01 00 00 29 01 00 00     )...)...)...)...
      4c:	29 01 00 00 6d 04 00 00 29 01 00 00 29 01 00 00     )...m...)...)...
      5c:	29 01 00 00 29 01 00 00 29 01 00 00 29 01 00 00     )...)...)...)...
      6c:	29 01 00 00 29 01 00 00 29 01 00 00 29 01 00 00     )...)...)...)...
      7c:	29 01 00 00 29 01 00 00 29 01 00 00 29 01 00 00     )...)...)...)...
      8c:	29 01 00 00 29 01 00 00 29 01 00 00 29 01 00 00     )...)...)...)...
      9c:	29 01 00 00 29 01 00 00 29 01 00 00 29 01 00 00     )...)...)...)...
      ac:	29 01 00 00 00 00 00 00                             ).......

000000b4 <__do_global_dtors_aux>:
      b4:	b510      	push	{r4, lr}
      b6:	4c06      	ldr	r4, [pc, #24]	; (d0 <__do_global_dtors_aux+0x1c>)
      b8:	7823      	ldrb	r3, [r4, #0]
      ba:	2b00      	cmp	r3, #0
      bc:	d107      	bne.n	ce <__do_global_dtors_aux+0x1a>
      be:	4b05      	ldr	r3, [pc, #20]	; (d4 <__do_global_dtors_aux+0x20>)
      c0:	2b00      	cmp	r3, #0
      c2:	d002      	beq.n	ca <__do_global_dtors_aux+0x16>
      c4:	4804      	ldr	r0, [pc, #16]	; (d8 <__do_global_dtors_aux+0x24>)
      c6:	e000      	b.n	ca <__do_global_dtors_aux+0x16>
      c8:	bf00      	nop
      ca:	2301      	movs	r3, #1
      cc:	7023      	strb	r3, [r4, #0]
      ce:	bd10      	pop	{r4, pc}
      d0:	20000088 	.word	0x20000088
      d4:	00000000 	.word	0x00000000
      d8:	00004944 	.word	0x00004944

000000dc <frame_dummy>:
      dc:	4b08      	ldr	r3, [pc, #32]	; (100 <frame_dummy+0x24>)
      de:	b510      	push	{r4, lr}
      e0:	2b00      	cmp	r3, #0
      e2:	d003      	beq.n	ec <frame_dummy+0x10>
      e4:	4907      	ldr	r1, [pc, #28]	; (104 <frame_dummy+0x28>)
      e6:	4808      	ldr	r0, [pc, #32]	; (108 <frame_dummy+0x2c>)
      e8:	e000      	b.n	ec <frame_dummy+0x10>
      ea:	bf00      	nop
      ec:	4807      	ldr	r0, [pc, #28]	; (10c <frame_dummy+0x30>)
      ee:	6803      	ldr	r3, [r0, #0]
      f0:	2b00      	cmp	r3, #0
      f2:	d100      	bne.n	f6 <frame_dummy+0x1a>
      f4:	bd10      	pop	{r4, pc}
      f6:	4b06      	ldr	r3, [pc, #24]	; (110 <frame_dummy+0x34>)
      f8:	2b00      	cmp	r3, #0
      fa:	d0fb      	beq.n	f4 <frame_dummy+0x18>
      fc:	4798      	blx	r3
      fe:	e7f9      	b.n	f4 <frame_dummy+0x18>
     100:	00000000 	.word	0x00000000
     104:	2000008c 	.word	0x2000008c
     108:	00004944 	.word	0x00004944
     10c:	00004944 	.word	0x00004944
     110:	00000000 	.word	0x00000000

00000114 <atmel_start_init>:

/**
 * Initializes MCU, drivers and middleware in the project
 **/
void atmel_start_init(void)
{
     114:	b510      	push	{r4, lr}
	system_init();
     116:	4b02      	ldr	r3, [pc, #8]	; (120 <atmel_start_init+0xc>)
     118:	4798      	blx	r3
	
	gpio_init();
     11a:	4b02      	ldr	r3, [pc, #8]	; (124 <atmel_start_init+0x10>)
     11c:	4798      	blx	r3
}
     11e:	bd10      	pop	{r4, pc}
     120:	000001b1 	.word	0x000001b1
     124:	00000219 	.word	0x00000219

00000128 <Dummy_Handler>:

/**
 * \brief Default interrupt handler for unused IRQs.
 */
void Dummy_Handler(void)
{
     128:	e7fe      	b.n	128 <Dummy_Handler>
     12a:	46c0      	nop			; (mov r8, r8)

0000012c <Reset_Handler>:
        if (pSrc != pDest) {
     12c:	4914      	ldr	r1, [pc, #80]	; (180 <Reset_Handler+0x54>)
     12e:	4815      	ldr	r0, [pc, #84]	; (184 <Reset_Handler+0x58>)
{
     130:	b510      	push	{r4, lr}
        if (pSrc != pDest) {
     132:	4281      	cmp	r1, r0
     134:	d009      	beq.n	14a <Reset_Handler+0x1e>
                for (; pDest < &_erelocate;) {
     136:	4b14      	ldr	r3, [pc, #80]	; (188 <Reset_Handler+0x5c>)
     138:	4298      	cmp	r0, r3
     13a:	d206      	bcs.n	14a <Reset_Handler+0x1e>
                        *pDest++ = *pSrc++;
     13c:	43c2      	mvns	r2, r0
     13e:	18d2      	adds	r2, r2, r3
     140:	0892      	lsrs	r2, r2, #2
     142:	3201      	adds	r2, #1
     144:	0092      	lsls	r2, r2, #2
     146:	4b11      	ldr	r3, [pc, #68]	; (18c <Reset_Handler+0x60>)
     148:	4798      	blx	r3
        for (pDest = &_szero; pDest < &_ezero;) {
     14a:	4811      	ldr	r0, [pc, #68]	; (190 <Reset_Handler+0x64>)
     14c:	4b11      	ldr	r3, [pc, #68]	; (194 <Reset_Handler+0x68>)
     14e:	4298      	cmp	r0, r3
     150:	d207      	bcs.n	162 <Reset_Handler+0x36>
                *pDest++ = 0;
     152:	43c2      	mvns	r2, r0
     154:	18d2      	adds	r2, r2, r3
     156:	0892      	lsrs	r2, r2, #2
     158:	3201      	adds	r2, #1
     15a:	0092      	lsls	r2, r2, #2
     15c:	2100      	movs	r1, #0
     15e:	4b0e      	ldr	r3, [pc, #56]	; (198 <Reset_Handler+0x6c>)
     160:	4798      	blx	r3
        SCB->VTOR = ((uint32_t) pSrc & SCB_VTOR_TBLOFF_Msk);
     162:	21ff      	movs	r1, #255	; 0xff
     164:	4b0d      	ldr	r3, [pc, #52]	; (19c <Reset_Handler+0x70>)
     166:	4a0e      	ldr	r2, [pc, #56]	; (1a0 <Reset_Handler+0x74>)
     168:	438b      	bics	r3, r1
     16a:	6093      	str	r3, [r2, #8]
        NVMCTRL->CTRLB.bit.MANW = 1;
     16c:	4a0d      	ldr	r2, [pc, #52]	; (1a4 <Reset_Handler+0x78>)
     16e:	397f      	subs	r1, #127	; 0x7f
     170:	6853      	ldr	r3, [r2, #4]
     172:	430b      	orrs	r3, r1
     174:	6053      	str	r3, [r2, #4]
        __libc_init_array();
     176:	4b0c      	ldr	r3, [pc, #48]	; (1a8 <Reset_Handler+0x7c>)
     178:	4798      	blx	r3
        main();
     17a:	4b0c      	ldr	r3, [pc, #48]	; (1ac <Reset_Handler+0x80>)
     17c:	4798      	blx	r3
     17e:	e7fe      	b.n	17e <Reset_Handler+0x52>
     180:	00004944 	.word	0x00004944
     184:	20000000 	.word	0x20000000
     188:	20000088 	.word	0x20000088
     18c:	00001e3d 	.word	0x00001e3d
     190:	20000088 	.word	0x20000088
     194:	20000308 	.word	0x20000308
     198:	00001e4f 	.word	0x00001e4f
     19c:	00000000 	.word	0x00000000
     1a0:	e000ed00 	.word	0xe000ed00
     1a4:	41004000 	.word	0x41004000
     1a8:	00001dcd 	.word	0x00001dcd
     1ac:	00000911 	.word	0x00000911

000001b0 <system_init>:
{
	delay_init(SysTick);
}

void system_init(void)
{
     1b0:	b510      	push	{r4, lr}
 * Currently the following initialization functions are supported:
 *  - System clock initialization
 */
static inline void init_mcu(void)
{
	_init_chip();
     1b2:	4b11      	ldr	r3, [pc, #68]	; (1f8 <system_init+0x48>)
     1b4:	4798      	blx	r3
	((Port *)hw)->Group[submodule_index].OUTCLR.reg = ~data;
}

static inline void hri_port_clear_OUT_reg(const void *const hw, uint8_t submodule_index, hri_port_out_reg_t mask)
{
	((Port *)hw)->Group[submodule_index].OUTCLR.reg = mask;
     1b6:	23c0      	movs	r3, #192	; 0xc0
     1b8:	2280      	movs	r2, #128	; 0x80
     1ba:	2194      	movs	r1, #148	; 0x94

static inline void hri_port_write_WRCONFIG_reg(const void *const hw, uint8_t submodule_index,
                                               hri_port_wrconfig_reg_t data)
{
	PORT_CRITICAL_SECTION_ENTER();
	((Port *)hw)->Group[submodule_index].WRCONFIG.reg = data;
     1bc:	20c0      	movs	r0, #192	; 0xc0
	((Port *)hw)->Group[submodule_index].OUTCLR.reg = mask;
     1be:	05db      	lsls	r3, r3, #23
     1c0:	00d2      	lsls	r2, r2, #3
     1c2:	505a      	str	r2, [r3, r1]
	((Port *)hw)->Group[submodule_index].DIRSET.reg = mask;
     1c4:	390c      	subs	r1, #12
     1c6:	505a      	str	r2, [r3, r1]
	((Port *)hw)->Group[submodule_index].WRCONFIG.reg = data;
     1c8:	4a0c      	ldr	r2, [pc, #48]	; (1fc <system_init+0x4c>)
     1ca:	4b0d      	ldr	r3, [pc, #52]	; (200 <system_init+0x50>)
     1cc:	3120      	adds	r1, #32
     1ce:	0600      	lsls	r0, r0, #24
     1d0:	505a      	str	r2, [r3, r1]
     1d2:	5058      	str	r0, [r3, r1]
	tmp = ((Port *)hw)->Group[submodule_index].PINCFG[index].reg;
     1d4:	20ca      	movs	r0, #202	; 0xca
	tmp &= ~PORT_PINCFG_PMUXEN;
     1d6:	2401      	movs	r4, #1
	tmp = ((Port *)hw)->Group[submodule_index].PINCFG[index].reg;
     1d8:	5c19      	ldrb	r1, [r3, r0]
	tmp &= ~PORT_PINCFG_PMUXEN;
     1da:	43a1      	bics	r1, r4
	((Port *)hw)->Group[submodule_index].PINCFG[index].reg = tmp;
     1dc:	5419      	strb	r1, [r3, r0]
}

static inline void hri_mclk_set_AHBMASK_NVMCTRL_bit(const void *const hw)
{
	MCLK_CRITICAL_SECTION_ENTER();
	((Mclk *)hw)->AHBMASK.reg |= MCLK_AHBMASK_NVMCTRL;
     1de:	2380      	movs	r3, #128	; 0x80
     1e0:	6911      	ldr	r1, [r2, #16]
     1e2:	005b      	lsls	r3, r3, #1
     1e4:	430b      	orrs	r3, r1
     1e6:	6113      	str	r3, [r2, #16]
	flash_init(&FLASH_0, NVMCTRL);
     1e8:	4906      	ldr	r1, [pc, #24]	; (204 <system_init+0x54>)
     1ea:	4b07      	ldr	r3, [pc, #28]	; (208 <system_init+0x58>)
     1ec:	4807      	ldr	r0, [pc, #28]	; (20c <system_init+0x5c>)
     1ee:	4798      	blx	r3
	delay_init(SysTick);
     1f0:	4807      	ldr	r0, [pc, #28]	; (210 <system_init+0x60>)
     1f2:	4b08      	ldr	r3, [pc, #32]	; (214 <system_init+0x64>)
     1f4:	4798      	blx	r3
	gpio_set_pin_function(LED0, GPIO_PIN_FUNCTION_OFF);

	FLASH_0_init();

	delay_driver_init();
}
     1f6:	bd10      	pop	{r4, pc}
     1f8:	00000395 	.word	0x00000395
     1fc:	40000400 	.word	0x40000400
     200:	40002800 	.word	0x40002800
     204:	41004000 	.word	0x41004000
     208:	0000031d 	.word	0x0000031d
     20c:	200002e8 	.word	0x200002e8
     210:	e000e010 	.word	0xe000e010
     214:	000002d1 	.word	0x000002d1

00000218 <gpio_init>:
	((Port *)hw)->Group[submodule_index].OUTCLR.reg = mask;
     218:	22c0      	movs	r2, #192	; 0xc0

#include "driver_init.h"
#include "gpio_init.h"

void gpio_init(void)
{
     21a:	b5f0      	push	{r4, r5, r6, r7, lr}
     21c:	2302      	movs	r3, #2
     21e:	46c6      	mov	lr, r8
     220:	2194      	movs	r1, #148	; 0x94
     222:	05d2      	lsls	r2, r2, #23
     224:	b500      	push	{lr}
     226:	2780      	movs	r7, #128	; 0x80
     228:	5053      	str	r3, [r2, r1]
     22a:	2080      	movs	r0, #128	; 0x80
     22c:	2180      	movs	r1, #128	; 0x80
	((Port *)hw)->Group[submodule_index].DIRSET.reg = mask;
     22e:	2688      	movs	r6, #136	; 0x88
	((Port *)hw)->Group[submodule_index].OUTCLR.reg = mask;
     230:	0249      	lsls	r1, r1, #9
     232:	037f      	lsls	r7, r7, #13
     234:	0380      	lsls	r0, r0, #14
     236:	6151      	str	r1, [r2, #20]
     238:	4680      	mov	r8, r0
     23a:	6157      	str	r7, [r2, #20]
     23c:	6150      	str	r0, [r2, #20]
	((Port *)hw)->Group[submodule_index].WRCONFIG.reg = data;
     23e:	20a8      	movs	r0, #168	; 0xa8
	((Port *)hw)->Group[submodule_index].DIRSET.reg = mask;
     240:	5193      	str	r3, [r2, r6]
	((Port *)hw)->Group[submodule_index].WRCONFIG.reg = data;
     242:	4d1c      	ldr	r5, [pc, #112]	; (2b4 <gpio_init+0x9c>)
     244:	4b1c      	ldr	r3, [pc, #112]	; (2b8 <gpio_init+0xa0>)
     246:	4c1d      	ldr	r4, [pc, #116]	; (2bc <gpio_init+0xa4>)
     248:	501d      	str	r5, [r3, r0]
     24a:	25c0      	movs	r5, #192	; 0xc0
     24c:	062d      	lsls	r5, r5, #24
     24e:	501d      	str	r5, [r3, r0]
	((Port *)hw)->Group[submodule_index].DIRSET.reg = mask;
     250:	6091      	str	r1, [r2, #8]
	((Port *)hw)->Group[submodule_index].WRCONFIG.reg = data;
     252:	2180      	movs	r1, #128	; 0x80
     254:	05c9      	lsls	r1, r1, #23
     256:	6299      	str	r1, [r3, #40]	; 0x28
     258:	629c      	str	r4, [r3, #40]	; 0x28
	((Port *)hw)->Group[submodule_index].DIRSET.reg = mask;
     25a:	4644      	mov	r4, r8
     25c:	6097      	str	r7, [r2, #8]
	((Port *)hw)->Group[submodule_index].WRCONFIG.reg = data;
     25e:	4f18      	ldr	r7, [pc, #96]	; (2c0 <gpio_init+0xa8>)
     260:	6299      	str	r1, [r3, #40]	; 0x28
     262:	629f      	str	r7, [r3, #40]	; 0x28
	((Port *)hw)->Group[submodule_index].DIRSET.reg = mask;
     264:	6094      	str	r4, [r2, #8]
	tmp = ((Port *)hw)->Group[submodule_index].PINCFG[index].reg;
     266:	27c1      	movs	r7, #193	; 0xc1
	((Port *)hw)->Group[submodule_index].WRCONFIG.reg = data;
     268:	6299      	str	r1, [r3, #40]	; 0x28
     26a:	4916      	ldr	r1, [pc, #88]	; (2c4 <gpio_init+0xac>)
     26c:	6299      	str	r1, [r3, #40]	; 0x28
	tmp &= ~PORT_PINCFG_PMUXEN;
     26e:	2101      	movs	r1, #1
	tmp = ((Port *)hw)->Group[submodule_index].PINCFG[index].reg;
     270:	5ddc      	ldrb	r4, [r3, r7]
	tmp &= ~PORT_PINCFG_PMUXEN;
     272:	438c      	bics	r4, r1
	((Port *)hw)->Group[submodule_index].PINCFG[index].reg = tmp;
     274:	55dc      	strb	r4, [r3, r7]
	tmp = ((Port *)hw)->Group[submodule_index].PINCFG[index].reg;
     276:	3f71      	subs	r7, #113	; 0x71
     278:	5ddc      	ldrb	r4, [r3, r7]
	tmp &= ~PORT_PINCFG_PMUXEN;
     27a:	438c      	bics	r4, r1
	((Port *)hw)->Group[submodule_index].PINCFG[index].reg = tmp;
     27c:	55dc      	strb	r4, [r3, r7]
	tmp = ((Port *)hw)->Group[submodule_index].PINCFG[index].reg;
     27e:	3704      	adds	r7, #4
     280:	5ddc      	ldrb	r4, [r3, r7]
	tmp &= ~PORT_PINCFG_PMUXEN;
     282:	438c      	bics	r4, r1
	((Port *)hw)->Group[submodule_index].PINCFG[index].reg = tmp;
     284:	55dc      	strb	r4, [r3, r7]
	tmp = ((Port *)hw)->Group[submodule_index].PINCFG[index].reg;
     286:	3701      	adds	r7, #1
     288:	5ddc      	ldrb	r4, [r3, r7]
	tmp &= ~PORT_PINCFG_PMUXEN;
     28a:	438c      	bics	r4, r1
	((Port *)hw)->Group[submodule_index].PINCFG[index].reg = tmp;
     28c:	55dc      	strb	r4, [r3, r7]
	((Port *)hw)->Group[submodule_index].OUTSET.reg = mask;
     28e:	2480      	movs	r4, #128	; 0x80
     290:	3743      	adds	r7, #67	; 0x43
     292:	00e4      	lsls	r4, r4, #3
     294:	51d4      	str	r4, [r2, r7]
	((Port *)hw)->Group[submodule_index].DIRSET.reg = mask;
     296:	5194      	str	r4, [r2, r6]
	((Port *)hw)->Group[submodule_index].WRCONFIG.reg = data;
     298:	4a0b      	ldr	r2, [pc, #44]	; (2c8 <gpio_init+0xb0>)
     29a:	501a      	str	r2, [r3, r0]
     29c:	501d      	str	r5, [r3, r0]
	tmp = ((Port *)hw)->Group[submodule_index].PINCFG[index].reg;
     29e:	3022      	adds	r0, #34	; 0x22
     2a0:	5c1a      	ldrb	r2, [r3, r0]
	tmp &= ~PORT_PINCFG_PMUXEN;
     2a2:	438a      	bics	r2, r1
	((Port *)hw)->Group[submodule_index].PINCFG[index].reg = tmp;
     2a4:	541a      	strb	r2, [r3, r0]
	gpio_set_pin_direction(LED0, GPIO_DIRECTION_OUT);

	gpio_set_pin_function(LED0, GPIO_PIN_FUNCTION_OFF);
#endif

	delay_ms(10);
     2a6:	38c0      	subs	r0, #192	; 0xc0
     2a8:	4b08      	ldr	r3, [pc, #32]	; (2cc <gpio_init+0xb4>)
     2aa:	4798      	blx	r3
     2ac:	bc04      	pop	{r2}
     2ae:	4690      	mov	r8, r2
     2b0:	bdf0      	pop	{r4, r5, r6, r7, pc}
     2b2:	46c0      	nop			; (mov r8, r8)
     2b4:	40000002 	.word	0x40000002
     2b8:	40002800 	.word	0x40002800
     2bc:	c0000001 	.word	0xc0000001
     2c0:	c0000010 	.word	0xc0000010
     2c4:	c0000020 	.word	0xc0000020
     2c8:	40000400 	.word	0x40000400
     2cc:	000002e5 	.word	0x000002e5

000002d0 <delay_init>:

/**
 * \brief Initialize Delay driver
 */
void delay_init(void *const hw)
{
     2d0:	b510      	push	{r4, lr}
	_delay_init(hardware = hw);
     2d2:	4b02      	ldr	r3, [pc, #8]	; (2dc <delay_init+0xc>)
     2d4:	6018      	str	r0, [r3, #0]
     2d6:	4b02      	ldr	r3, [pc, #8]	; (2e0 <delay_init+0x10>)
     2d8:	4798      	blx	r3
}
     2da:	bd10      	pop	{r4, pc}
     2dc:	200000a4 	.word	0x200000a4
     2e0:	0000073d 	.word	0x0000073d

000002e4 <delay_ms>:
/**
 * \brief Perform delay in ms
 */
void delay_ms(const uint16_t ms)
{
	_delay_cycles(hardware, _get_cycles_for_ms(ms));
     2e4:	4b04      	ldr	r3, [pc, #16]	; (2f8 <delay_ms+0x14>)
{
     2e6:	b510      	push	{r4, lr}
	_delay_cycles(hardware, _get_cycles_for_ms(ms));
     2e8:	681c      	ldr	r4, [r3, #0]
     2ea:	4b04      	ldr	r3, [pc, #16]	; (2fc <delay_ms+0x18>)
     2ec:	4798      	blx	r3
     2ee:	4b04      	ldr	r3, [pc, #16]	; (300 <delay_ms+0x1c>)
     2f0:	0001      	movs	r1, r0
     2f2:	0020      	movs	r0, r4
     2f4:	4798      	blx	r3
}
     2f6:	bd10      	pop	{r4, pc}
     2f8:	200000a4 	.word	0x200000a4
     2fc:	00000389 	.word	0x00000389
     300:	00000751 	.word	0x00000751

00000304 <flash_ready>:
 * \param[in] device The pointer to flash device structure
 */
static void flash_ready(struct _flash_device *device)
{
	struct flash_descriptor *const descr = CONTAINER_OF(device, struct flash_descriptor, dev);
	if (descr->callbacks.cb_ready) {
     304:	6943      	ldr	r3, [r0, #20]
{
     306:	b510      	push	{r4, lr}
	if (descr->callbacks.cb_ready) {
     308:	2b00      	cmp	r3, #0
     30a:	d000      	beq.n	30e <flash_ready+0xa>
		descr->callbacks.cb_ready(descr);
     30c:	4798      	blx	r3
	}
}
     30e:	bd10      	pop	{r4, pc}

00000310 <flash_error>:
 * \param[in] device The pointer to flash device structure
 */
static void flash_error(struct _flash_device *device)
{
	struct flash_descriptor *const descr = CONTAINER_OF(device, struct flash_descriptor, dev);
	if (descr->callbacks.cb_error) {
     310:	6983      	ldr	r3, [r0, #24]
{
     312:	b510      	push	{r4, lr}
	if (descr->callbacks.cb_error) {
     314:	2b00      	cmp	r3, #0
     316:	d000      	beq.n	31a <flash_error+0xa>
		descr->callbacks.cb_error(descr);
     318:	4798      	blx	r3
	}
}
     31a:	bd10      	pop	{r4, pc}

0000031c <flash_init>:
{
     31c:	b570      	push	{r4, r5, r6, lr}
     31e:	0004      	movs	r4, r0
     320:	000d      	movs	r5, r1
	ASSERT(flash && hw);
     322:	2800      	cmp	r0, #0
     324:	d012      	beq.n	34c <flash_init+0x30>
     326:	0008      	movs	r0, r1
     328:	1e43      	subs	r3, r0, #1
     32a:	4198      	sbcs	r0, r3
     32c:	b2c0      	uxtb	r0, r0
     32e:	4908      	ldr	r1, [pc, #32]	; (350 <flash_init+0x34>)
     330:	4b08      	ldr	r3, [pc, #32]	; (354 <flash_init+0x38>)
     332:	2238      	movs	r2, #56	; 0x38
     334:	4798      	blx	r3
	rc = _flash_init(&flash->dev, hw);
     336:	0029      	movs	r1, r5
     338:	0020      	movs	r0, r4
     33a:	4b07      	ldr	r3, [pc, #28]	; (358 <flash_init+0x3c>)
     33c:	4798      	blx	r3
	if (rc) {
     33e:	2800      	cmp	r0, #0
     340:	d103      	bne.n	34a <flash_init+0x2e>
	flash->dev.flash_cb.ready_cb = flash_ready;
     342:	4b06      	ldr	r3, [pc, #24]	; (35c <flash_init+0x40>)
     344:	6023      	str	r3, [r4, #0]
	flash->dev.flash_cb.error_cb = flash_error;
     346:	4b06      	ldr	r3, [pc, #24]	; (360 <flash_init+0x44>)
     348:	6063      	str	r3, [r4, #4]
}
     34a:	bd70      	pop	{r4, r5, r6, pc}
     34c:	2000      	movs	r0, #0
     34e:	e7ee      	b.n	32e <flash_init+0x12>
     350:	00001fd8 	.word	0x00001fd8
     354:	00000365 	.word	0x00000365
     358:	0000040d 	.word	0x0000040d
     35c:	00000305 	.word	0x00000305
     360:	00000311 	.word	0x00000311

00000364 <assert>:
/**
 * \brief Assert function
 */
void assert(const bool condition, const char *const file, const int line)
{
	if (!(condition)) {
     364:	2800      	cmp	r0, #0
     366:	d100      	bne.n	36a <assert+0x6>
		__asm("BKPT #0");
     368:	be00      	bkpt	0x0000
	}
	(void)file;
	(void)line;
}
     36a:	4770      	bx	lr

0000036c <_sbrk>:
extern caddr_t _sbrk(int incr)
{
	static unsigned char *heap = NULL;
	unsigned char *       prev_heap;

	if (heap == NULL) {
     36c:	4a04      	ldr	r2, [pc, #16]	; (380 <_sbrk+0x14>)
     36e:	6813      	ldr	r3, [r2, #0]
     370:	2b00      	cmp	r3, #0
     372:	d003      	beq.n	37c <_sbrk+0x10>
		heap = (unsigned char *)&_end;
	}
	prev_heap = heap;

	heap += incr;
     374:	1818      	adds	r0, r3, r0
     376:	6010      	str	r0, [r2, #0]

	return (caddr_t)prev_heap;
}
     378:	0018      	movs	r0, r3
     37a:	4770      	bx	lr
     37c:	4b01      	ldr	r3, [pc, #4]	; (384 <_sbrk+0x18>)
     37e:	e7f9      	b.n	374 <_sbrk+0x8>
     380:	200000a8 	.word	0x200000a8
     384:	20002308 	.word	0x20002308

00000388 <_get_cycles_for_ms>:
 */
static inline uint32_t _get_cycles_for_ms_internal(const uint16_t ms, const uint32_t freq, const uint8_t power)
{
	switch (power) {
	case 8:
		return (ms * (freq / 100000)) * 100;
     388:	4b01      	ldr	r3, [pc, #4]	; (390 <_get_cycles_for_ms+0x8>)
     38a:	4358      	muls	r0, r3
 * \brief Retrieve the amount of cycles to delay for the given amount of ms
 */
uint32_t _get_cycles_for_ms(const uint16_t ms)
{
	return _get_cycles_for_ms_internal(ms, CONF_CPU_FREQUENCY, CPU_FREQ_POWER);
}
     38c:	4770      	bx	lr
     38e:	46c0      	nop			; (mov r8, r8)
     390:	00002ee0 	.word	0x00002ee0

00000394 <_init_chip>:

/**
 * \brief Initialize the hardware abstraction layer
 */
void _init_chip(void)
{
     394:	b510      	push	{r4, lr}
}

static inline void hri_nvmctrl_set_CTRLB_RWS_bf(const void *const hw, hri_nvmctrl_ctrlb_reg_t mask)
{
	NVMCTRL_CRITICAL_SECTION_ENTER();
	((Nvmctrl *)hw)->CTRLB.reg |= NVMCTRL_CTRLB_RWS(mask);
     396:	4b09      	ldr	r3, [pc, #36]	; (3bc <_init_chip+0x28>)
	hri_nvmctrl_set_CTRLB_RWS_bf(NVMCTRL, CONF_NVM_WAIT_STATE);

	_set_performance_level(2);
     398:	2002      	movs	r0, #2
     39a:	685a      	ldr	r2, [r3, #4]
     39c:	605a      	str	r2, [r3, #4]
     39e:	4b08      	ldr	r3, [pc, #32]	; (3c0 <_init_chip+0x2c>)
     3a0:	4798      	blx	r3

	_osc32kctrl_init_sources();
     3a2:	4b08      	ldr	r3, [pc, #32]	; (3c4 <_init_chip+0x30>)
     3a4:	4798      	blx	r3
	_oscctrl_init_sources();
     3a6:	4b08      	ldr	r3, [pc, #32]	; (3c8 <_init_chip+0x34>)
     3a8:	4798      	blx	r3
	_mclk_init();
     3aa:	4b08      	ldr	r3, [pc, #32]	; (3cc <_init_chip+0x38>)
     3ac:	4798      	blx	r3
#if _GCLK_INIT_1ST
	_gclk_init_generators_by_fref(_GCLK_INIT_1ST);
#endif
	_oscctrl_init_referenced_generators();
     3ae:	4b08      	ldr	r3, [pc, #32]	; (3d0 <_init_chip+0x3c>)
     3b0:	4798      	blx	r3
	_gclk_init_generators_by_fref(_GCLK_INIT_LAST);
     3b2:	20ff      	movs	r0, #255	; 0xff
     3b4:	4b07      	ldr	r3, [pc, #28]	; (3d4 <_init_chip+0x40>)
     3b6:	4798      	blx	r3
#endif

#if (CONF_PORT_EVCTRL_PORT_0 | CONF_PORT_EVCTRL_PORT_1 | CONF_PORT_EVCTRL_PORT_2 | CONF_PORT_EVCTRL_PORT_3)
	_port_event_init();
#endif
}
     3b8:	bd10      	pop	{r4, pc}
     3ba:	46c0      	nop			; (mov r8, r8)
     3bc:	41004000 	.word	0x41004000
     3c0:	00000719 	.word	0x00000719
     3c4:	000006c9 	.word	0x000006c9
     3c8:	000006e1 	.word	0x000006e1
     3cc:	000003f9 	.word	0x000003f9
     3d0:	00000715 	.word	0x00000715
     3d4:	000003d9 	.word	0x000003d9

000003d8 <_gclk_init_generators_by_fref>:

void _gclk_init_generators_by_fref(uint32_t bm)
{

#if CONF_GCLK_GENERATOR_0_CONFIG == 1
	if (bm & (1ul << 0)) {
     3d8:	07c3      	lsls	r3, r0, #31
     3da:	d506      	bpl.n	3ea <_gclk_init_generators_by_fref+0x12>
}

static inline void hri_gclk_write_GENCTRL_reg(const void *const hw, uint8_t index, hri_gclk_genctrl_reg_t data)
{
	GCLK_CRITICAL_SECTION_ENTER();
	((Gclk *)hw)->GENCTRL[index].reg = data;
     3dc:	4a03      	ldr	r2, [pc, #12]	; (3ec <_gclk_init_generators_by_fref+0x14>)
     3de:	4b04      	ldr	r3, [pc, #16]	; (3f0 <_gclk_init_generators_by_fref+0x18>)
	while (((Gclk *)hw)->SYNCBUSY.reg & reg) {
     3e0:	4904      	ldr	r1, [pc, #16]	; (3f4 <_gclk_init_generators_by_fref+0x1c>)
	((Gclk *)hw)->GENCTRL[index].reg = data;
     3e2:	6213      	str	r3, [r2, #32]
	while (((Gclk *)hw)->SYNCBUSY.reg & reg) {
     3e4:	6853      	ldr	r3, [r2, #4]
     3e6:	420b      	tst	r3, r1
     3e8:	d1fc      	bne.n	3e4 <_gclk_init_generators_by_fref+0xc>
		        | (CONF_GCLK_GEN_8_DIVSEL << GCLK_GENCTRL_DIVSEL_Pos) | (CONF_GCLK_GEN_8_OE << GCLK_GENCTRL_OE_Pos)
		        | (CONF_GCLK_GEN_8_OOV << GCLK_GENCTRL_OOV_Pos) | (CONF_GCLK_GEN_8_IDC << GCLK_GENCTRL_IDC_Pos)
		        | (CONF_GCLK_GENERATOR_8_CONFIG << GCLK_GENCTRL_GENEN_Pos) | CONF_GCLK_GEN_8_SOURCE);
	}
#endif
}
     3ea:	4770      	bx	lr
     3ec:	40001800 	.word	0x40001800
     3f0:	00010106 	.word	0x00010106
     3f4:	000007fd 	.word	0x000007fd

000003f8 <_mclk_init>:
	((Mclk *)hw)->BUPDIV.reg = data;
     3f8:	2208      	movs	r2, #8
     3fa:	4b03      	ldr	r3, [pc, #12]	; (408 <_mclk_init+0x10>)
     3fc:	719a      	strb	r2, [r3, #6]
	((Mclk *)hw)->LPDIV.reg = data;
     3fe:	3a04      	subs	r2, #4
     400:	715a      	strb	r2, [r3, #5]
	((Mclk *)hw)->CPUDIV.reg = data;
     402:	3a03      	subs	r2, #3
     404:	711a      	strb	r2, [r3, #4]
{
	void *hw = (void *)MCLK;
	hri_mclk_write_BUPDIV_reg(hw, MCLK_BUPDIV_BUPDIV(CONF_MCLK_BUPDIV));
	hri_mclk_write_LPDIV_reg(hw, MCLK_LPDIV_LPDIV(CONF_MCLK_LPDIV));
	hri_mclk_write_CPUDIV_reg(hw, MCLK_CPUDIV_CPUDIV(CONF_MCLK_CPUDIV));
}
     406:	4770      	bx	lr
     408:	40000400 	.word	0x40000400

0000040c <_flash_init>:

/**
 * \brief Initialize NVM
 */
int32_t _flash_init(struct _flash_device *const device, void *const hw)
{
     40c:	b570      	push	{r4, r5, r6, lr}
     40e:	0005      	movs	r5, r0
     410:	000c      	movs	r4, r1
	ASSERT(device && (hw == NVMCTRL));
     412:	2800      	cmp	r0, #0
     414:	d01d      	beq.n	452 <_flash_init+0x46>
     416:	4b10      	ldr	r3, [pc, #64]	; (458 <_flash_init+0x4c>)
     418:	18c8      	adds	r0, r1, r3
     41a:	4243      	negs	r3, r0
     41c:	4158      	adcs	r0, r3
     41e:	b2c0      	uxtb	r0, r0
     420:	2246      	movs	r2, #70	; 0x46
     422:	490e      	ldr	r1, [pc, #56]	; (45c <_flash_init+0x50>)
     424:	4b0e      	ldr	r3, [pc, #56]	; (460 <_flash_init+0x54>)
     426:	4798      	blx	r3

static inline hri_nvmctrl_ctrlb_reg_t hri_nvmctrl_get_CTRLB_reg(const void *const hw, hri_nvmctrl_ctrlb_reg_t mask)
{
	uint32_t tmp;
	tmp = ((Nvmctrl *)hw)->CTRLB.reg;
	tmp &= mask;
     428:	239e      	movs	r3, #158	; 0x9e
	uint32_t ctrlb;

	device->hw = hw;
     42a:	612c      	str	r4, [r5, #16]
	tmp = ((Nvmctrl *)hw)->CTRLB.reg;
     42c:	6862      	ldr	r2, [r4, #4]
 */
__STATIC_INLINE void __NVIC_DisableIRQ(IRQn_Type IRQn)
{
  if ((int32_t)(IRQn) >= 0)
  {
    NVIC->ICER[0U] = (uint32_t)(1UL << (((uint32_t)IRQn) & 0x1FUL));
     42e:	2180      	movs	r1, #128	; 0x80
	tmp &= mask;
     430:	4013      	ands	r3, r2
     432:	2210      	movs	r2, #16
}

static inline void hri_nvmctrl_write_CTRLB_reg(const void *const hw, hri_nvmctrl_ctrlb_reg_t data)
{
	NVMCTRL_CRITICAL_SECTION_ENTER();
	((Nvmctrl *)hw)->CTRLB.reg = data;
     434:	6063      	str	r3, [r4, #4]
	ctrlb      = _nvm.ctrlb & ~(NVMCTRL_CTRLB_RWS_Msk | NVMCTRL_CTRLB_MANW);
	ctrlb |= hri_nvmctrl_get_CTRLB_reg(device->hw, NVMCTRL_CTRLB_RWS_Msk | NVMCTRL_CTRLB_MANW);
	hri_nvmctrl_write_CTRLB_reg(device->hw, ctrlb);

	_nvm_dev = device;
     436:	4b0b      	ldr	r3, [pc, #44]	; (464 <_flash_init+0x58>)
     438:	601d      	str	r5, [r3, #0]
     43a:	4b0b      	ldr	r3, [pc, #44]	; (468 <_flash_init+0x5c>)
     43c:	505a      	str	r2, [r3, r1]
  \details Acts as a special kind of Data Memory Barrier.
           It completes when all explicit memory accesses before this instruction complete.
 */
__STATIC_FORCEINLINE void __DSB(void)
{
  __ASM volatile ("dsb 0xF":::"memory");
     43e:	f3bf 8f4f 	dsb	sy
  __ASM volatile ("isb 0xF":::"memory");
     442:	f3bf 8f6f 	isb	sy
 */
__STATIC_INLINE void __NVIC_ClearPendingIRQ(IRQn_Type IRQn)
{
  if ((int32_t)(IRQn) >= 0)
  {
    NVIC->ICPR[0U] = (uint32_t)(1UL << (((uint32_t)IRQn) & 0x1FUL));
     446:	3101      	adds	r1, #1
     448:	31ff      	adds	r1, #255	; 0xff
     44a:	505a      	str	r2, [r3, r1]
	NVIC_DisableIRQ(NVMCTRL_IRQn);
	NVIC_ClearPendingIRQ(NVMCTRL_IRQn);
	NVIC_EnableIRQ(NVMCTRL_IRQn);
	return ERR_NONE;
}
     44c:	2000      	movs	r0, #0
    NVIC->ISER[0U] = (uint32_t)(1UL << (((uint32_t)IRQn) & 0x1FUL));
     44e:	601a      	str	r2, [r3, #0]
     450:	bd70      	pop	{r4, r5, r6, pc}
     452:	2000      	movs	r0, #0
     454:	e7e4      	b.n	420 <_flash_init+0x14>
     456:	46c0      	nop			; (mov r8, r8)
     458:	beffc000 	.word	0xbeffc000
     45c:	00001ff0 	.word	0x00001ff0
     460:	00000365 	.word	0x00000365
     464:	200000ac 	.word	0x200000ac
     468:	e000e100 	.word	0xe000e100

0000046c <NVMCTRL_Handler>:
 */
void NVMCTRL_Handler(void)
{
	void *const hw = _nvm_dev->hw;

	if (hri_nvmctrl_get_interrupt_READY_bit(hw)) {
     46c:	2201      	movs	r2, #1
	void *const hw = _nvm_dev->hw;
     46e:	4b0b      	ldr	r3, [pc, #44]	; (49c <NVMCTRL_Handler+0x30>)
{
     470:	b510      	push	{r4, lr}
	void *const hw = _nvm_dev->hw;
     472:	6818      	ldr	r0, [r3, #0]
     474:	6903      	ldr	r3, [r0, #16]
	return (((Nvmctrl *)hw)->INTFLAG.reg & NVMCTRL_INTFLAG_READY) >> NVMCTRL_INTFLAG_READY_Pos;
     476:	7d19      	ldrb	r1, [r3, #20]
	if (hri_nvmctrl_get_interrupt_READY_bit(hw)) {
     478:	420a      	tst	r2, r1
     47a:	d004      	beq.n	486 <NVMCTRL_Handler+0x1a>
		if (NULL != _nvm_dev->flash_cb.ready_cb) {
     47c:	6803      	ldr	r3, [r0, #0]
     47e:	2b00      	cmp	r3, #0
     480:	d000      	beq.n	484 <NVMCTRL_Handler+0x18>
			_nvm_dev->flash_cb.ready_cb(_nvm_dev);
		}
	} else if (hri_nvmctrl_get_interrupt_ERROR_bit(hw)) {
		hri_nvmctrl_clear_interrupt_ERROR_bit(hw);
		if (NULL != _nvm_dev->flash_cb.error_cb) {
			_nvm_dev->flash_cb.error_cb(_nvm_dev);
     482:	4798      	blx	r3
		}
	}
}
     484:	bd10      	pop	{r4, pc}
	return (((Nvmctrl *)hw)->INTFLAG.reg & NVMCTRL_INTFLAG_ERROR) >> NVMCTRL_INTFLAG_ERROR_Pos;
     486:	7d19      	ldrb	r1, [r3, #20]
     488:	0849      	lsrs	r1, r1, #1
	} else if (hri_nvmctrl_get_interrupt_ERROR_bit(hw)) {
     48a:	420a      	tst	r2, r1
     48c:	d0fa      	beq.n	484 <NVMCTRL_Handler+0x18>
	((Nvmctrl *)hw)->INTFLAG.reg = NVMCTRL_INTFLAG_ERROR;
     48e:	2202      	movs	r2, #2
     490:	751a      	strb	r2, [r3, #20]
		if (NULL != _nvm_dev->flash_cb.error_cb) {
     492:	6843      	ldr	r3, [r0, #4]
     494:	2b00      	cmp	r3, #0
     496:	d1f4      	bne.n	482 <NVMCTRL_Handler+0x16>
     498:	e7f4      	b.n	484 <NVMCTRL_Handler+0x18>
     49a:	46c0      	nop			; (mov r8, r8)
     49c:	200000ac 	.word	0x200000ac

000004a0 <_rww_flash_read>:

/**
 * \brief Reads a number of bytes in the internal RWWEE Flash.
 */
int32_t _rww_flash_read(struct _flash_device *const device, const uint32_t src_addr, uint8_t *buffer, uint32_t length)
{
     4a0:	b570      	push	{r4, r5, r6, lr}
	if ((addr < NVMCTRL_RWW_EEPROM_ADDR)
     4a2:	2580      	movs	r5, #128	; 0x80
	    || (addr > (NVMCTRL_RWW_EEPROM_ADDR + NVMCTRL_PAGE_SIZE * NVMCTRL_RWWEE_PAGES))) {
     4a4:	4c19      	ldr	r4, [pc, #100]	; (50c <_rww_flash_read+0x6c>)
	if ((addr < NVMCTRL_RWW_EEPROM_ADDR)
     4a6:	01ad      	lsls	r5, r5, #6
	    || (addr > (NVMCTRL_RWW_EEPROM_ADDR + NVMCTRL_PAGE_SIZE * NVMCTRL_RWWEE_PAGES))) {
     4a8:	190c      	adds	r4, r1, r4
	if ((addr < NVMCTRL_RWW_EEPROM_ADDR)
     4aa:	42ac      	cmp	r4, r5
     4ac:	d902      	bls.n	4b4 <_rww_flash_read+0x14>
	/* Check if the address is valid */
	if (!_is_valid_rww_flash_address(src_addr) || !_is_valid_rww_flash_address(src_addr + length)) {
		return ERR_BAD_ADDRESS;
     4ae:	200e      	movs	r0, #14
     4b0:	4240      	negs	r0, r0
	}

	_flash_read(device, src_addr, buffer, length);

	return ERR_NONE;
}
     4b2:	bd70      	pop	{r4, r5, r6, pc}
	    || (addr > (NVMCTRL_RWW_EEPROM_ADDR + NVMCTRL_PAGE_SIZE * NVMCTRL_RWWEE_PAGES))) {
     4b4:	4c15      	ldr	r4, [pc, #84]	; (50c <_rww_flash_read+0x6c>)
     4b6:	191c      	adds	r4, r3, r4
     4b8:	1864      	adds	r4, r4, r1
	if ((addr < NVMCTRL_RWW_EEPROM_ADDR)
     4ba:	42ac      	cmp	r4, r5
     4bc:	d8f7      	bhi.n	4ae <_rww_flash_read+0xe>
	while (!hri_nvmctrl_get_interrupt_READY_bit(device->hw)) {
     4be:	2401      	movs	r4, #1
     4c0:	6905      	ldr	r5, [r0, #16]
	uint32_t nvm_address = src_addr / 2;
     4c2:	084e      	lsrs	r6, r1, #1
	return (((Nvmctrl *)hw)->INTFLAG.reg & NVMCTRL_INTFLAG_READY) >> NVMCTRL_INTFLAG_READY_Pos;
     4c4:	7d28      	ldrb	r0, [r5, #20]
	while (!hri_nvmctrl_get_interrupt_READY_bit(device->hw)) {
     4c6:	4204      	tst	r4, r0
     4c8:	d0fc      	beq.n	4c4 <_rww_flash_read+0x24>
}

static inline void hri_nvmctrl_clear_STATUS_reg(const void *const hw, hri_nvmctrl_status_reg_t mask)
{
	NVMCTRL_CRITICAL_SECTION_ENTER();
	((Nvmctrl *)hw)->STATUS.reg = mask;
     4ca:	2020      	movs	r0, #32
     4cc:	30ff      	adds	r0, #255	; 0xff
     4ce:	8328      	strh	r0, [r5, #24]
		i = 0;
     4d0:	2000      	movs	r0, #0
	if (src_addr % 2) {
     4d2:	420c      	tst	r4, r1
     4d4:	d113      	bne.n	4fe <_rww_flash_read+0x5e>
	while (i < length) {
     4d6:	4283      	cmp	r3, r0
     4d8:	d90f      	bls.n	4fa <_rww_flash_read+0x5a>
     4da:	0076      	lsls	r6, r6, #1
     4dc:	1e5d      	subs	r5, r3, #1
     4de:	1812      	adds	r2, r2, r0
     4e0:	1a36      	subs	r6, r6, r0
     4e2:	1831      	adds	r1, r6, r0
		data      = NVM_MEMORY[nvm_address++];
     4e4:	8809      	ldrh	r1, [r1, #0]
     4e6:	b289      	uxth	r1, r1
		buffer[i] = (data & 0xFF);
     4e8:	7011      	strb	r1, [r2, #0]
		if (i < (length - 1)) {
     4ea:	4285      	cmp	r5, r0
     4ec:	d901      	bls.n	4f2 <_rww_flash_read+0x52>
			buffer[i + 1] = (data >> 8);
     4ee:	0a09      	lsrs	r1, r1, #8
     4f0:	7051      	strb	r1, [r2, #1]
		i += 2;
     4f2:	3002      	adds	r0, #2
     4f4:	3202      	adds	r2, #2
	while (i < length) {
     4f6:	4283      	cmp	r3, r0
     4f8:	d8f3      	bhi.n	4e2 <_rww_flash_read+0x42>
	return ERR_NONE;
     4fa:	2000      	movs	r0, #0
     4fc:	e7d9      	b.n	4b2 <_rww_flash_read+0x12>
		data      = NVM_MEMORY[nvm_address++];
     4fe:	43a1      	bics	r1, r4
     500:	8809      	ldrh	r1, [r1, #0]
     502:	3601      	adds	r6, #1
		buffer[0] = data >> 8;
     504:	0a09      	lsrs	r1, r1, #8
     506:	7011      	strb	r1, [r2, #0]
		i         = 1;
     508:	3001      	adds	r0, #1
     50a:	e7e4      	b.n	4d6 <_rww_flash_read+0x36>
     50c:	ffc00000 	.word	0xffc00000

00000510 <_rww_flash_write>:

/**
 * \brief Writes a number of bytes in the internal RWWEE Flash.
 */
int32_t _rww_flash_write(struct _flash_device *const device, const uint32_t dst_addr, uint8_t *buffer, uint32_t length)
{
     510:	b5f0      	push	{r4, r5, r6, r7, lr}
     512:	4657      	mov	r7, sl
     514:	464e      	mov	r6, r9
     516:	46de      	mov	lr, fp
     518:	4645      	mov	r5, r8
     51a:	4692      	mov	sl, r2
	if ((addr < NVMCTRL_RWW_EEPROM_ADDR)
     51c:	2280      	movs	r2, #128	; 0x80
{
     51e:	b5e0      	push	{r5, r6, r7, lr}
     520:	4699      	mov	r9, r3
	    || (addr > (NVMCTRL_RWW_EEPROM_ADDR + NVMCTRL_PAGE_SIZE * NVMCTRL_RWWEE_PAGES))) {
     522:	4b62      	ldr	r3, [pc, #392]	; (6ac <_rww_flash_write+0x19c>)
{
     524:	b0c5      	sub	sp, #276	; 0x114
	    || (addr > (NVMCTRL_RWW_EEPROM_ADDR + NVMCTRL_PAGE_SIZE * NVMCTRL_RWWEE_PAGES))) {
     526:	18cb      	adds	r3, r1, r3
{
     528:	9002      	str	r0, [sp, #8]
	if ((addr < NVMCTRL_RWW_EEPROM_ADDR)
     52a:	0192      	lsls	r2, r2, #6
     52c:	4293      	cmp	r3, r2
     52e:	d908      	bls.n	542 <_rww_flash_write+0x32>
	uint32_t i, j, k;
	uint32_t wr_start_addr = dst_addr;

	/* Check if the address is valid */
	if (!_is_valid_rww_flash_address(dst_addr) || !_is_valid_rww_flash_address(dst_addr + length)) {
		return ERR_BAD_ADDRESS;
     530:	200e      	movs	r0, #14
     532:	4240      	negs	r0, r0
		}

	} while (row_end_addr < (wr_start_addr + length - 1));

	return ERR_NONE;
}
     534:	b045      	add	sp, #276	; 0x114
     536:	bc3c      	pop	{r2, r3, r4, r5}
     538:	4690      	mov	r8, r2
     53a:	4699      	mov	r9, r3
     53c:	46a2      	mov	sl, r4
     53e:	46ab      	mov	fp, r5
     540:	bdf0      	pop	{r4, r5, r6, r7, pc}
	    || (addr > (NVMCTRL_RWW_EEPROM_ADDR + NVMCTRL_PAGE_SIZE * NVMCTRL_RWWEE_PAGES))) {
     542:	4b5a      	ldr	r3, [pc, #360]	; (6ac <_rww_flash_write+0x19c>)
     544:	444b      	add	r3, r9
     546:	185b      	adds	r3, r3, r1
	if ((addr < NVMCTRL_RWW_EEPROM_ADDR)
     548:	4293      	cmp	r3, r2
     54a:	d8f1      	bhi.n	530 <_rww_flash_write+0x20>
     54c:	000e      	movs	r6, r1
	while (!hri_nvmctrl_get_interrupt_READY_bit(device->hw)) {
     54e:	2701      	movs	r7, #1
		row_start_addr = wr_start_addr & ~((NVMCTRL_PAGE_SIZE * NVMCTRL_ROW_PAGES) - 1);
     550:	0033      	movs	r3, r6
     552:	22ff      	movs	r2, #255	; 0xff
     554:	4393      	bics	r3, r2
     556:	4698      	mov	r8, r3
		row_end_addr   = row_start_addr + NVMCTRL_ROW_PAGES * NVMCTRL_PAGE_SIZE - 1;
     558:	23ff      	movs	r3, #255	; 0xff
     55a:	4443      	add	r3, r8
     55c:	9303      	str	r3, [sp, #12]
     55e:	9b02      	ldr	r3, [sp, #8]
     560:	ac04      	add	r4, sp, #16
     562:	691d      	ldr	r5, [r3, #16]
     564:	4b51      	ldr	r3, [pc, #324]	; (6ac <_rww_flash_write+0x19c>)
     566:	0022      	movs	r2, r4
     568:	4443      	add	r3, r8
     56a:	469c      	mov	ip, r3
     56c:	4b50      	ldr	r3, [pc, #320]	; (6b0 <_rww_flash_write+0x1a0>)
     56e:	4664      	mov	r4, ip
     570:	4443      	add	r3, r8
     572:	469b      	mov	fp, r3
     574:	46b4      	mov	ip, r6
     576:	465e      	mov	r6, fp
     578:	4693      	mov	fp, r2
     57a:	2380      	movs	r3, #128	; 0x80
     57c:	03db      	lsls	r3, r3, #15
     57e:	18e1      	adds	r1, r4, r3
	if ((addr < NVMCTRL_RWW_EEPROM_ADDR)
     580:	23fe      	movs	r3, #254	; 0xfe
     582:	015b      	lsls	r3, r3, #5
     584:	429c      	cmp	r4, r3
     586:	d971      	bls.n	66c <_rww_flash_write+0x15c>
     588:	3240      	adds	r2, #64	; 0x40
     58a:	0010      	movs	r0, r2
     58c:	3440      	adds	r4, #64	; 0x40
     58e:	0002      	movs	r2, r0
		for (i = 0; i < NVMCTRL_ROW_PAGES; i++) {
     590:	42a6      	cmp	r6, r4
     592:	d1f2      	bne.n	57a <_rww_flash_write+0x6a>
     594:	4666      	mov	r6, ip
		j = (wr_start_addr - row_start_addr) / NVMCTRL_PAGE_SIZE;
     596:	4643      	mov	r3, r8
     598:	223f      	movs	r2, #63	; 0x3f
		while ((wr_start_addr <= row_end_addr) && (length > 0)) {
     59a:	9803      	ldr	r0, [sp, #12]
		j = (wr_start_addr - row_start_addr) / NVMCTRL_PAGE_SIZE;
     59c:	1af3      	subs	r3, r6, r3
     59e:	0999      	lsrs	r1, r3, #6
     5a0:	465c      	mov	r4, fp
     5a2:	4013      	ands	r3, r2
		while ((wr_start_addr <= row_end_addr) && (length > 0)) {
     5a4:	4286      	cmp	r6, r0
     5a6:	d821      	bhi.n	5ec <_rww_flash_write+0xdc>
     5a8:	464a      	mov	r2, r9
     5aa:	2a00      	cmp	r2, #0
     5ac:	d01e      	beq.n	5ec <_rww_flash_write+0xdc>
			k                = (k + 1) % NVMCTRL_PAGE_SIZE;
     5ae:	464a      	mov	r2, r9
     5b0:	4654      	mov	r4, sl
     5b2:	4684      	mov	ip, r0
     5b4:	46aa      	mov	sl, r5
     5b6:	46d9      	mov	r9, fp
     5b8:	0015      	movs	r5, r2
     5ba:	e001      	b.n	5c0 <_rww_flash_write+0xb0>
		while ((wr_start_addr <= row_end_addr) && (length > 0)) {
     5bc:	2d00      	cmp	r5, #0
     5be:	d010      	beq.n	5e2 <_rww_flash_write+0xd2>
			tmp_buffer[j][k] = *buffer;
     5c0:	a804      	add	r0, sp, #16
     5c2:	4683      	mov	fp, r0
     5c4:	018a      	lsls	r2, r1, #6
     5c6:	7820      	ldrb	r0, [r4, #0]
     5c8:	445a      	add	r2, fp
     5ca:	54d0      	strb	r0, [r2, r3]
			k                = (k + 1) % NVMCTRL_PAGE_SIZE;
     5cc:	223f      	movs	r2, #63	; 0x3f
     5ce:	3301      	adds	r3, #1
     5d0:	4013      	ands	r3, r2
				j++;
     5d2:	425a      	negs	r2, r3
     5d4:	415a      	adcs	r2, r3
			wr_start_addr++;
     5d6:	3601      	adds	r6, #1
				j++;
     5d8:	1889      	adds	r1, r1, r2
			buffer++;
     5da:	3401      	adds	r4, #1
			length--;
     5dc:	3d01      	subs	r5, #1
		while ((wr_start_addr <= row_end_addr) && (length > 0)) {
     5de:	45b4      	cmp	ip, r6
     5e0:	d2ec      	bcs.n	5bc <_rww_flash_write+0xac>
     5e2:	002b      	movs	r3, r5
     5e4:	4655      	mov	r5, sl
     5e6:	46a2      	mov	sl, r4
     5e8:	464c      	mov	r4, r9
     5ea:	4699      	mov	r9, r3
	return (((Nvmctrl *)hw)->INTFLAG.reg & NVMCTRL_INTFLAG_READY) >> NVMCTRL_INTFLAG_READY_Pos;
     5ec:	7d2b      	ldrb	r3, [r5, #20]
	while (!hri_nvmctrl_get_interrupt_READY_bit(hw)) {
     5ee:	421f      	tst	r7, r3
     5f0:	d0fc      	beq.n	5ec <_rww_flash_write+0xdc>
	((Nvmctrl *)hw)->STATUS.reg = mask;
     5f2:	2320      	movs	r3, #32
     5f4:	33ff      	adds	r3, #255	; 0xff
     5f6:	832b      	strh	r3, [r5, #24]
     5f8:	9301      	str	r3, [sp, #4]
     5fa:	4643      	mov	r3, r8
	hri_nvmctrl_write_ADDR_reg(hw, dst_addr / 2);
     5fc:	4642      	mov	r2, r8
     5fe:	46b0      	mov	r8, r6
     600:	001e      	movs	r6, r3
     602:	0852      	lsrs	r2, r2, #1
	((Nvmctrl *)hw)->ADDR.reg = data;
     604:	61ea      	str	r2, [r5, #28]
     606:	4693      	mov	fp, r2
	((Nvmctrl *)hw)->CTRLA.reg = data;
     608:	4a2a      	ldr	r2, [pc, #168]	; (6b4 <_rww_flash_write+0x1a4>)
     60a:	802a      	strh	r2, [r5, #0]
	ASSERT(!(dst_addr % 2));
     60c:	22c5      	movs	r2, #197	; 0xc5
     60e:	492a      	ldr	r1, [pc, #168]	; (6b8 <_rww_flash_write+0x1a8>)
     610:	0052      	lsls	r2, r2, #1
     612:	2001      	movs	r0, #1
     614:	4b29      	ldr	r3, [pc, #164]	; (6bc <_rww_flash_write+0x1ac>)
     616:	4798      	blx	r3
	return (((Nvmctrl *)hw)->INTFLAG.reg & NVMCTRL_INTFLAG_READY) >> NVMCTRL_INTFLAG_READY_Pos;
     618:	7d2b      	ldrb	r3, [r5, #20]
	while (!hri_nvmctrl_get_interrupt_READY_bit(hw)) {
     61a:	421f      	tst	r7, r3
     61c:	d0fc      	beq.n	618 <_rww_flash_write+0x108>
	((Nvmctrl *)hw)->CTRLA.reg = data;
     61e:	4b28      	ldr	r3, [pc, #160]	; (6c0 <_rww_flash_write+0x1b0>)
     620:	802b      	strh	r3, [r5, #0]
	return (((Nvmctrl *)hw)->INTFLAG.reg & NVMCTRL_INTFLAG_READY) >> NVMCTRL_INTFLAG_READY_Pos;
     622:	7d2b      	ldrb	r3, [r5, #20]
	while (!hri_nvmctrl_get_interrupt_READY_bit(hw)) {
     624:	421f      	tst	r7, r3
     626:	d0fc      	beq.n	622 <_rww_flash_write+0x112>
	((Nvmctrl *)hw)->STATUS.reg = mask;
     628:	466b      	mov	r3, sp
     62a:	889b      	ldrh	r3, [r3, #4]
     62c:	0020      	movs	r0, r4
     62e:	832b      	strh	r3, [r5, #24]
     630:	465b      	mov	r3, fp
     632:	0059      	lsls	r1, r3, #1
     634:	3040      	adds	r0, #64	; 0x40
     636:	1b09      	subs	r1, r1, r4
			data |= (buffer[i + 1] << 8);
     638:	7862      	ldrb	r2, [r4, #1]
     63a:	7823      	ldrb	r3, [r4, #0]
     63c:	0212      	lsls	r2, r2, #8
     63e:	4313      	orrs	r3, r2
     640:	190a      	adds	r2, r1, r4
     642:	3402      	adds	r4, #2
		NVM_MEMORY[nvm_address++] = data;
     644:	8013      	strh	r3, [r2, #0]
	for (i = 0; i < size; i += 2) {
     646:	42a0      	cmp	r0, r4
     648:	d1f6      	bne.n	638 <_rww_flash_write+0x128>
	return (((Nvmctrl *)hw)->INTFLAG.reg & NVMCTRL_INTFLAG_READY) >> NVMCTRL_INTFLAG_READY_Pos;
     64a:	7d2b      	ldrb	r3, [r5, #20]
	while (!hri_nvmctrl_get_interrupt_READY_bit(hw)) {
     64c:	421f      	tst	r7, r3
     64e:	d0fc      	beq.n	64a <_rww_flash_write+0x13a>
	((Nvmctrl *)hw)->ADDR.reg = data;
     650:	465b      	mov	r3, fp
     652:	61eb      	str	r3, [r5, #28]
	((Nvmctrl *)hw)->CTRLA.reg = data;
     654:	4b1b      	ldr	r3, [pc, #108]	; (6c4 <_rww_flash_write+0x1b4>)
     656:	3640      	adds	r6, #64	; 0x40
     658:	802b      	strh	r3, [r5, #0]
		for (i = 0; i < NVMCTRL_ROW_PAGES; i++) {
     65a:	ab44      	add	r3, sp, #272	; 0x110
     65c:	4298      	cmp	r0, r3
     65e:	d01a      	beq.n	696 <_rww_flash_write+0x186>
     660:	9b02      	ldr	r3, [sp, #8]
     662:	0004      	movs	r4, r0
     664:	691d      	ldr	r5, [r3, #16]
     666:	0873      	lsrs	r3, r6, #1
     668:	469b      	mov	fp, r3
     66a:	e7cf      	b.n	60c <_rww_flash_write+0xfc>
	uint32_t nvm_address = src_addr / 2;
     66c:	0849      	lsrs	r1, r1, #1
	return (((Nvmctrl *)hw)->INTFLAG.reg & NVMCTRL_INTFLAG_READY) >> NVMCTRL_INTFLAG_READY_Pos;
     66e:	7d2b      	ldrb	r3, [r5, #20]
	while (!hri_nvmctrl_get_interrupt_READY_bit(device->hw)) {
     670:	421f      	tst	r7, r3
     672:	d0fc      	beq.n	66e <_rww_flash_write+0x15e>
	((Nvmctrl *)hw)->STATUS.reg = mask;
     674:	2320      	movs	r3, #32
     676:	0010      	movs	r0, r2
     678:	33ff      	adds	r3, #255	; 0xff
     67a:	0049      	lsls	r1, r1, #1
     67c:	832b      	strh	r3, [r5, #24]
     67e:	3040      	adds	r0, #64	; 0x40
     680:	1a89      	subs	r1, r1, r2
     682:	188b      	adds	r3, r1, r2
		data      = NVM_MEMORY[nvm_address++];
     684:	881b      	ldrh	r3, [r3, #0]
     686:	b29b      	uxth	r3, r3
		buffer[i] = (data & 0xFF);
     688:	7013      	strb	r3, [r2, #0]
			buffer[i + 1] = (data >> 8);
     68a:	0a1b      	lsrs	r3, r3, #8
     68c:	7053      	strb	r3, [r2, #1]
     68e:	3202      	adds	r2, #2
	while (i < length) {
     690:	4290      	cmp	r0, r2
     692:	d1f6      	bne.n	682 <_rww_flash_write+0x172>
     694:	e77a      	b.n	58c <_rww_flash_write+0x7c>
     696:	4646      	mov	r6, r8
	} while (row_end_addr < (wr_start_addr + length - 1));
     698:	464b      	mov	r3, r9
     69a:	9a03      	ldr	r2, [sp, #12]
     69c:	199b      	adds	r3, r3, r6
     69e:	3b01      	subs	r3, #1
     6a0:	429a      	cmp	r2, r3
     6a2:	d200      	bcs.n	6a6 <_rww_flash_write+0x196>
     6a4:	e754      	b.n	550 <_rww_flash_write+0x40>
	return ERR_NONE;
     6a6:	2000      	movs	r0, #0
     6a8:	e744      	b.n	534 <_rww_flash_write+0x24>
     6aa:	46c0      	nop			; (mov r8, r8)
     6ac:	ffc00000 	.word	0xffc00000
     6b0:	ffc00100 	.word	0xffc00100
     6b4:	ffffa51a 	.word	0xffffa51a
     6b8:	00001ff0 	.word	0x00001ff0
     6bc:	00000365 	.word	0x00000365
     6c0:	ffffa544 	.word	0xffffa544
     6c4:	ffffa51c 	.word	0xffffa51c

000006c8 <_osc32kctrl_init_sources>:
	calib = hri_osc32kctrl_read_OSCULP32K_CALIB_bf(hw);
	hri_osc32kctrl_write_OSCULP32K_reg(hw,
#if CONF_OSC32K_CALIB_ENABLE == 1
	                                   OSC32KCTRL_OSCULP32K_CALIB(CONF_OSC32K_CALIB)
#else
	                                   OSC32KCTRL_OSCULP32K_CALIB(calib)
     6c8:	21f8      	movs	r1, #248	; 0xf8
}

static inline hri_osc32kctrl_osculp32k_reg_t hri_osc32kctrl_read_OSCULP32K_CALIB_bf(const void *const hw)
{
	uint32_t tmp;
	tmp = ((Osc32kctrl *)hw)->OSCULP32K.reg;
     6ca:	4b04      	ldr	r3, [pc, #16]	; (6dc <_osc32kctrl_init_sources+0x14>)
     6cc:	0149      	lsls	r1, r1, #5
     6ce:	69da      	ldr	r2, [r3, #28]
     6d0:	400a      	ands	r2, r1
}

static inline void hri_osc32kctrl_write_OSCULP32K_reg(const void *const hw, hri_osc32kctrl_osculp32k_reg_t data)
{
	OSC32KCTRL_CRITICAL_SECTION_ENTER();
	((Osc32kctrl *)hw)->OSCULP32K.reg = data;
     6d2:	61da      	str	r2, [r3, #28]
	((Osc32kctrl *)hw)->RTCCTRL.reg = data;
     6d4:	2201      	movs	r2, #1
     6d6:	611a      	str	r2, [r3, #16]
		;
#endif
#endif
	hri_osc32kctrl_write_RTCCTRL_reg(hw, OSC32KCTRL_RTCCTRL_RTCSEL(CONF_RTCCTRL));
	(void)calib;
}
     6d8:	4770      	bx	lr
     6da:	46c0      	nop			; (mov r8, r8)
     6dc:	40001000 	.word	0x40001000

000006e0 <_oscctrl_init_sources>:
}

static inline void hri_oscctrl_write_OSC16MCTRL_reg(const void *const hw, hri_oscctrl_osc16mctrl_reg_t data)
{
	OSCCTRL_CRITICAL_SECTION_ENTER();
	((Oscctrl *)hw)->OSC16MCTRL.reg = data;
     6e0:	238a      	movs	r3, #138	; 0x8a
	while (((Oscctrl *)hw)->DPLLSYNCBUSY.reg & reg) {
     6e2:	2038      	movs	r0, #56	; 0x38
     6e4:	2102      	movs	r1, #2
	((Oscctrl *)hw)->OSC16MCTRL.reg = data;
     6e6:	4a0a      	ldr	r2, [pc, #40]	; (710 <_oscctrl_init_sources+0x30>)
     6e8:	7513      	strb	r3, [r2, #20]
	while (((Oscctrl *)hw)->DPLLSYNCBUSY.reg & reg) {
     6ea:	5c13      	ldrb	r3, [r2, r0]
     6ec:	4219      	tst	r1, r3
     6ee:	d1fc      	bne.n	6ea <_oscctrl_init_sources+0xa>
#endif
#endif

#if CONF_OSC16M_CONFIG == 1
#if CONF_OSC16M_ENABLE == 1
	while (!hri_oscctrl_get_STATUS_OSC16MRDY_bit(hw))
     6f0:	2110      	movs	r1, #16
	return (((Oscctrl *)hw)->STATUS.reg & OSCCTRL_STATUS_OSC16MRDY) >> OSCCTRL_STATUS_OSC16MRDY_Pos;
     6f2:	4a07      	ldr	r2, [pc, #28]	; (710 <_oscctrl_init_sources+0x30>)
     6f4:	68d3      	ldr	r3, [r2, #12]
     6f6:	4219      	tst	r1, r3
     6f8:	d0fc      	beq.n	6f4 <_oscctrl_init_sources+0x14>
	((Oscctrl *)hw)->OSC16MCTRL.reg |= OSCCTRL_OSC16MCTRL_ONDEMAND;
     6fa:	2180      	movs	r1, #128	; 0x80
     6fc:	7d13      	ldrb	r3, [r2, #20]
	while (((Oscctrl *)hw)->DPLLSYNCBUSY.reg & reg) {
     6fe:	4804      	ldr	r0, [pc, #16]	; (710 <_oscctrl_init_sources+0x30>)
	((Oscctrl *)hw)->OSC16MCTRL.reg |= OSCCTRL_OSC16MCTRL_ONDEMAND;
     700:	430b      	orrs	r3, r1
     702:	7513      	strb	r3, [r2, #20]
	while (((Oscctrl *)hw)->DPLLSYNCBUSY.reg & reg) {
     704:	220e      	movs	r2, #14
     706:	3948      	subs	r1, #72	; 0x48
     708:	5c43      	ldrb	r3, [r0, r1]
     70a:	421a      	tst	r2, r3
     70c:	d1fc      	bne.n	708 <_oscctrl_init_sources+0x28>
#if CONF_OSC16M_ONDEMAND == 1
	hri_oscctrl_set_OSC16MCTRL_ONDEMAND_bit(hw);
#endif
#endif
	(void)hw;
}
     70e:	4770      	bx	lr
     710:	40000c00 	.word	0x40000c00

00000714 <_oscctrl_init_referenced_generators>:
#if CONF_DFLL_CONFIG == 1
	while (hri_gclk_read_SYNCBUSY_reg(GCLK))
		;
#endif
	(void)hw, (void)tmp;
}
     714:	4770      	bx	lr
     716:	46c0      	nop			; (mov r8, r8)

00000718 <_set_performance_level>:
}

static inline hri_pm_plcfg_reg_t hri_pm_get_PLCFG_PLSEL_bf(const void *const hw, hri_pm_plcfg_reg_t mask)
{
	uint8_t tmp;
	tmp = ((Pm *)hw)->PLCFG.reg;
     718:	2280      	movs	r2, #128	; 0x80
	tmp = (tmp & PM_PLCFG_PLSEL(mask)) >> PM_PLCFG_PLSEL_Pos;
     71a:	2303      	movs	r3, #3
	tmp = ((Pm *)hw)->PLCFG.reg;
     71c:	05d2      	lsls	r2, r2, #23
     71e:	7891      	ldrb	r1, [r2, #2]
/**
 * \brief Set performance level
 */
void _set_performance_level(const uint8_t level)
{
	if (hri_pm_get_PLCFG_PLSEL_bf(PM, PM_PLCFG_PLSEL_Msk) != level) {
     720:	4019      	ands	r1, r3
     722:	4288      	cmp	r0, r1
     724:	d009      	beq.n	73a <_set_performance_level+0x22>
	((Pm *)hw)->INTFLAG.reg = mask;
     726:	21ff      	movs	r1, #255	; 0xff
     728:	7191      	strb	r1, [r2, #6]

static inline void hri_pm_write_PLCFG_PLSEL_bf(const void *const hw, hri_pm_plcfg_reg_t data)
{
	uint8_t tmp;
	PM_CRITICAL_SECTION_ENTER();
	tmp = ((Pm *)hw)->PLCFG.reg;
     72a:	7891      	ldrb	r1, [r2, #2]
	tmp &= ~PM_PLCFG_PLSEL_Msk;
     72c:	4399      	bics	r1, r3
	tmp |= PM_PLCFG_PLSEL(data);
     72e:	4003      	ands	r3, r0
     730:	430b      	orrs	r3, r1
	((Pm *)hw)->PLCFG.reg = tmp;
     732:	7093      	strb	r3, [r2, #2]
	return ((Pm *)hw)->INTFLAG.reg;
     734:	7993      	ldrb	r3, [r2, #6]
		hri_pm_clear_INTFLAG_reg(PM, 0xFF);
		hri_pm_write_PLCFG_PLSEL_bf(PM, level);
		while (!hri_pm_read_INTFLAG_reg(PM))
     736:	2b00      	cmp	r3, #0
     738:	d0fc      	beq.n	734 <_set_performance_level+0x1c>
			;
	}
}
     73a:	4770      	bx	lr

0000073c <_delay_init>:
 * \brief Initialize system time module
 */
void _system_time_init(void *const hw)
{
	(void)hw;
	SysTick->LOAD = (0xFFFFFF << SysTick_LOAD_RELOAD_Pos);
     73c:	4b02      	ldr	r3, [pc, #8]	; (748 <_delay_init+0xc>)
     73e:	4a03      	ldr	r2, [pc, #12]	; (74c <_delay_init+0x10>)
     740:	605a      	str	r2, [r3, #4]
	SysTick->CTRL = (1 << SysTick_CTRL_ENABLE_Pos) | (CONF_SYSTICK_TICKINT << SysTick_CTRL_TICKINT_Pos)
     742:	2205      	movs	r2, #5
     744:	601a      	str	r2, [r3, #0]
 * \brief Initialize delay functionality
 */
void _delay_init(void *const hw)
{
	_system_time_init(hw);
}
     746:	4770      	bx	lr
     748:	e000e010 	.word	0xe000e010
     74c:	00ffffff 	.word	0x00ffffff

00000750 <_delay_cycles>:
 * \brief Delay loop to delay n number of cycles
 */
void _delay_cycles(void *const hw, uint32_t cycles)
{
	(void)hw;
	uint8_t  n   = cycles >> 24;
     750:	0e0b      	lsrs	r3, r1, #24
{
     752:	b570      	push	{r4, r5, r6, lr}
	uint32_t buf = cycles;

	while (n--) {
     754:	1e5e      	subs	r6, r3, #1
     756:	b2f6      	uxtb	r6, r6
     758:	2b00      	cmp	r3, #0
     75a:	d013      	beq.n	784 <_delay_cycles+0x34>
		SysTick->LOAD = 0xFFFFFF;
		SysTick->VAL  = 0xFFFFFF;
		while (!(SysTick->CTRL & SysTick_CTRL_COUNTFLAG_Msk))
     75c:	2080      	movs	r0, #128	; 0x80
	while (n--) {
     75e:	0034      	movs	r4, r6
		SysTick->LOAD = 0xFFFFFF;
     760:	4a0d      	ldr	r2, [pc, #52]	; (798 <_delay_cycles+0x48>)
     762:	4d0e      	ldr	r5, [pc, #56]	; (79c <_delay_cycles+0x4c>)
		while (!(SysTick->CTRL & SysTick_CTRL_COUNTFLAG_Msk))
     764:	0240      	lsls	r0, r0, #9
		SysTick->LOAD = 0xFFFFFF;
     766:	6055      	str	r5, [r2, #4]
		SysTick->VAL  = 0xFFFFFF;
     768:	6095      	str	r5, [r2, #8]
		while (!(SysTick->CTRL & SysTick_CTRL_COUNTFLAG_Msk))
     76a:	6813      	ldr	r3, [r2, #0]
     76c:	4203      	tst	r3, r0
     76e:	d0fc      	beq.n	76a <_delay_cycles+0x1a>
	while (n--) {
     770:	3c01      	subs	r4, #1
     772:	b2e4      	uxtb	r4, r4
     774:	2cff      	cmp	r4, #255	; 0xff
     776:	d1f6      	bne.n	766 <_delay_cycles+0x16>
     778:	0633      	lsls	r3, r6, #24
     77a:	1af6      	subs	r6, r6, r3
     77c:	4b08      	ldr	r3, [pc, #32]	; (7a0 <_delay_cycles+0x50>)
     77e:	469c      	mov	ip, r3
     780:	4461      	add	r1, ip
     782:	1871      	adds	r1, r6, r1
			;
		buf -= 0xFFFFFF;
	}

	SysTick->LOAD = buf;
     784:	4a04      	ldr	r2, [pc, #16]	; (798 <_delay_cycles+0x48>)
     786:	6051      	str	r1, [r2, #4]
	SysTick->VAL  = buf;
     788:	6091      	str	r1, [r2, #8]
	while (!(SysTick->CTRL & SysTick_CTRL_COUNTFLAG_Msk))
     78a:	2180      	movs	r1, #128	; 0x80
     78c:	0249      	lsls	r1, r1, #9
     78e:	6813      	ldr	r3, [r2, #0]
     790:	420b      	tst	r3, r1
     792:	d0fc      	beq.n	78e <_delay_cycles+0x3e>
		;
}
     794:	bd70      	pop	{r4, r5, r6, pc}
     796:	46c0      	nop			; (mov r8, r8)
     798:	e000e010 	.word	0xe000e010
     79c:	00ffffff 	.word	0x00ffffff
     7a0:	ff000001 	.word	0xff000001

000007a4 <aes_measurement>:
static uint8_t iv[16] = { 0x00, 0x01, 0x02, 0x03, 0x04, 0x05, 0x06, 0x07, 0x08, 0x09, 0x0a, 0x0b, 0x0c, 0x0d, 0x0e, 0x0f };
static uint8_t iv2[16] = { 0x00, 0x01, 0x02, 0x03, 0x04, 0x05, 0x06, 0x07, 0x08, 0x09, 0x0a, 0x0b, 0x0c, 0x0d, 0x0e, 0x0f }; /*(This is same but needed for decryption. Note: AES Module was not doing decryption without iv2  )*/


void aes_measurement(void)
{
     7a4:	b5f0      	push	{r4, r5, r6, r7, lr}
     7a6:	46de      	mov	lr, fp
     7a8:	4657      	mov	r7, sl
     7aa:	464e      	mov	r6, r9
     7ac:	4645      	mov	r5, r8
		0x00, 0x11, 0x22, 0x33, 0x44, 0x55, 0x66, 0x77,
		0x88, 0x99, 0xaa, 0xbb, 0xcc, 0xdd, 0xee, 0xff
	};*/
	
	
	mbedtls_aes_setkey_enc( &aes, key_256, AES_KEY_SIZE );
     7ae:	2280      	movs	r2, #128	; 0x80
{
     7b0:	b5e0      	push	{r5, r6, r7, lr}
	mbedtls_aes_setkey_enc( &aes, key_256, AES_KEY_SIZE );
     7b2:	4c48      	ldr	r4, [pc, #288]	; (8d4 <aes_measurement+0x130>)
{
     7b4:	b085      	sub	sp, #20
	mbedtls_aes_setkey_enc( &aes, key_256, AES_KEY_SIZE );
     7b6:	0052      	lsls	r2, r2, #1
     7b8:	0021      	movs	r1, r4
     7ba:	4b47      	ldr	r3, [pc, #284]	; (8d8 <aes_measurement+0x134>)
     7bc:	4847      	ldr	r0, [pc, #284]	; (8dc <aes_measurement+0x138>)
     7be:	4798      	blx	r3
	mbedtls_aes_setkey_dec( &aes2, key_256, AES_KEY_SIZE );
     7c0:	2280      	movs	r2, #128	; 0x80
     7c2:	4847      	ldr	r0, [pc, #284]	; (8e0 <aes_measurement+0x13c>)
     7c4:	0052      	lsls	r2, r2, #1
     7c6:	0021      	movs	r1, r4
     7c8:	4b46      	ldr	r3, [pc, #280]	; (8e4 <aes_measurement+0x140>)
     7ca:	3018      	adds	r0, #24
     7cc:	4798      	blx	r3
	
	// Allocate buffer memory
	uint8_t *input = malloc(sizeof(uint8_t) * MAX_NUM_BYTES);
     7ce:	4b46      	ldr	r3, [pc, #280]	; (8e8 <aes_measurement+0x144>)
     7d0:	4846      	ldr	r0, [pc, #280]	; (8ec <aes_measurement+0x148>)
     7d2:	4798      	blx	r3
	
	// Allocate buffer memory
	uint8_t *output = malloc(sizeof(uint8_t) * MAX_NUM_BYTES);
	//uint8_t input[MAX_NUM_BYTES];

    delay_ms(10);
     7d4:	4e46      	ldr	r6, [pc, #280]	; (8f0 <aes_measurement+0x14c>)
	uint8_t *input = malloc(sizeof(uint8_t) * MAX_NUM_BYTES);
     7d6:	0005      	movs	r5, r0
    delay_ms(10);
     7d8:	200a      	movs	r0, #10
     7da:	47b0      	blx	r6
     7dc:	4a45      	ldr	r2, [pc, #276]	; (8f4 <aes_measurement+0x150>)
	((Port *)hw)->Group[submodule_index].OUTSET.reg = mask;
     7de:	27c0      	movs	r7, #192	; 0xc0
     7e0:	4693      	mov	fp, r2
     7e2:	4a45      	ldr	r2, [pc, #276]	; (8f8 <aes_measurement+0x154>)

	for (size_t num_bytes = MIN_NUM_BYTES; num_bytes <= MAX_NUM_BYTES; num_bytes += STEP_SIZE) {
     7e4:	2310      	movs	r3, #16
     7e6:	4692      	mov	sl, r2
     7e8:	2280      	movs	r2, #128	; 0x80
     7ea:	0352      	lsls	r2, r2, #13
     7ec:	4691      	mov	r9, r2
     7ee:	05ff      	lsls	r7, r7, #23
{
     7f0:	2200      	movs	r2, #0
     7f2:	0014      	movs	r4, r2
		
		// Fill with sequential data.
		for (size_t byte = 0; byte < num_bytes; byte++) {
			input[byte] = byte; // 0x00 to write 0's OR 0xFF to write 1's.
     7f4:	552c      	strb	r4, [r5, r4]
		for (size_t byte = 0; byte < num_bytes; byte++) {
     7f6:	3401      	adds	r4, #1
     7f8:	429c      	cmp	r4, r3
     7fa:	d1fb      	bne.n	7f4 <aes_measurement+0x50>
			//input[byte] = 0xfa;
		}
			

		// Start encryption
		START_MEASURE(DGI_GPIO2);
     7fc:	2002      	movs	r0, #2
     7fe:	9403      	str	r4, [sp, #12]
     800:	47b0      	blx	r6
     802:	464b      	mov	r3, r9
		//io_write(terminal_io, "Encryption", sizeof(uint8_t)*10);
		/*encrypt*/		
		mbedtls_aes_crypt_cbc( &aes, MBEDTLS_AES_ENCRYPT, num_bytes, iv, input, input);
     804:	0022      	movs	r2, r4
     806:	61bb      	str	r3, [r7, #24]
     808:	2101      	movs	r1, #1
     80a:	465b      	mov	r3, fp
     80c:	9501      	str	r5, [sp, #4]
     80e:	9500      	str	r5, [sp, #0]
     810:	4832      	ldr	r0, [pc, #200]	; (8dc <aes_measurement+0x138>)
     812:	47d0      	blx	sl
	((Port *)hw)->Group[submodule_index].OUTCLR.reg = mask;
     814:	464b      	mov	r3, r9
		STOP_MEASURE(DGI_GPIO2);
     816:	2002      	movs	r0, #2
     818:	617b      	str	r3, [r7, #20]
     81a:	47b0      	blx	r6
		
		/* Save to flash
		   Put data at end of flash.
	    **/		
		START_MEASURE(DGI_GPIO3);
     81c:	2002      	movs	r0, #2
     81e:	47b0      	blx	r6
	((Port *)hw)->Group[submodule_index].OUTSET.reg = mask;
     820:	2380      	movs	r3, #128	; 0x80
		//********************************************** Solution - 1 @ To write on emulation (RWW) Area
		if (_rww_flash_write(&FLASH_0.dev, NVMCTRL_RWW_EEPROM_ADDR, input, num_bytes ) != ERR_NONE) {
     822:	2180      	movs	r1, #128	; 0x80
     824:	039b      	lsls	r3, r3, #14
     826:	4698      	mov	r8, r3
     828:	61bb      	str	r3, [r7, #24]
     82a:	002a      	movs	r2, r5
     82c:	0023      	movs	r3, r4
     82e:	03c9      	lsls	r1, r1, #15
     830:	4832      	ldr	r0, [pc, #200]	; (8fc <aes_measurement+0x158>)
     832:	4c33      	ldr	r4, [pc, #204]	; (900 <aes_measurement+0x15c>)
     834:	47a0      	blx	r4
     836:	2800      	cmp	r0, #0
     838:	d14a      	bne.n	8d0 <aes_measurement+0x12c>
	((Port *)hw)->Group[submodule_index].OUTCLR.reg = mask;
     83a:	4643      	mov	r3, r8
		// ------------------------------------------- To write page by page use the code below (Avoid loops)---------
		//for (uint32_t page_index = 0; page_index * FLASH_PAGE_SIZE < num_bytes; page_index += 1) {
			/* Write data to flash */
			//flash_write(&FLASH_0, target_addr + page_index * FLASH_PAGE_SIZE, &input[page_index * FLASH_PAGE_SIZE], FLASH_PAGE_SIZE);
		//}
		STOP_MEASURE(DGI_GPIO3);
     83c:	2002      	movs	r0, #2
     83e:	617b      	str	r3, [r7, #20]
     840:	47b0      	blx	r6
		
		SLEEP
     842:	2002      	movs	r0, #2
     844:	47b0      	blx	r6
     846:	9c03      	ldr	r4, [sp, #12]
     848:	21fe      	movs	r1, #254	; 0xfe
     84a:	0022      	movs	r2, r4
     84c:	4b2d      	ldr	r3, [pc, #180]	; (904 <aes_measurement+0x160>)
     84e:	0028      	movs	r0, r5
     850:	4798      	blx	r3
		for (size_t byte = 0; byte < num_bytes; byte++) {
			input[byte] = 0xfe;
		}

		// Start reading from flash
		START_MEASURE(DGI_GPIO3);
     852:	2002      	movs	r0, #2
     854:	47b0      	blx	r6
	((Port *)hw)->Group[submodule_index].OUTSET.reg = mask;
     856:	4643      	mov	r3, r8
		
		/* Read data from RWWEE flash (Solution 1) */
		if (_rww_flash_read(&FLASH_0.dev, NVMCTRL_RWW_EEPROM_ADDR, input, num_bytes) != ERR_NONE) {
     858:	2180      	movs	r1, #128	; 0x80
     85a:	61bb      	str	r3, [r7, #24]
     85c:	002a      	movs	r2, r5
     85e:	0023      	movs	r3, r4
     860:	03c9      	lsls	r1, r1, #15
     862:	4826      	ldr	r0, [pc, #152]	; (8fc <aes_measurement+0x158>)
     864:	4c28      	ldr	r4, [pc, #160]	; (908 <aes_measurement+0x164>)
     866:	47a0      	blx	r4
     868:	2800      	cmp	r0, #0
     86a:	d132      	bne.n	8d2 <aes_measurement+0x12e>
	((Port *)hw)->Group[submodule_index].OUTCLR.reg = mask;
     86c:	4643      	mov	r3, r8
			; /* Trap here when flash read error happen */
		}
		
		/* Read data from flash (Solution 2) */
		//flash_read(&FLASH_0, target_addr, output, num_bytes);
		STOP_MEASURE(DGI_GPIO3);
     86e:	2002      	movs	r0, #2
     870:	617b      	str	r3, [r7, #20]
     872:	47b0      	blx	r6
		
	

		// Start decryption
		START_MEASURE(DGI_GPIO2);
     874:	2002      	movs	r0, #2
     876:	47b0      	blx	r6
	((Port *)hw)->Group[submodule_index].OUTSET.reg = mask;
     878:	464b      	mov	r3, r9
     87a:	61bb      	str	r3, [r7, #24]
		/*decrypt*/
		mbedtls_aes_crypt_cbc( &aes2, MBEDTLS_AES_DECRYPT, num_bytes, iv2, input, input);
     87c:	465b      	mov	r3, fp
     87e:	9c03      	ldr	r4, [sp, #12]
     880:	4817      	ldr	r0, [pc, #92]	; (8e0 <aes_measurement+0x13c>)
     882:	0022      	movs	r2, r4
     884:	3310      	adds	r3, #16
     886:	2100      	movs	r1, #0
     888:	3018      	adds	r0, #24
     88a:	9501      	str	r5, [sp, #4]
     88c:	9500      	str	r5, [sp, #0]
     88e:	47d0      	blx	sl
	((Port *)hw)->Group[submodule_index].OUTCLR.reg = mask;
     890:	464b      	mov	r3, r9
		STOP_MEASURE(DGI_GPIO2);
     892:	2002      	movs	r0, #2
     894:	617b      	str	r3, [r7, #20]
     896:	47b0      	blx	r6
	for (size_t num_bytes = MIN_NUM_BYTES; num_bytes <= MAX_NUM_BYTES; num_bytes += STEP_SIZE) {
     898:	0023      	movs	r3, r4
     89a:	22bc      	movs	r2, #188	; 0xbc
     89c:	3310      	adds	r3, #16
     89e:	0152      	lsls	r2, r2, #5
     8a0:	4293      	cmp	r3, r2
     8a2:	d1a5      	bne.n	7f0 <aes_measurement+0x4c>
		}*/
		
		
	}
		// Free the memory
		free(input);
     8a4:	0028      	movs	r0, r5
     8a6:	4b19      	ldr	r3, [pc, #100]	; (90c <aes_measurement+0x168>)
     8a8:	4798      	blx	r3

		END_MEASUREMENT;
     8aa:	200a      	movs	r0, #10
     8ac:	47b0      	blx	r6
	((Port *)hw)->Group[submodule_index].OUTSET.reg = mask;
     8ae:	2202      	movs	r2, #2
     8b0:	2398      	movs	r3, #152	; 0x98
     8b2:	50fa      	str	r2, [r7, r3]
     8b4:	2380      	movs	r3, #128	; 0x80
     8b6:	025b      	lsls	r3, r3, #9
     8b8:	61bb      	str	r3, [r7, #24]
     8ba:	464b      	mov	r3, r9
     8bc:	61bb      	str	r3, [r7, #24]
     8be:	4643      	mov	r3, r8
     8c0:	61bb      	str	r3, [r7, #24]
}
     8c2:	b005      	add	sp, #20
     8c4:	bc3c      	pop	{r2, r3, r4, r5}
     8c6:	4690      	mov	r8, r2
     8c8:	4699      	mov	r9, r3
     8ca:	46a2      	mov	sl, r4
     8cc:	46ab      	mov	fp, r5
     8ce:	bdf0      	pop	{r4, r5, r6, r7, pc}
     8d0:	e7fe      	b.n	8d0 <aes_measurement+0x12c>
     8d2:	e7fe      	b.n	8d2 <aes_measurement+0x12e>
     8d4:	00002010 	.word	0x00002010
     8d8:	00000929 	.word	0x00000929
     8dc:	200000b0 	.word	0x200000b0
     8e0:	200001b0 	.word	0x200001b0
     8e4:	0000108d 	.word	0x0000108d
     8e8:	00001e15 	.word	0x00001e15
     8ec:	00001770 	.word	0x00001770
     8f0:	000002e5 	.word	0x000002e5
     8f4:	20000000 	.word	0x20000000
     8f8:	00001c05 	.word	0x00001c05
     8fc:	200002e8 	.word	0x200002e8
     900:	00000511 	.word	0x00000511
     904:	00001e4f 	.word	0x00001e4f
     908:	000004a1 	.word	0x000004a1
     90c:	00001e29 	.word	0x00001e29

00000910 <main>:

int main(void)
{
     910:	b510      	push	{r4, lr}
	atmel_start_init();
     912:	4b03      	ldr	r3, [pc, #12]	; (920 <main+0x10>)
     914:	4798      	blx	r3
	
	// Start measurements
	aes_measurement();
     916:	4b03      	ldr	r3, [pc, #12]	; (924 <main+0x14>)
     918:	4798      	blx	r3
	/*while (true) {
		delay_ms(500);
		gpio_toggle_pin_level(LED0);
	}*/
	
     91a:	2000      	movs	r0, #0
     91c:	bd10      	pop	{r4, pc}
     91e:	46c0      	nop			; (mov r8, r8)
     920:	00000115 	.word	0x00000115
     924:	000007a5 	.word	0x000007a5

00000928 <mbedtls_aes_setkey_enc>:
            memcpy( buf, aes_test_ofb_ct[u], 64 );
            aes_tests = aes_test_ofb_pt;
        }
        else
        {
            memcpy( buf, aes_test_ofb_pt, 64 );
     928:	b5f0      	push	{r4, r5, r6, r7, lr}
     92a:	46de      	mov	lr, fp
     92c:	4657      	mov	r7, sl
     92e:	464e      	mov	r6, r9
            aes_tests = aes_test_ofb_ct[u];
     930:	4645      	mov	r5, r8
     932:	b5e0      	push	{r5, r6, r7, lr}
     934:	4683      	mov	fp, r0
     936:	b083      	sub	sp, #12
     938:	2ac0      	cmp	r2, #192	; 0xc0
     93a:	d037      	beq.n	9ac <mbedtls_aes_setkey_enc+0x84>
     93c:	2380      	movs	r3, #128	; 0x80
     93e:	005b      	lsls	r3, r3, #1
            mbedtls_printf( "skipped\n" );
     940:	429a      	cmp	r2, r3
     942:	d02f      	beq.n	9a4 <mbedtls_aes_setkey_enc+0x7c>
     944:	2a80      	cmp	r2, #128	; 0x80
            continue;
     946:	d008      	beq.n	95a <mbedtls_aes_setkey_enc+0x32>
     948:	2020      	movs	r0, #32
        if( ret == MBEDTLS_ERR_PLATFORM_FEATURE_UNSUPPORTED && keybits == 192 )
     94a:	4240      	negs	r0, r0
     94c:	b003      	add	sp, #12
     94e:	bc3c      	pop	{r2, r3, r4, r5}
     950:	4690      	mov	r8, r2
            mbedtls_printf( "skipped\n" );
     952:	4699      	mov	r9, r3
     954:	46a2      	mov	sl, r4
     956:	46ab      	mov	fp, r5
            continue;
     958:	bdf0      	pop	{r4, r5, r6, r7, pc}
            mbedtls_printf( "  AES-CFB128-%3d (%s): ", keybits,
     95a:	3bf6      	subs	r3, #246	; 0xf6
     95c:	469c      	mov	ip, r3
     95e:	6003      	str	r3, [r0, #0]
     960:	465f      	mov	r7, fp
            memcpy( buf, aes_test_ctr_ct[u], len );
            aes_tests = aes_test_ctr_pt[u];
        }
        else
        {
            memcpy( buf, aes_test_ctr_pt[u], len );
     962:	465b      	mov	r3, fp
     964:	2600      	movs	r6, #0
     966:	4658      	mov	r0, fp
     968:	3708      	adds	r7, #8
     96a:	605f      	str	r7, [r3, #4]
     96c:	0952      	lsrs	r2, r2, #5
     96e:	784b      	ldrb	r3, [r1, #1]
            aes_tests = aes_test_ctr_ct[u];
     970:	788c      	ldrb	r4, [r1, #2]
     972:	021b      	lsls	r3, r3, #8
     974:	0424      	lsls	r4, r4, #16
     976:	4323      	orrs	r3, r4
     978:	780c      	ldrb	r4, [r1, #0]
     97a:	3601      	adds	r6, #1
            mbedtls_printf( "passed\n" );
     97c:	4323      	orrs	r3, r4
     97e:	78cc      	ldrb	r4, [r1, #3]
     980:	3104      	adds	r1, #4
     982:	0624      	lsls	r4, r4, #24
        if( memcmp( buf, aes_tests, 16 ) != 0 )
     984:	4323      	orrs	r3, r4
     986:	c708      	stmia	r7!, {r3}
     988:	4296      	cmp	r6, r2
     98a:	d3f0      	bcc.n	96e <mbedtls_aes_setkey_enc+0x46>
     98c:	4663      	mov	r3, ip
     98e:	4683      	mov	fp, r0
     990:	2b0c      	cmp	r3, #12
        if( verbose != 0 )
     992:	d100      	bne.n	996 <mbedtls_aes_setkey_enc+0x6e>
     994:	e1a4      	b.n	ce0 <mbedtls_aes_setkey_enc+0x3b8>
     996:	2b0e      	cmp	r3, #14
     998:	d100      	bne.n	99c <mbedtls_aes_setkey_enc+0x74>
            mbedtls_printf( "passed\n" );
     99a:	e13f      	b.n	c1c <mbedtls_aes_setkey_enc+0x2f4>
     99c:	2b0a      	cmp	r3, #10
     99e:	d009      	beq.n	9b4 <mbedtls_aes_setkey_enc+0x8c>
     9a0:	2000      	movs	r0, #0
        if( ret == MBEDTLS_ERR_PLATFORM_FEATURE_UNSUPPORTED && keybits == 192 )
     9a2:	e7d3      	b.n	94c <mbedtls_aes_setkey_enc+0x24>
     9a4:	230e      	movs	r3, #14
     9a6:	6003      	str	r3, [r0, #0]
     9a8:	469c      	mov	ip, r3
            mbedtls_printf( "skipped\n" );
     9aa:	e7d9      	b.n	960 <mbedtls_aes_setkey_enc+0x38>
     9ac:	230c      	movs	r3, #12
     9ae:	6003      	str	r3, [r0, #0]
            continue;
     9b0:	469c      	mov	ip, r3
    ret = mbedtls_aes_setkey_enc( &ctx->tweak, key2, key2bits );
     9b2:	e7d5      	b.n	960 <mbedtls_aes_setkey_enc+0x38>
     9b4:	22ff      	movs	r2, #255	; 0xff
     9b6:	6943      	ldr	r3, [r0, #20]
    if( ret != 0 )
     9b8:	4cc7      	ldr	r4, [pc, #796]	; (cd8 <mbedtls_aes_setkey_enc+0x3b0>)
     9ba:	0a19      	lsrs	r1, r3, #8
     9bc:	3428      	adds	r4, #40	; 0x28
    return mbedtls_aes_setkey_enc( &ctx->crypt, key1, key1bits );
     9be:	4011      	ands	r1, r2
     9c0:	5c65      	ldrb	r5, [r4, r1]
     9c2:	2101      	movs	r1, #1
     9c4:	6880      	ldr	r0, [r0, #8]
     9c6:	4041      	eors	r1, r0
     9c8:	404d      	eors	r5, r1
            aes_tests = aes_test_xts_pt32[u];
        }
        else
        {
            ret = mbedtls_aes_xts_setkey_enc( &ctx_xts, key, 256 );
            if( ret != 0)
     9ca:	0e19      	lsrs	r1, r3, #24
     9cc:	5c61      	ldrb	r1, [r4, r1]
     9ce:	4658      	mov	r0, fp
                goto exit;
            memcpy( buf, aes_test_xts_pt32[u], len );
     9d0:	0409      	lsls	r1, r1, #16
     9d2:	404d      	eors	r5, r1
     9d4:	0011      	movs	r1, r2
     9d6:	4019      	ands	r1, r3
     9d8:	5c61      	ldrb	r1, [r4, r1]
     9da:	0609      	lsls	r1, r1, #24
     9dc:	404d      	eors	r5, r1
     9de:	0c19      	lsrs	r1, r3, #16
     9e0:	4011      	ands	r1, r2
            aes_tests = aes_test_xts_ct32[u];
     9e2:	5c61      	ldrb	r1, [r4, r1]
     9e4:	0209      	lsls	r1, r1, #8
     9e6:	404d      	eors	r5, r1
     9e8:	4659      	mov	r1, fp
     9ea:	618d      	str	r5, [r1, #24]
            mbedtls_printf( "passed\n" );
     9ec:	68c9      	ldr	r1, [r1, #12]
     9ee:	6907      	ldr	r7, [r0, #16]
     9f0:	4069      	eors	r1, r5
     9f2:	404f      	eors	r7, r1
            mbedtls_printf( "  AES-OFB-%3d (%s): ", keybits,
     9f4:	407b      	eors	r3, r7
     9f6:	61c1      	str	r1, [r0, #28]
            mbedtls_printf( "  AES-CTR-128 (%s): ",
     9f8:	6207      	str	r7, [r0, #32]
     9fa:	6243      	str	r3, [r0, #36]	; 0x24
            mbedtls_printf( "passed\n" );
     9fc:	2002      	movs	r0, #2
     9fe:	0a1e      	lsrs	r6, r3, #8
     a00:	4016      	ands	r6, r2
     a02:	5da6      	ldrb	r6, [r4, r6]
            ret = 1;
            goto exit;
        }

        if( verbose != 0 )
            mbedtls_printf( "passed\n" );
     a04:	4045      	eors	r5, r0
     a06:	4075      	eors	r5, r6
     a08:	0e1e      	lsrs	r6, r3, #24
     a0a:	5da6      	ldrb	r6, [r4, r6]
            mbedtls_printf( "  AES-XTS-128 (%s): ",
     a0c:	4658      	mov	r0, fp
     a0e:	0436      	lsls	r6, r6, #16
        mbedtls_printf( "\n" );
     a10:	406e      	eors	r6, r5
     a12:	0015      	movs	r5, r2
     a14:	401d      	ands	r5, r3
     a16:	5d65      	ldrb	r5, [r4, r5]
        mbedtls_printf( "\n" );
     a18:	062d      	lsls	r5, r5, #24
     a1a:	406e      	eors	r6, r5
     a1c:	0c1d      	lsrs	r5, r3, #16
     a1e:	4015      	ands	r5, r2
    }

    if( verbose != 0 )
        mbedtls_printf( "\n" );
     a20:	5d65      	ldrb	r5, [r4, r5]
     a22:	022d      	lsls	r5, r5, #8
     a24:	406e      	eors	r6, r5
     a26:	4071      	eors	r1, r6
     a28:	404f      	eors	r7, r1
     a2a:	407b      	eors	r3, r7
     a2c:	6286      	str	r6, [r0, #40]	; 0x28
     a2e:	62c1      	str	r1, [r0, #44]	; 0x2c
     a30:	6307      	str	r7, [r0, #48]	; 0x30
     a32:	6343      	str	r3, [r0, #52]	; 0x34
     a34:	2004      	movs	r0, #4
     a36:	0a1d      	lsrs	r5, r3, #8
     a38:	4015      	ands	r5, r2
     a3a:	5d65      	ldrb	r5, [r4, r5]
     a3c:	4046      	eors	r6, r0
     a3e:	4075      	eors	r5, r6
     a40:	0e1e      	lsrs	r6, r3, #24
     a42:	5da6      	ldrb	r6, [r4, r6]
     a44:	4658      	mov	r0, fp
     a46:	0436      	lsls	r6, r6, #16
     a48:	4075      	eors	r5, r6
     a4a:	0016      	movs	r6, r2
     a4c:	401e      	ands	r6, r3
     a4e:	5da6      	ldrb	r6, [r4, r6]
     a50:	0636      	lsls	r6, r6, #24
     a52:	4075      	eors	r5, r6
     a54:	0c1e      	lsrs	r6, r3, #16
     a56:	4016      	ands	r6, r2
     a58:	5da6      	ldrb	r6, [r4, r6]
     a5a:	0236      	lsls	r6, r6, #8
     a5c:	4075      	eors	r5, r6
     a5e:	4069      	eors	r1, r5
     a60:	404f      	eors	r7, r1
     a62:	407b      	eors	r3, r7
     a64:	6385      	str	r5, [r0, #56]	; 0x38
     a66:	63c1      	str	r1, [r0, #60]	; 0x3c
     a68:	6407      	str	r7, [r0, #64]	; 0x40
     a6a:	6443      	str	r3, [r0, #68]	; 0x44
     a6c:	2008      	movs	r0, #8
     a6e:	0a1e      	lsrs	r6, r3, #8
     a70:	4016      	ands	r6, r2
     a72:	5da6      	ldrb	r6, [r4, r6]
     a74:	4045      	eors	r5, r0
     a76:	406e      	eors	r6, r5
     a78:	0e1d      	lsrs	r5, r3, #24
     a7a:	5d65      	ldrb	r5, [r4, r5]
     a7c:	4658      	mov	r0, fp
     a7e:	042d      	lsls	r5, r5, #16
     a80:	406e      	eors	r6, r5
     a82:	0015      	movs	r5, r2
                ( (uint32_t) FSb[ ( RK[3]       ) & 0xFF ] << 24 );
     a84:	401d      	ands	r5, r3
     a86:	5d65      	ldrb	r5, [r4, r5]
     a88:	062d      	lsls	r5, r5, #24
                ( (uint32_t) FSb[ ( RK[3] >> 24 ) & 0xFF ] << 16 ) ^
     a8a:	406e      	eors	r6, r5
                ( (uint32_t) FSb[ ( RK[3] >> 16 ) & 0xFF ] <<  8 ) ^
     a8c:	0c1d      	lsrs	r5, r3, #16
     a8e:	4015      	ands	r5, r2
     a90:	5d65      	ldrb	r5, [r4, r5]
     a92:	022d      	lsls	r5, r5, #8
                ( (uint32_t) FSb[ ( RK[3] >> 24 ) & 0xFF ] << 16 ) ^
     a94:	406e      	eors	r6, r5
                RK[6]  = RK[2] ^ RK[5];
     a96:	003d      	movs	r5, r7
                RK[5]  = RK[1] ^ RK[4];
     a98:	4071      	eors	r1, r6
                RK[6]  = RK[2] ^ RK[5];
     a9a:	404d      	eors	r5, r1
                RK[7]  = RK[3] ^ RK[6];
     a9c:	406b      	eors	r3, r5
                RK[4]  = RK[0] ^ RCON[i] ^
     a9e:	6486      	str	r6, [r0, #72]	; 0x48
                RK[5]  = RK[1] ^ RK[4];
     aa0:	64c1      	str	r1, [r0, #76]	; 0x4c
                RK[6]  = RK[2] ^ RK[5];
     aa2:	6505      	str	r5, [r0, #80]	; 0x50
                RK[7]  = RK[3] ^ RK[6];
     aa4:	6543      	str	r3, [r0, #84]	; 0x54
                ( (uint32_t) FSb[ ( RK[3] >> 24 ) & 0xFF ] << 16 ) ^
     aa6:	2010      	movs	r0, #16
                ( (uint32_t) FSb[ ( RK[3] >>  8 ) & 0xFF ]       ) ^
     aa8:	0a1f      	lsrs	r7, r3, #8
     aaa:	4017      	ands	r7, r2
     aac:	5de7      	ldrb	r7, [r4, r7]
                ( (uint32_t) FSb[ ( RK[3] >> 24 ) & 0xFF ] << 16 ) ^
     aae:	4046      	eors	r6, r0
     ab0:	4077      	eors	r7, r6
     ab2:	0e1e      	lsrs	r6, r3, #24
     ab4:	5da6      	ldrb	r6, [r4, r6]
                RK[4]  = RK[0] ^ RCON[i] ^
     ab6:	4658      	mov	r0, fp
                ( (uint32_t) FSb[ ( RK[3] >> 24 ) & 0xFF ] << 16 ) ^
     ab8:	0436      	lsls	r6, r6, #16
     aba:	4077      	eors	r7, r6
                ( (uint32_t) FSb[ ( RK[3]       ) & 0xFF ] << 24 );
     abc:	0016      	movs	r6, r2
     abe:	401e      	ands	r6, r3
     ac0:	5da6      	ldrb	r6, [r4, r6]
     ac2:	0636      	lsls	r6, r6, #24
                ( (uint32_t) FSb[ ( RK[3] >> 24 ) & 0xFF ] << 16 ) ^
     ac4:	4077      	eors	r7, r6
                ( (uint32_t) FSb[ ( RK[3] >> 16 ) & 0xFF ] <<  8 ) ^
     ac6:	0c1e      	lsrs	r6, r3, #16
     ac8:	4016      	ands	r6, r2
     aca:	5da6      	ldrb	r6, [r4, r6]
     acc:	0236      	lsls	r6, r6, #8
                ( (uint32_t) FSb[ ( RK[3] >> 24 ) & 0xFF ] << 16 ) ^
     ace:	4077      	eors	r7, r6
                RK[5]  = RK[1] ^ RK[4];
     ad0:	4079      	eors	r1, r7
                RK[6]  = RK[2] ^ RK[5];
     ad2:	404d      	eors	r5, r1
                RK[7]  = RK[3] ^ RK[6];
     ad4:	406b      	eors	r3, r5
                RK[4]  = RK[0] ^ RCON[i] ^
     ad6:	6587      	str	r7, [r0, #88]	; 0x58
                RK[5]  = RK[1] ^ RK[4];
     ad8:	65c1      	str	r1, [r0, #92]	; 0x5c
                RK[6]  = RK[2] ^ RK[5];
     ada:	6605      	str	r5, [r0, #96]	; 0x60
                RK[7]  = RK[3] ^ RK[6];
     adc:	6643      	str	r3, [r0, #100]	; 0x64
                ( (uint32_t) FSb[ ( RK[3] >> 24 ) & 0xFF ] << 16 ) ^
     ade:	2020      	movs	r0, #32
                ( (uint32_t) FSb[ ( RK[3] >>  8 ) & 0xFF ]       ) ^
     ae0:	0a1e      	lsrs	r6, r3, #8
     ae2:	4016      	ands	r6, r2
     ae4:	5da6      	ldrb	r6, [r4, r6]
                ( (uint32_t) FSb[ ( RK[3] >> 24 ) & 0xFF ] << 16 ) ^
     ae6:	4047      	eors	r7, r0
     ae8:	407e      	eors	r6, r7
     aea:	0e1f      	lsrs	r7, r3, #24
     aec:	5de7      	ldrb	r7, [r4, r7]
                RK[4]  = RK[0] ^ RCON[i] ^
     aee:	4658      	mov	r0, fp
                ( (uint32_t) FSb[ ( RK[3] >> 24 ) & 0xFF ] << 16 ) ^
     af0:	043f      	lsls	r7, r7, #16
     af2:	407e      	eors	r6, r7
                ( (uint32_t) FSb[ ( RK[3]       ) & 0xFF ] << 24 );
     af4:	0017      	movs	r7, r2
     af6:	401f      	ands	r7, r3
     af8:	5de7      	ldrb	r7, [r4, r7]
     afa:	063f      	lsls	r7, r7, #24
                ( (uint32_t) FSb[ ( RK[3] >> 24 ) & 0xFF ] << 16 ) ^
     afc:	407e      	eors	r6, r7
                ( (uint32_t) FSb[ ( RK[3] >> 16 ) & 0xFF ] <<  8 ) ^
     afe:	0c1f      	lsrs	r7, r3, #16
     b00:	4017      	ands	r7, r2
     b02:	5de7      	ldrb	r7, [r4, r7]
     b04:	023f      	lsls	r7, r7, #8
                ( (uint32_t) FSb[ ( RK[3] >> 24 ) & 0xFF ] << 16 ) ^
     b06:	407e      	eors	r6, r7
                RK[5]  = RK[1] ^ RK[4];
     b08:	4071      	eors	r1, r6
                RK[6]  = RK[2] ^ RK[5];
     b0a:	404d      	eors	r5, r1
                RK[7]  = RK[3] ^ RK[6];
     b0c:	406b      	eors	r3, r5
                RK[4]  = RK[0] ^ RCON[i] ^
     b0e:	6686      	str	r6, [r0, #104]	; 0x68
                RK[5]  = RK[1] ^ RK[4];
     b10:	66c1      	str	r1, [r0, #108]	; 0x6c
                RK[6]  = RK[2] ^ RK[5];
     b12:	6705      	str	r5, [r0, #112]	; 0x70
                RK[7]  = RK[3] ^ RK[6];
     b14:	6743      	str	r3, [r0, #116]	; 0x74
                ( (uint32_t) FSb[ ( RK[3] >> 24 ) & 0xFF ] << 16 ) ^
     b16:	2040      	movs	r0, #64	; 0x40
                ( (uint32_t) FSb[ ( RK[3] >>  8 ) & 0xFF ]       ) ^
     b18:	0a1f      	lsrs	r7, r3, #8
     b1a:	4017      	ands	r7, r2
     b1c:	5de7      	ldrb	r7, [r4, r7]
                ( (uint32_t) FSb[ ( RK[3] >> 24 ) & 0xFF ] << 16 ) ^
     b1e:	4046      	eors	r6, r0
     b20:	407e      	eors	r6, r7
     b22:	0e1f      	lsrs	r7, r3, #24
     b24:	5de7      	ldrb	r7, [r4, r7]
                RK[4]  = RK[0] ^ RCON[i] ^
     b26:	4658      	mov	r0, fp
                ( (uint32_t) FSb[ ( RK[3] >> 24 ) & 0xFF ] << 16 ) ^
     b28:	043f      	lsls	r7, r7, #16
     b2a:	407e      	eors	r6, r7
                ( (uint32_t) FSb[ ( RK[3]       ) & 0xFF ] << 24 );
     b2c:	0017      	movs	r7, r2
     b2e:	401f      	ands	r7, r3
     b30:	5de7      	ldrb	r7, [r4, r7]
     b32:	063f      	lsls	r7, r7, #24
                ( (uint32_t) FSb[ ( RK[3] >> 24 ) & 0xFF ] << 16 ) ^
     b34:	407e      	eors	r6, r7
                ( (uint32_t) FSb[ ( RK[3] >> 16 ) & 0xFF ] <<  8 ) ^
     b36:	0c1f      	lsrs	r7, r3, #16
     b38:	4017      	ands	r7, r2
     b3a:	5de7      	ldrb	r7, [r4, r7]
     b3c:	023f      	lsls	r7, r7, #8
                ( (uint32_t) FSb[ ( RK[3] >> 24 ) & 0xFF ] << 16 ) ^
     b3e:	4077      	eors	r7, r6
                RK[5]  = RK[1] ^ RK[4];
     b40:	4079      	eors	r1, r7
                RK[4]  = RK[0] ^ RCON[i] ^
     b42:	6787      	str	r7, [r0, #120]	; 0x78
                RK[5]  = RK[1] ^ RK[4];
     b44:	67c1      	str	r1, [r0, #124]	; 0x7c
                RK[6]  = RK[2] ^ RK[5];
     b46:	465e      	mov	r6, fp
     b48:	2080      	movs	r0, #128	; 0x80
     b4a:	404d      	eors	r5, r1
     b4c:	5035      	str	r5, [r6, r0]
     b4e:	4684      	mov	ip, r0
                RK[7]  = RK[3] ^ RK[6];
     b50:	2684      	movs	r6, #132	; 0x84
     b52:	4658      	mov	r0, fp
     b54:	406b      	eors	r3, r5
     b56:	5183      	str	r3, [r0, r6]
                ( (uint32_t) FSb[ ( RK[3] >> 24 ) & 0xFF ] << 16 ) ^
     b58:	4660      	mov	r0, ip
                ( (uint32_t) FSb[ ( RK[3] >>  8 ) & 0xFF ]       ) ^
     b5a:	0a1e      	lsrs	r6, r3, #8
     b5c:	4016      	ands	r6, r2
     b5e:	5da6      	ldrb	r6, [r4, r6]
                ( (uint32_t) FSb[ ( RK[3] >> 24 ) & 0xFF ] << 16 ) ^
     b60:	4047      	eors	r7, r0
     b62:	407e      	eors	r6, r7
     b64:	0e1f      	lsrs	r7, r3, #24
     b66:	5de7      	ldrb	r7, [r4, r7]
                RK[4]  = RK[0] ^ RCON[i] ^
     b68:	4658      	mov	r0, fp
                ( (uint32_t) FSb[ ( RK[3] >> 24 ) & 0xFF ] << 16 ) ^
     b6a:	043f      	lsls	r7, r7, #16
     b6c:	407e      	eors	r6, r7
                ( (uint32_t) FSb[ ( RK[3]       ) & 0xFF ] << 24 );
     b6e:	0017      	movs	r7, r2
     b70:	401f      	ands	r7, r3
     b72:	5de7      	ldrb	r7, [r4, r7]
     b74:	063f      	lsls	r7, r7, #24
                ( (uint32_t) FSb[ ( RK[3] >> 24 ) & 0xFF ] << 16 ) ^
     b76:	407e      	eors	r6, r7
                ( (uint32_t) FSb[ ( RK[3] >> 16 ) & 0xFF ] <<  8 ) ^
     b78:	0c1f      	lsrs	r7, r3, #16
     b7a:	4017      	ands	r7, r2
     b7c:	5de7      	ldrb	r7, [r4, r7]
     b7e:	023f      	lsls	r7, r7, #8
                ( (uint32_t) FSb[ ( RK[3] >> 24 ) & 0xFF ] << 16 ) ^
     b80:	407e      	eors	r6, r7
                RK[4]  = RK[0] ^ RCON[i] ^
     b82:	2788      	movs	r7, #136	; 0x88
                RK[5]  = RK[1] ^ RK[4];
     b84:	4071      	eors	r1, r6
                RK[4]  = RK[0] ^ RCON[i] ^
     b86:	51c6      	str	r6, [r0, r7]
                RK[5]  = RK[1] ^ RK[4];
     b88:	3704      	adds	r7, #4
     b8a:	51c1      	str	r1, [r0, r7]
                RK[6]  = RK[2] ^ RK[5];
     b8c:	404d      	eors	r5, r1
     b8e:	3704      	adds	r7, #4
     b90:	51c5      	str	r5, [r0, r7]
                RK[7]  = RK[3] ^ RK[6];
     b92:	406b      	eors	r3, r5
     b94:	3704      	adds	r7, #4
     b96:	51c3      	str	r3, [r0, r7]
                ( (uint32_t) FSb[ ( RK[3] >> 24 ) & 0xFF ] << 16 ) ^
     b98:	201b      	movs	r0, #27
                ( (uint32_t) FSb[ ( RK[3] >>  8 ) & 0xFF ]       ) ^
     b9a:	0a1f      	lsrs	r7, r3, #8
     b9c:	4017      	ands	r7, r2
     b9e:	5de7      	ldrb	r7, [r4, r7]
                ( (uint32_t) FSb[ ( RK[3] >> 24 ) & 0xFF ] << 16 ) ^
     ba0:	4046      	eors	r6, r0
     ba2:	4077      	eors	r7, r6
     ba4:	0e1e      	lsrs	r6, r3, #24
     ba6:	5da6      	ldrb	r6, [r4, r6]
                RK[4]  = RK[0] ^ RCON[i] ^
     ba8:	4658      	mov	r0, fp
                ( (uint32_t) FSb[ ( RK[3] >> 24 ) & 0xFF ] << 16 ) ^
     baa:	0436      	lsls	r6, r6, #16
     bac:	4077      	eors	r7, r6
                ( (uint32_t) FSb[ ( RK[3]       ) & 0xFF ] << 24 );
     bae:	0016      	movs	r6, r2
     bb0:	401e      	ands	r6, r3
     bb2:	5da6      	ldrb	r6, [r4, r6]
     bb4:	0636      	lsls	r6, r6, #24
                ( (uint32_t) FSb[ ( RK[3] >> 24 ) & 0xFF ] << 16 ) ^
     bb6:	4077      	eors	r7, r6
                ( (uint32_t) FSb[ ( RK[3] >> 16 ) & 0xFF ] <<  8 ) ^
     bb8:	0c1e      	lsrs	r6, r3, #16
     bba:	4016      	ands	r6, r2
     bbc:	5da6      	ldrb	r6, [r4, r6]
     bbe:	0236      	lsls	r6, r6, #8
                ( (uint32_t) FSb[ ( RK[3] >> 24 ) & 0xFF ] << 16 ) ^
     bc0:	4077      	eors	r7, r6
                RK[4]  = RK[0] ^ RCON[i] ^
     bc2:	2698      	movs	r6, #152	; 0x98
                RK[5]  = RK[1] ^ RK[4];
     bc4:	4079      	eors	r1, r7
                RK[4]  = RK[0] ^ RCON[i] ^
     bc6:	5187      	str	r7, [r0, r6]
                RK[5]  = RK[1] ^ RK[4];
     bc8:	3604      	adds	r6, #4
     bca:	5181      	str	r1, [r0, r6]
                RK[6]  = RK[2] ^ RK[5];
     bcc:	404d      	eors	r5, r1
     bce:	3604      	adds	r6, #4
     bd0:	5185      	str	r5, [r0, r6]
                RK[7]  = RK[3] ^ RK[6];
     bd2:	406b      	eors	r3, r5
     bd4:	3604      	adds	r6, #4
     bd6:	5183      	str	r3, [r0, r6]
                ( (uint32_t) FSb[ ( RK[3] >> 24 ) & 0xFF ] << 16 ) ^
     bd8:	2036      	movs	r0, #54	; 0x36
                ( (uint32_t) FSb[ ( RK[3] >>  8 ) & 0xFF ]       ) ^
     bda:	0a1e      	lsrs	r6, r3, #8
     bdc:	4016      	ands	r6, r2
     bde:	5da6      	ldrb	r6, [r4, r6]
                ( (uint32_t) FSb[ ( RK[3] >> 24 ) & 0xFF ] << 16 ) ^
     be0:	4047      	eors	r7, r0
     be2:	407e      	eors	r6, r7
     be4:	0e1f      	lsrs	r7, r3, #24
     be6:	5de7      	ldrb	r7, [r4, r7]
                RK[4]  = RK[0] ^ RCON[i] ^
     be8:	4658      	mov	r0, fp
                ( (uint32_t) FSb[ ( RK[3] >> 24 ) & 0xFF ] << 16 ) ^
     bea:	043f      	lsls	r7, r7, #16
     bec:	407e      	eors	r6, r7
                ( (uint32_t) FSb[ ( RK[3]       ) & 0xFF ] << 24 );
     bee:	0017      	movs	r7, r2
     bf0:	401f      	ands	r7, r3
     bf2:	5de7      	ldrb	r7, [r4, r7]
     bf4:	063f      	lsls	r7, r7, #24
                ( (uint32_t) FSb[ ( RK[3] >> 24 ) & 0xFF ] << 16 ) ^
     bf6:	407e      	eors	r6, r7
                ( (uint32_t) FSb[ ( RK[3] >> 16 ) & 0xFF ] <<  8 ) ^
     bf8:	0c1f      	lsrs	r7, r3, #16
     bfa:	403a      	ands	r2, r7
     bfc:	5ca2      	ldrb	r2, [r4, r2]
                RK[4]  = RK[0] ^ RCON[i] ^
     bfe:	24a8      	movs	r4, #168	; 0xa8
                ( (uint32_t) FSb[ ( RK[3] >> 16 ) & 0xFF ] <<  8 ) ^
     c00:	0212      	lsls	r2, r2, #8
                ( (uint32_t) FSb[ ( RK[3] >> 24 ) & 0xFF ] << 16 ) ^
     c02:	4072      	eors	r2, r6
                RK[4]  = RK[0] ^ RCON[i] ^
     c04:	5102      	str	r2, [r0, r4]
                RK[5]  = RK[1] ^ RK[4];
     c06:	4051      	eors	r1, r2
     c08:	22ac      	movs	r2, #172	; 0xac
                RK[6]  = RK[2] ^ RK[5];
     c0a:	404d      	eors	r5, r1
                RK[5]  = RK[1] ^ RK[4];
     c0c:	5081      	str	r1, [r0, r2]
                RK[6]  = RK[2] ^ RK[5];
     c0e:	3204      	adds	r2, #4
     c10:	5085      	str	r5, [r0, r2]
                RK[7]  = RK[3] ^ RK[6];
     c12:	405d      	eors	r5, r3
     c14:	23b4      	movs	r3, #180	; 0xb4
     c16:	50c5      	str	r5, [r0, r3]
    return( 0 );
     c18:	2000      	movs	r0, #0
     c1a:	e697      	b.n	94c <mbedtls_aes_setkey_enc+0x24>
     c1c:	6a03      	ldr	r3, [r0, #32]
     c1e:	4a2e      	ldr	r2, [pc, #184]	; (cd8 <mbedtls_aes_setkey_enc+0x3b0>)
     c20:	469a      	mov	sl, r3
     c22:	69c3      	ldr	r3, [r0, #28]
     c24:	4693      	mov	fp, r2
     c26:	4699      	mov	r9, r3
     c28:	6903      	ldr	r3, [r0, #16]
                ( (uint32_t) FSb[ ( RK[7] >>  8 ) & 0xFF ]       ) ^
     c2a:	22ff      	movs	r2, #255	; 0xff
     c2c:	4698      	mov	r8, r3
     c2e:	4694      	mov	ip, r2
     c30:	465d      	mov	r5, fp
     c32:	4642      	mov	r2, r8
     c34:	68c3      	ldr	r3, [r0, #12]
     c36:	6984      	ldr	r4, [r0, #24]
     c38:	6947      	ldr	r7, [r0, #20]
     c3a:	9300      	str	r3, [sp, #0]
     c3c:	6a46      	ldr	r6, [r0, #36]	; 0x24
     c3e:	6883      	ldr	r3, [r0, #8]
     c40:	3528      	adds	r5, #40	; 0x28
     c42:	3028      	adds	r0, #40	; 0x28
     c44:	9201      	str	r2, [sp, #4]
     c46:	4661      	mov	r1, ip
     c48:	0a32      	lsrs	r2, r6, #8
     c4a:	400a      	ands	r2, r1
                ( (uint32_t) FSb[ ( RK[7] >> 24 ) & 0xFF ] << 16 ) ^
     c4c:	0e31      	lsrs	r1, r6, #24
     c4e:	5c69      	ldrb	r1, [r5, r1]
                ( (uint32_t) FSb[ ( RK[7] >>  8 ) & 0xFF ]       ) ^
     c50:	5caa      	ldrb	r2, [r5, r2]
                ( (uint32_t) FSb[ ( RK[7] >> 24 ) & 0xFF ] << 16 ) ^
     c52:	0409      	lsls	r1, r1, #16
     c54:	404a      	eors	r2, r1
     c56:	4053      	eors	r3, r2
                ( (uint32_t) FSb[ ( RK[7]       ) & 0xFF ] << 24 );
     c58:	4662      	mov	r2, ip
                ( (uint32_t) FSb[ ( RK[7] >> 16 ) & 0xFF ] <<  8 ) ^
     c5a:	4661      	mov	r1, ip
                ( (uint32_t) FSb[ ( RK[7]       ) & 0xFF ] << 24 );
     c5c:	4032      	ands	r2, r6
     c5e:	5caa      	ldrb	r2, [r5, r2]
     c60:	0612      	lsls	r2, r2, #24
                ( (uint32_t) FSb[ ( RK[7] >> 24 ) & 0xFF ] << 16 ) ^
     c62:	4053      	eors	r3, r2
                ( (uint32_t) FSb[ ( RK[7] >> 16 ) & 0xFF ] <<  8 ) ^
     c64:	0c32      	lsrs	r2, r6, #16
     c66:	400a      	ands	r2, r1
                ( (uint32_t) FSb[ ( RK[7] >> 24 ) & 0xFF ] << 16 ) ^
     c68:	4659      	mov	r1, fp
                ( (uint32_t) FSb[ ( RK[7] >> 16 ) & 0xFF ] <<  8 ) ^
     c6a:	5caa      	ldrb	r2, [r5, r2]
     c6c:	0212      	lsls	r2, r2, #8
                ( (uint32_t) FSb[ ( RK[7] >> 24 ) & 0xFF ] << 16 ) ^
     c6e:	4053      	eors	r3, r2
     c70:	c904      	ldmia	r1!, {r2}
     c72:	4053      	eors	r3, r2
                RK[9]  = RK[1] ^ RK[8];
     c74:	9a00      	ldr	r2, [sp, #0]
                ( (uint32_t) FSb[ ( RK[7] >> 24 ) & 0xFF ] << 16 ) ^
     c76:	468b      	mov	fp, r1
                RK[10] = RK[2] ^ RK[9];
     c78:	9901      	ldr	r1, [sp, #4]
                RK[9]  = RK[1] ^ RK[8];
     c7a:	405a      	eors	r2, r3
                RK[10] = RK[2] ^ RK[9];
     c7c:	4051      	eors	r1, r2
                RK[9]  = RK[1] ^ RK[8];
     c7e:	6042      	str	r2, [r0, #4]
     c80:	9200      	str	r2, [sp, #0]
                ( (uint32_t) FSb[ ( RK[11]       ) & 0xFF ]       ) ^
     c82:	4662      	mov	r2, ip
                RK[11] = RK[3] ^ RK[10];
     c84:	404f      	eors	r7, r1
                RK[10] = RK[2] ^ RK[9];
     c86:	6081      	str	r1, [r0, #8]
     c88:	9101      	str	r1, [sp, #4]
                ( (uint32_t) FSb[ ( RK[11] >>  8 ) & 0xFF ] <<  8 ) ^
     c8a:	4661      	mov	r1, ip
                ( (uint32_t) FSb[ ( RK[11]       ) & 0xFF ]       ) ^
     c8c:	403a      	ands	r2, r7
     c8e:	5caa      	ldrb	r2, [r5, r2]
                RK[8]  = RK[0] ^ RCON[i] ^
     c90:	6003      	str	r3, [r0, #0]
                ( (uint32_t) FSb[ ( RK[11] >> 16 ) & 0xFF ] << 16 ) ^
     c92:	4054      	eors	r4, r2
                ( (uint32_t) FSb[ ( RK[11] >> 24 ) & 0xFF ] << 24 );
     c94:	0e3a      	lsrs	r2, r7, #24
     c96:	5caa      	ldrb	r2, [r5, r2]
                RK[11] = RK[3] ^ RK[10];
     c98:	60c7      	str	r7, [r0, #12]
                ( (uint32_t) FSb[ ( RK[11] >> 24 ) & 0xFF ] << 24 );
     c9a:	0612      	lsls	r2, r2, #24
                ( (uint32_t) FSb[ ( RK[11] >> 16 ) & 0xFF ] << 16 ) ^
     c9c:	4054      	eors	r4, r2
                ( (uint32_t) FSb[ ( RK[11] >>  8 ) & 0xFF ] <<  8 ) ^
     c9e:	0a3a      	lsrs	r2, r7, #8
     ca0:	400a      	ands	r2, r1
     ca2:	5caa      	ldrb	r2, [r5, r2]
     ca4:	0212      	lsls	r2, r2, #8
                ( (uint32_t) FSb[ ( RK[11] >> 16 ) & 0xFF ] << 16 ) ^
     ca6:	4062      	eors	r2, r4
     ca8:	0c3c      	lsrs	r4, r7, #16
     caa:	400c      	ands	r4, r1
     cac:	5d2c      	ldrb	r4, [r5, r4]
     cae:	0424      	lsls	r4, r4, #16
     cb0:	4054      	eors	r4, r2
                RK[13] = RK[5] ^ RK[12];
     cb2:	464a      	mov	r2, r9
     cb4:	4062      	eors	r2, r4
     cb6:	4691      	mov	r9, r2
     cb8:	6142      	str	r2, [r0, #20]
                RK[14] = RK[6] ^ RK[13];
     cba:	4649      	mov	r1, r9
     cbc:	4652      	mov	r2, sl
     cbe:	404a      	eors	r2, r1
     cc0:	6182      	str	r2, [r0, #24]
                RK[15] = RK[7] ^ RK[14];
     cc2:	4056      	eors	r6, r2
                RK[14] = RK[6] ^ RK[13];
     cc4:	4692      	mov	sl, r2
            for( i = 0; i < 7; i++, RK += 8 )
     cc6:	4a05      	ldr	r2, [pc, #20]	; (cdc <mbedtls_aes_setkey_enc+0x3b4>)
                RK[12] = RK[4] ^
     cc8:	6104      	str	r4, [r0, #16]
                RK[15] = RK[7] ^ RK[14];
     cca:	61c6      	str	r6, [r0, #28]
     ccc:	3020      	adds	r0, #32
            for( i = 0; i < 7; i++, RK += 8 )
     cce:	4593      	cmp	fp, r2
     cd0:	d1b9      	bne.n	c46 <mbedtls_aes_setkey_enc+0x31e>
    return( 0 );
     cd2:	2000      	movs	r0, #0
     cd4:	e63a      	b.n	94c <mbedtls_aes_setkey_enc+0x24>
     cd6:	46c0      	nop			; (mov r8, r8)
     cd8:	00002030 	.word	0x00002030
     cdc:	0000204c 	.word	0x0000204c
     ce0:	69c1      	ldr	r1, [r0, #28]
                ( (uint32_t) FSb[ ( RK[5] >>  8 ) & 0xFF ]       ) ^
     ce2:	2028      	movs	r0, #40	; 0x28
     ce4:	4684      	mov	ip, r0
     ce6:	4ce8      	ldr	r4, [pc, #928]	; (1088 <mbedtls_aes_setkey_enc+0x760>)
     ce8:	23ff      	movs	r3, #255	; 0xff
     cea:	44a4      	add	ip, r4
     cec:	4660      	mov	r0, ip
     cee:	0a0a      	lsrs	r2, r1, #8
     cf0:	401a      	ands	r2, r3
     cf2:	5c82      	ldrb	r2, [r0, r2]
                ( (uint32_t) FSb[ ( RK[5] >> 24 ) & 0xFF ] << 16 ) ^
     cf4:	4658      	mov	r0, fp
     cf6:	2401      	movs	r4, #1
     cf8:	6880      	ldr	r0, [r0, #8]
     cfa:	4044      	eors	r4, r0
     cfc:	4660      	mov	r0, ip
     cfe:	4062      	eors	r2, r4
     d00:	0e0c      	lsrs	r4, r1, #24
     d02:	5d04      	ldrb	r4, [r0, r4]
     d04:	0424      	lsls	r4, r4, #16
     d06:	4062      	eors	r2, r4
                ( (uint32_t) FSb[ ( RK[5]       ) & 0xFF ] << 24 );
     d08:	001c      	movs	r4, r3
     d0a:	400c      	ands	r4, r1
     d0c:	5d04      	ldrb	r4, [r0, r4]
     d0e:	0624      	lsls	r4, r4, #24
                ( (uint32_t) FSb[ ( RK[5] >> 24 ) & 0xFF ] << 16 ) ^
     d10:	4062      	eors	r2, r4
                ( (uint32_t) FSb[ ( RK[5] >> 16 ) & 0xFF ] <<  8 ) ^
     d12:	0c0c      	lsrs	r4, r1, #16
     d14:	401c      	ands	r4, r3
     d16:	5d04      	ldrb	r4, [r0, r4]
     d18:	0224      	lsls	r4, r4, #8
                ( (uint32_t) FSb[ ( RK[5] >> 24 ) & 0xFF ] << 16 ) ^
     d1a:	4062      	eors	r2, r4
     d1c:	4692      	mov	sl, r2
                RK[6]  = RK[0] ^ RCON[i] ^
     d1e:	465a      	mov	r2, fp
     d20:	4650      	mov	r0, sl
                RK[7]  = RK[1] ^ RK[6];
     d22:	68d7      	ldr	r7, [r2, #12]
                RK[6]  = RK[0] ^ RCON[i] ^
     d24:	6210      	str	r0, [r2, #32]
                RK[7]  = RK[1] ^ RK[6];
     d26:	465a      	mov	r2, fp
                RK[8]  = RK[2] ^ RK[7];
     d28:	6916      	ldr	r6, [r2, #16]
                RK[7]  = RK[1] ^ RK[6];
     d2a:	4047      	eors	r7, r0
                RK[9]  = RK[3] ^ RK[8];
     d2c:	6955      	ldr	r5, [r2, #20]
                RK[8]  = RK[2] ^ RK[7];
     d2e:	407e      	eors	r6, r7
                RK[10] = RK[4] ^ RK[9];
     d30:	6994      	ldr	r4, [r2, #24]
                RK[9]  = RK[3] ^ RK[8];
     d32:	4075      	eors	r5, r6
                RK[10] = RK[4] ^ RK[9];
     d34:	406c      	eors	r4, r5
                RK[11] = RK[5] ^ RK[10];
     d36:	4061      	eors	r1, r4
                ( (uint32_t) FSb[ ( RK[5] >>  8 ) & 0xFF ]       ) ^
     d38:	0a08      	lsrs	r0, r1, #8
     d3a:	4018      	ands	r0, r3
     d3c:	4680      	mov	r8, r0
                RK[7]  = RK[1] ^ RK[6];
     d3e:	6257      	str	r7, [r2, #36]	; 0x24
                RK[8]  = RK[2] ^ RK[7];
     d40:	6296      	str	r6, [r2, #40]	; 0x28
                RK[9]  = RK[3] ^ RK[8];
     d42:	62d5      	str	r5, [r2, #44]	; 0x2c
                RK[10] = RK[4] ^ RK[9];
     d44:	6314      	str	r4, [r2, #48]	; 0x30
                RK[11] = RK[5] ^ RK[10];
     d46:	6351      	str	r1, [r2, #52]	; 0x34
                ( (uint32_t) FSb[ ( RK[5] >>  8 ) & 0xFF ]       ) ^
     d48:	4660      	mov	r0, ip
     d4a:	4642      	mov	r2, r8
     d4c:	5c82      	ldrb	r2, [r0, r2]
                ( (uint32_t) FSb[ ( RK[5] >> 24 ) & 0xFF ] << 16 ) ^
     d4e:	4650      	mov	r0, sl
                ( (uint32_t) FSb[ ( RK[5] >>  8 ) & 0xFF ]       ) ^
     d50:	4690      	mov	r8, r2
                ( (uint32_t) FSb[ ( RK[5] >> 24 ) & 0xFF ] << 16 ) ^
     d52:	2202      	movs	r2, #2
     d54:	4050      	eors	r0, r2
     d56:	0002      	movs	r2, r0
     d58:	4640      	mov	r0, r8
     d5a:	4042      	eors	r2, r0
     d5c:	0e08      	lsrs	r0, r1, #24
     d5e:	4680      	mov	r8, r0
     d60:	4691      	mov	r9, r2
     d62:	4660      	mov	r0, ip
     d64:	4642      	mov	r2, r8
     d66:	5c82      	ldrb	r2, [r0, r2]
     d68:	4648      	mov	r0, r9
     d6a:	0412      	lsls	r2, r2, #16
     d6c:	4050      	eors	r0, r2
     d6e:	4681      	mov	r9, r0
                ( (uint32_t) FSb[ ( RK[5]       ) & 0xFF ] << 24 );
     d70:	0018      	movs	r0, r3
     d72:	4008      	ands	r0, r1
     d74:	4680      	mov	r8, r0
     d76:	4660      	mov	r0, ip
     d78:	4642      	mov	r2, r8
     d7a:	5c82      	ldrb	r2, [r0, r2]
                ( (uint32_t) FSb[ ( RK[5] >> 24 ) & 0xFF ] << 16 ) ^
     d7c:	4648      	mov	r0, r9
                ( (uint32_t) FSb[ ( RK[5]       ) & 0xFF ] << 24 );
     d7e:	0612      	lsls	r2, r2, #24
                ( (uint32_t) FSb[ ( RK[5] >> 24 ) & 0xFF ] << 16 ) ^
     d80:	4050      	eors	r0, r2
     d82:	4681      	mov	r9, r0
                ( (uint32_t) FSb[ ( RK[5] >> 16 ) & 0xFF ] <<  8 ) ^
     d84:	0c08      	lsrs	r0, r1, #16
     d86:	4018      	ands	r0, r3
     d88:	4680      	mov	r8, r0
     d8a:	4660      	mov	r0, ip
     d8c:	4642      	mov	r2, r8
     d8e:	5c82      	ldrb	r2, [r0, r2]
                ( (uint32_t) FSb[ ( RK[5] >> 24 ) & 0xFF ] << 16 ) ^
     d90:	4648      	mov	r0, r9
                ( (uint32_t) FSb[ ( RK[5] >> 16 ) & 0xFF ] <<  8 ) ^
     d92:	0212      	lsls	r2, r2, #8
                ( (uint32_t) FSb[ ( RK[5] >> 24 ) & 0xFF ] << 16 ) ^
     d94:	4050      	eors	r0, r2
                RK[6]  = RK[0] ^ RCON[i] ^
     d96:	465a      	mov	r2, fp
                RK[7]  = RK[1] ^ RK[6];
     d98:	4047      	eors	r7, r0
                RK[8]  = RK[2] ^ RK[7];
     d9a:	407e      	eors	r6, r7
                RK[9]  = RK[3] ^ RK[8];
     d9c:	4075      	eors	r5, r6
                RK[10] = RK[4] ^ RK[9];
     d9e:	406c      	eors	r4, r5
                RK[11] = RK[5] ^ RK[10];
     da0:	4061      	eors	r1, r4
                ( (uint32_t) FSb[ ( RK[5] >> 24 ) & 0xFF ] << 16 ) ^
     da2:	4682      	mov	sl, r0
                RK[6]  = RK[0] ^ RCON[i] ^
     da4:	6390      	str	r0, [r2, #56]	; 0x38
                ( (uint32_t) FSb[ ( RK[5] >>  8 ) & 0xFF ]       ) ^
     da6:	0a08      	lsrs	r0, r1, #8
     da8:	4018      	ands	r0, r3
                RK[7]  = RK[1] ^ RK[6];
     daa:	465a      	mov	r2, fp
                ( (uint32_t) FSb[ ( RK[5] >>  8 ) & 0xFF ]       ) ^
     dac:	4680      	mov	r8, r0
                RK[7]  = RK[1] ^ RK[6];
     dae:	63d7      	str	r7, [r2, #60]	; 0x3c
                RK[8]  = RK[2] ^ RK[7];
     db0:	6416      	str	r6, [r2, #64]	; 0x40
                RK[9]  = RK[3] ^ RK[8];
     db2:	6455      	str	r5, [r2, #68]	; 0x44
                RK[10] = RK[4] ^ RK[9];
     db4:	6494      	str	r4, [r2, #72]	; 0x48
                RK[11] = RK[5] ^ RK[10];
     db6:	64d1      	str	r1, [r2, #76]	; 0x4c
                ( (uint32_t) FSb[ ( RK[5] >>  8 ) & 0xFF ]       ) ^
     db8:	4660      	mov	r0, ip
     dba:	4642      	mov	r2, r8
     dbc:	5c82      	ldrb	r2, [r0, r2]
                ( (uint32_t) FSb[ ( RK[5] >> 24 ) & 0xFF ] << 16 ) ^
     dbe:	4650      	mov	r0, sl
                ( (uint32_t) FSb[ ( RK[5] >>  8 ) & 0xFF ]       ) ^
     dc0:	4690      	mov	r8, r2
                ( (uint32_t) FSb[ ( RK[5] >> 24 ) & 0xFF ] << 16 ) ^
     dc2:	2204      	movs	r2, #4
     dc4:	4050      	eors	r0, r2
     dc6:	0002      	movs	r2, r0
     dc8:	4640      	mov	r0, r8
     dca:	4042      	eors	r2, r0
     dcc:	0e08      	lsrs	r0, r1, #24
     dce:	4680      	mov	r8, r0
     dd0:	4691      	mov	r9, r2
     dd2:	4660      	mov	r0, ip
     dd4:	4642      	mov	r2, r8
     dd6:	5c82      	ldrb	r2, [r0, r2]
     dd8:	4648      	mov	r0, r9
     dda:	0412      	lsls	r2, r2, #16
     ddc:	4050      	eors	r0, r2
     dde:	4681      	mov	r9, r0
                ( (uint32_t) FSb[ ( RK[5]       ) & 0xFF ] << 24 );
     de0:	0018      	movs	r0, r3
     de2:	4008      	ands	r0, r1
     de4:	4680      	mov	r8, r0
     de6:	4660      	mov	r0, ip
     de8:	4642      	mov	r2, r8
     dea:	5c82      	ldrb	r2, [r0, r2]
                ( (uint32_t) FSb[ ( RK[5] >> 24 ) & 0xFF ] << 16 ) ^
     dec:	4648      	mov	r0, r9
                ( (uint32_t) FSb[ ( RK[5]       ) & 0xFF ] << 24 );
     dee:	0612      	lsls	r2, r2, #24
                ( (uint32_t) FSb[ ( RK[5] >> 24 ) & 0xFF ] << 16 ) ^
     df0:	4050      	eors	r0, r2
     df2:	4681      	mov	r9, r0
                ( (uint32_t) FSb[ ( RK[5] >> 16 ) & 0xFF ] <<  8 ) ^
     df4:	0c08      	lsrs	r0, r1, #16
     df6:	4018      	ands	r0, r3
     df8:	4680      	mov	r8, r0
     dfa:	4660      	mov	r0, ip
     dfc:	4642      	mov	r2, r8
     dfe:	5c82      	ldrb	r2, [r0, r2]
                ( (uint32_t) FSb[ ( RK[5] >> 24 ) & 0xFF ] << 16 ) ^
     e00:	4648      	mov	r0, r9
                ( (uint32_t) FSb[ ( RK[5] >> 16 ) & 0xFF ] <<  8 ) ^
     e02:	0212      	lsls	r2, r2, #8
                ( (uint32_t) FSb[ ( RK[5] >> 24 ) & 0xFF ] << 16 ) ^
     e04:	4050      	eors	r0, r2
                RK[6]  = RK[0] ^ RCON[i] ^
     e06:	465a      	mov	r2, fp
                RK[7]  = RK[1] ^ RK[6];
     e08:	4047      	eors	r7, r0
                RK[8]  = RK[2] ^ RK[7];
     e0a:	407e      	eors	r6, r7
                RK[9]  = RK[3] ^ RK[8];
     e0c:	4075      	eors	r5, r6
                RK[10] = RK[4] ^ RK[9];
     e0e:	406c      	eors	r4, r5
                RK[11] = RK[5] ^ RK[10];
     e10:	4061      	eors	r1, r4
                ( (uint32_t) FSb[ ( RK[5] >> 24 ) & 0xFF ] << 16 ) ^
     e12:	4682      	mov	sl, r0
                RK[6]  = RK[0] ^ RCON[i] ^
     e14:	6510      	str	r0, [r2, #80]	; 0x50
                ( (uint32_t) FSb[ ( RK[5] >>  8 ) & 0xFF ]       ) ^
     e16:	0a08      	lsrs	r0, r1, #8
     e18:	4018      	ands	r0, r3
                RK[7]  = RK[1] ^ RK[6];
     e1a:	465a      	mov	r2, fp
                ( (uint32_t) FSb[ ( RK[5] >>  8 ) & 0xFF ]       ) ^
     e1c:	4680      	mov	r8, r0
                RK[7]  = RK[1] ^ RK[6];
     e1e:	6557      	str	r7, [r2, #84]	; 0x54
                ( (uint32_t) FSb[ ( RK[5] >>  8 ) & 0xFF ]       ) ^
     e20:	4660      	mov	r0, ip
                RK[8]  = RK[2] ^ RK[7];
     e22:	6596      	str	r6, [r2, #88]	; 0x58
                RK[9]  = RK[3] ^ RK[8];
     e24:	65d5      	str	r5, [r2, #92]	; 0x5c
                RK[10] = RK[4] ^ RK[9];
     e26:	6614      	str	r4, [r2, #96]	; 0x60
                RK[11] = RK[5] ^ RK[10];
     e28:	6651      	str	r1, [r2, #100]	; 0x64
                ( (uint32_t) FSb[ ( RK[5] >>  8 ) & 0xFF ]       ) ^
     e2a:	4642      	mov	r2, r8
     e2c:	5c82      	ldrb	r2, [r0, r2]
                ( (uint32_t) FSb[ ( RK[5] >> 24 ) & 0xFF ] << 16 ) ^
     e2e:	4650      	mov	r0, sl
                ( (uint32_t) FSb[ ( RK[5] >>  8 ) & 0xFF ]       ) ^
     e30:	4690      	mov	r8, r2
                ( (uint32_t) FSb[ ( RK[5] >> 24 ) & 0xFF ] << 16 ) ^
     e32:	2208      	movs	r2, #8
     e34:	4050      	eors	r0, r2
     e36:	0002      	movs	r2, r0
     e38:	4640      	mov	r0, r8
     e3a:	4042      	eors	r2, r0
     e3c:	0e08      	lsrs	r0, r1, #24
     e3e:	4680      	mov	r8, r0
     e40:	4691      	mov	r9, r2
     e42:	4660      	mov	r0, ip
     e44:	4642      	mov	r2, r8
     e46:	5c82      	ldrb	r2, [r0, r2]
     e48:	4648      	mov	r0, r9
     e4a:	0412      	lsls	r2, r2, #16
     e4c:	4050      	eors	r0, r2
     e4e:	4681      	mov	r9, r0
                ( (uint32_t) FSb[ ( RK[5]       ) & 0xFF ] << 24 );
     e50:	0018      	movs	r0, r3
     e52:	4008      	ands	r0, r1
     e54:	4680      	mov	r8, r0
     e56:	4660      	mov	r0, ip
     e58:	4642      	mov	r2, r8
     e5a:	5c82      	ldrb	r2, [r0, r2]
                ( (uint32_t) FSb[ ( RK[5] >> 24 ) & 0xFF ] << 16 ) ^
     e5c:	4648      	mov	r0, r9
                ( (uint32_t) FSb[ ( RK[5]       ) & 0xFF ] << 24 );
     e5e:	0612      	lsls	r2, r2, #24
                ( (uint32_t) FSb[ ( RK[5] >> 24 ) & 0xFF ] << 16 ) ^
     e60:	4050      	eors	r0, r2
     e62:	4681      	mov	r9, r0
                ( (uint32_t) FSb[ ( RK[5] >> 16 ) & 0xFF ] <<  8 ) ^
     e64:	0c08      	lsrs	r0, r1, #16
     e66:	4018      	ands	r0, r3
     e68:	4680      	mov	r8, r0
     e6a:	4660      	mov	r0, ip
     e6c:	4642      	mov	r2, r8
     e6e:	5c82      	ldrb	r2, [r0, r2]
                ( (uint32_t) FSb[ ( RK[5] >> 24 ) & 0xFF ] << 16 ) ^
     e70:	4648      	mov	r0, r9
                ( (uint32_t) FSb[ ( RK[5] >> 16 ) & 0xFF ] <<  8 ) ^
     e72:	0212      	lsls	r2, r2, #8
                ( (uint32_t) FSb[ ( RK[5] >> 24 ) & 0xFF ] << 16 ) ^
     e74:	4050      	eors	r0, r2
                RK[6]  = RK[0] ^ RCON[i] ^
     e76:	465a      	mov	r2, fp
     e78:	6690      	str	r0, [r2, #104]	; 0x68
                RK[7]  = RK[1] ^ RK[6];
     e7a:	465a      	mov	r2, fp
     e7c:	4047      	eors	r7, r0
                RK[8]  = RK[2] ^ RK[7];
     e7e:	407e      	eors	r6, r7
                RK[9]  = RK[3] ^ RK[8];
     e80:	4075      	eors	r5, r6
                RK[10] = RK[4] ^ RK[9];
     e82:	406c      	eors	r4, r5
                RK[11] = RK[5] ^ RK[10];
     e84:	4061      	eors	r1, r4
                ( (uint32_t) FSb[ ( RK[5] >> 24 ) & 0xFF ] << 16 ) ^
     e86:	4682      	mov	sl, r0
                ( (uint32_t) FSb[ ( RK[5] >>  8 ) & 0xFF ]       ) ^
     e88:	0a08      	lsrs	r0, r1, #8
     e8a:	4018      	ands	r0, r3
                RK[7]  = RK[1] ^ RK[6];
     e8c:	66d7      	str	r7, [r2, #108]	; 0x6c
                RK[8]  = RK[2] ^ RK[7];
     e8e:	6716      	str	r6, [r2, #112]	; 0x70
                RK[9]  = RK[3] ^ RK[8];
     e90:	6755      	str	r5, [r2, #116]	; 0x74
                RK[10] = RK[4] ^ RK[9];
     e92:	6794      	str	r4, [r2, #120]	; 0x78
                ( (uint32_t) FSb[ ( RK[5] >>  8 ) & 0xFF ]       ) ^
     e94:	4680      	mov	r8, r0
                RK[11] = RK[5] ^ RK[10];
     e96:	465a      	mov	r2, fp
                ( (uint32_t) FSb[ ( RK[5] >>  8 ) & 0xFF ]       ) ^
     e98:	4660      	mov	r0, ip
                RK[11] = RK[5] ^ RK[10];
     e9a:	67d1      	str	r1, [r2, #124]	; 0x7c
                ( (uint32_t) FSb[ ( RK[5] >>  8 ) & 0xFF ]       ) ^
     e9c:	4642      	mov	r2, r8
     e9e:	5c82      	ldrb	r2, [r0, r2]
                ( (uint32_t) FSb[ ( RK[5] >> 24 ) & 0xFF ] << 16 ) ^
     ea0:	4650      	mov	r0, sl
                ( (uint32_t) FSb[ ( RK[5] >>  8 ) & 0xFF ]       ) ^
     ea2:	4690      	mov	r8, r2
                ( (uint32_t) FSb[ ( RK[5] >> 24 ) & 0xFF ] << 16 ) ^
     ea4:	2210      	movs	r2, #16
     ea6:	4050      	eors	r0, r2
     ea8:	0002      	movs	r2, r0
     eaa:	4640      	mov	r0, r8
     eac:	4042      	eors	r2, r0
     eae:	0e08      	lsrs	r0, r1, #24
     eb0:	4680      	mov	r8, r0
     eb2:	4691      	mov	r9, r2
     eb4:	4660      	mov	r0, ip
     eb6:	4642      	mov	r2, r8
     eb8:	5c82      	ldrb	r2, [r0, r2]
     eba:	4648      	mov	r0, r9
     ebc:	0412      	lsls	r2, r2, #16
     ebe:	4050      	eors	r0, r2
     ec0:	4681      	mov	r9, r0
                ( (uint32_t) FSb[ ( RK[5]       ) & 0xFF ] << 24 );
     ec2:	0018      	movs	r0, r3
     ec4:	4008      	ands	r0, r1
     ec6:	4680      	mov	r8, r0
     ec8:	4660      	mov	r0, ip
     eca:	4642      	mov	r2, r8
     ecc:	5c82      	ldrb	r2, [r0, r2]
                ( (uint32_t) FSb[ ( RK[5] >> 24 ) & 0xFF ] << 16 ) ^
     ece:	4648      	mov	r0, r9
                ( (uint32_t) FSb[ ( RK[5]       ) & 0xFF ] << 24 );
     ed0:	0612      	lsls	r2, r2, #24
                ( (uint32_t) FSb[ ( RK[5] >> 24 ) & 0xFF ] << 16 ) ^
     ed2:	4050      	eors	r0, r2
     ed4:	4681      	mov	r9, r0
                ( (uint32_t) FSb[ ( RK[5] >> 16 ) & 0xFF ] <<  8 ) ^
     ed6:	0c08      	lsrs	r0, r1, #16
     ed8:	4018      	ands	r0, r3
     eda:	4680      	mov	r8, r0
     edc:	4660      	mov	r0, ip
     ede:	4642      	mov	r2, r8
     ee0:	5c82      	ldrb	r2, [r0, r2]
                ( (uint32_t) FSb[ ( RK[5] >> 24 ) & 0xFF ] << 16 ) ^
     ee2:	4648      	mov	r0, r9
                ( (uint32_t) FSb[ ( RK[5] >> 16 ) & 0xFF ] <<  8 ) ^
     ee4:	0212      	lsls	r2, r2, #8
                ( (uint32_t) FSb[ ( RK[5] >> 24 ) & 0xFF ] << 16 ) ^
     ee6:	4050      	eors	r0, r2
     ee8:	0002      	movs	r2, r0
                RK[10] = RK[4] ^ RK[9];
     eea:	9400      	str	r4, [sp, #0]
                RK[6]  = RK[0] ^ RCON[i] ^
     eec:	2080      	movs	r0, #128	; 0x80
     eee:	465c      	mov	r4, fp
     ef0:	4680      	mov	r8, r0
     ef2:	5022      	str	r2, [r4, r0]
                RK[7]  = RK[1] ^ RK[6];
     ef4:	2084      	movs	r0, #132	; 0x84
     ef6:	4057      	eors	r7, r2
     ef8:	5027      	str	r7, [r4, r0]
                RK[8]  = RK[2] ^ RK[7];
     efa:	407e      	eors	r6, r7
                RK[7]  = RK[1] ^ RK[6];
     efc:	9201      	str	r2, [sp, #4]
                RK[8]  = RK[2] ^ RK[7];
     efe:	3004      	adds	r0, #4
                RK[10] = RK[4] ^ RK[9];
     f00:	9a00      	ldr	r2, [sp, #0]
                RK[8]  = RK[2] ^ RK[7];
     f02:	5026      	str	r6, [r4, r0]
                RK[9]  = RK[3] ^ RK[8];
     f04:	4075      	eors	r5, r6
     f06:	3004      	adds	r0, #4
     f08:	5025      	str	r5, [r4, r0]
                RK[10] = RK[4] ^ RK[9];
     f0a:	406a      	eors	r2, r5
     f0c:	3004      	adds	r0, #4
                RK[11] = RK[5] ^ RK[10];
     f0e:	4051      	eors	r1, r2
                RK[10] = RK[4] ^ RK[9];
     f10:	5022      	str	r2, [r4, r0]
                RK[11] = RK[5] ^ RK[10];
     f12:	3004      	adds	r0, #4
     f14:	5021      	str	r1, [r4, r0]
                ( (uint32_t) FSb[ ( RK[5] >>  8 ) & 0xFF ]       ) ^
     f16:	0a08      	lsrs	r0, r1, #8
     f18:	4018      	ands	r0, r3
     f1a:	4681      	mov	r9, r0
                RK[10] = RK[4] ^ RK[9];
     f1c:	9200      	str	r2, [sp, #0]
                ( (uint32_t) FSb[ ( RK[5] >>  8 ) & 0xFF ]       ) ^
     f1e:	4660      	mov	r0, ip
     f20:	464a      	mov	r2, r9
     f22:	5c82      	ldrb	r2, [r0, r2]
                ( (uint32_t) FSb[ ( RK[5] >> 24 ) & 0xFF ] << 16 ) ^
     f24:	9801      	ldr	r0, [sp, #4]
                ( (uint32_t) FSb[ ( RK[5] >>  8 ) & 0xFF ]       ) ^
     f26:	4691      	mov	r9, r2
                ( (uint32_t) FSb[ ( RK[5] >> 24 ) & 0xFF ] << 16 ) ^
     f28:	2220      	movs	r2, #32
     f2a:	4050      	eors	r0, r2
     f2c:	0002      	movs	r2, r0
     f2e:	4648      	mov	r0, r9
     f30:	4042      	eors	r2, r0
     f32:	0e08      	lsrs	r0, r1, #24
     f34:	4681      	mov	r9, r0
     f36:	4692      	mov	sl, r2
     f38:	4660      	mov	r0, ip
     f3a:	464a      	mov	r2, r9
     f3c:	5c82      	ldrb	r2, [r0, r2]
     f3e:	4650      	mov	r0, sl
     f40:	0412      	lsls	r2, r2, #16
     f42:	4050      	eors	r0, r2
     f44:	4682      	mov	sl, r0
                ( (uint32_t) FSb[ ( RK[5]       ) & 0xFF ] << 24 );
     f46:	0018      	movs	r0, r3
     f48:	4008      	ands	r0, r1
     f4a:	4681      	mov	r9, r0
     f4c:	4660      	mov	r0, ip
     f4e:	464a      	mov	r2, r9
     f50:	5c82      	ldrb	r2, [r0, r2]
                ( (uint32_t) FSb[ ( RK[5] >> 24 ) & 0xFF ] << 16 ) ^
     f52:	4650      	mov	r0, sl
                ( (uint32_t) FSb[ ( RK[5]       ) & 0xFF ] << 24 );
     f54:	0612      	lsls	r2, r2, #24
                ( (uint32_t) FSb[ ( RK[5] >> 24 ) & 0xFF ] << 16 ) ^
     f56:	4050      	eors	r0, r2
     f58:	4682      	mov	sl, r0
                ( (uint32_t) FSb[ ( RK[5] >> 16 ) & 0xFF ] <<  8 ) ^
     f5a:	0c08      	lsrs	r0, r1, #16
     f5c:	4018      	ands	r0, r3
     f5e:	4681      	mov	r9, r0
     f60:	4660      	mov	r0, ip
     f62:	464a      	mov	r2, r9
     f64:	5c82      	ldrb	r2, [r0, r2]
                ( (uint32_t) FSb[ ( RK[5] >> 24 ) & 0xFF ] << 16 ) ^
     f66:	4650      	mov	r0, sl
                ( (uint32_t) FSb[ ( RK[5] >> 16 ) & 0xFF ] <<  8 ) ^
     f68:	0212      	lsls	r2, r2, #8
                ( (uint32_t) FSb[ ( RK[5] >> 24 ) & 0xFF ] << 16 ) ^
     f6a:	4050      	eors	r0, r2
     f6c:	0002      	movs	r2, r0
                RK[6]  = RK[0] ^ RCON[i] ^
     f6e:	2098      	movs	r0, #152	; 0x98
     f70:	5022      	str	r2, [r4, r0]
                RK[7]  = RK[1] ^ RK[6];
     f72:	209c      	movs	r0, #156	; 0x9c
     f74:	4057      	eors	r7, r2
     f76:	5027      	str	r7, [r4, r0]
                RK[8]  = RK[2] ^ RK[7];
     f78:	407e      	eors	r6, r7
                RK[7]  = RK[1] ^ RK[6];
     f7a:	9201      	str	r2, [sp, #4]
                RK[8]  = RK[2] ^ RK[7];
     f7c:	3004      	adds	r0, #4
                RK[10] = RK[4] ^ RK[9];
     f7e:	9a00      	ldr	r2, [sp, #0]
                RK[8]  = RK[2] ^ RK[7];
     f80:	5026      	str	r6, [r4, r0]
                RK[9]  = RK[3] ^ RK[8];
     f82:	4075      	eors	r5, r6
     f84:	3004      	adds	r0, #4
     f86:	5025      	str	r5, [r4, r0]
                RK[10] = RK[4] ^ RK[9];
     f88:	406a      	eors	r2, r5
     f8a:	3004      	adds	r0, #4
     f8c:	5022      	str	r2, [r4, r0]
                RK[11] = RK[5] ^ RK[10];
     f8e:	4051      	eors	r1, r2
     f90:	3004      	adds	r0, #4
     f92:	5021      	str	r1, [r4, r0]
                ( (uint32_t) FSb[ ( RK[5] >>  8 ) & 0xFF ]       ) ^
     f94:	0a08      	lsrs	r0, r1, #8
     f96:	4018      	ands	r0, r3
     f98:	4681      	mov	r9, r0
                RK[10] = RK[4] ^ RK[9];
     f9a:	9200      	str	r2, [sp, #0]
                ( (uint32_t) FSb[ ( RK[5] >>  8 ) & 0xFF ]       ) ^
     f9c:	4660      	mov	r0, ip
     f9e:	464a      	mov	r2, r9
     fa0:	5c82      	ldrb	r2, [r0, r2]
                ( (uint32_t) FSb[ ( RK[5] >> 24 ) & 0xFF ] << 16 ) ^
     fa2:	9801      	ldr	r0, [sp, #4]
                ( (uint32_t) FSb[ ( RK[5] >>  8 ) & 0xFF ]       ) ^
     fa4:	4691      	mov	r9, r2
                ( (uint32_t) FSb[ ( RK[5] >> 24 ) & 0xFF ] << 16 ) ^
     fa6:	2240      	movs	r2, #64	; 0x40
     fa8:	4050      	eors	r0, r2
     faa:	0002      	movs	r2, r0
     fac:	4648      	mov	r0, r9
     fae:	4042      	eors	r2, r0
     fb0:	0e08      	lsrs	r0, r1, #24
     fb2:	4681      	mov	r9, r0
     fb4:	4692      	mov	sl, r2
     fb6:	4660      	mov	r0, ip
     fb8:	464a      	mov	r2, r9
     fba:	5c82      	ldrb	r2, [r0, r2]
     fbc:	4650      	mov	r0, sl
     fbe:	0412      	lsls	r2, r2, #16
     fc0:	4050      	eors	r0, r2
     fc2:	4682      	mov	sl, r0
                ( (uint32_t) FSb[ ( RK[5]       ) & 0xFF ] << 24 );
     fc4:	0018      	movs	r0, r3
     fc6:	4008      	ands	r0, r1
     fc8:	4681      	mov	r9, r0
     fca:	4660      	mov	r0, ip
     fcc:	464a      	mov	r2, r9
     fce:	5c82      	ldrb	r2, [r0, r2]
                ( (uint32_t) FSb[ ( RK[5] >> 24 ) & 0xFF ] << 16 ) ^
     fd0:	4650      	mov	r0, sl
                ( (uint32_t) FSb[ ( RK[5]       ) & 0xFF ] << 24 );
     fd2:	0612      	lsls	r2, r2, #24
                ( (uint32_t) FSb[ ( RK[5] >> 24 ) & 0xFF ] << 16 ) ^
     fd4:	4050      	eors	r0, r2
     fd6:	4682      	mov	sl, r0
                ( (uint32_t) FSb[ ( RK[5] >> 16 ) & 0xFF ] <<  8 ) ^
     fd8:	0c08      	lsrs	r0, r1, #16
     fda:	4018      	ands	r0, r3
     fdc:	4681      	mov	r9, r0
     fde:	4660      	mov	r0, ip
     fe0:	464a      	mov	r2, r9
     fe2:	5c82      	ldrb	r2, [r0, r2]
     fe4:	0212      	lsls	r2, r2, #8
                ( (uint32_t) FSb[ ( RK[5] >> 24 ) & 0xFF ] << 16 ) ^
     fe6:	0010      	movs	r0, r2
     fe8:	4652      	mov	r2, sl
     fea:	4050      	eors	r0, r2
                RK[6]  = RK[0] ^ RCON[i] ^
     fec:	22b0      	movs	r2, #176	; 0xb0
     fee:	50a0      	str	r0, [r4, r2]
                RK[7]  = RK[1] ^ RK[6];
     ff0:	22b4      	movs	r2, #180	; 0xb4
     ff2:	4047      	eors	r7, r0
                ( (uint32_t) FSb[ ( RK[5] >> 24 ) & 0xFF ] << 16 ) ^
     ff4:	4681      	mov	r9, r0
                RK[7]  = RK[1] ^ RK[6];
     ff6:	4658      	mov	r0, fp
     ff8:	50a7      	str	r7, [r4, r2]
                RK[8]  = RK[2] ^ RK[7];
     ffa:	407e      	eors	r6, r7
     ffc:	3204      	adds	r2, #4
     ffe:	50a6      	str	r6, [r4, r2]
                RK[9]  = RK[3] ^ RK[8];
    1000:	4075      	eors	r5, r6
    1002:	3204      	adds	r2, #4
    1004:	50a5      	str	r5, [r4, r2]
                RK[10] = RK[4] ^ RK[9];
    1006:	9c00      	ldr	r4, [sp, #0]
    1008:	3204      	adds	r2, #4
    100a:	406c      	eors	r4, r5
    100c:	5084      	str	r4, [r0, r2]
                RK[11] = RK[5] ^ RK[10];
    100e:	4061      	eors	r1, r4
    1010:	3204      	adds	r2, #4
    1012:	5081      	str	r1, [r0, r2]
                ( (uint32_t) FSb[ ( RK[5] >>  8 ) & 0xFF ]       ) ^
    1014:	4660      	mov	r0, ip
    1016:	0a0a      	lsrs	r2, r1, #8
    1018:	401a      	ands	r2, r3
    101a:	5c82      	ldrb	r2, [r0, r2]
                ( (uint32_t) FSb[ ( RK[5] >> 24 ) & 0xFF ] << 16 ) ^
    101c:	4640      	mov	r0, r8
                ( (uint32_t) FSb[ ( RK[5] >>  8 ) & 0xFF ]       ) ^
    101e:	4692      	mov	sl, r2
                ( (uint32_t) FSb[ ( RK[5] >> 24 ) & 0xFF ] << 16 ) ^
    1020:	464a      	mov	r2, r9
    1022:	4050      	eors	r0, r2
    1024:	0002      	movs	r2, r0
    1026:	4650      	mov	r0, sl
    1028:	4050      	eors	r0, r2
    102a:	4681      	mov	r9, r0
    102c:	0e08      	lsrs	r0, r1, #24
    102e:	4680      	mov	r8, r0
    1030:	4660      	mov	r0, ip
    1032:	4642      	mov	r2, r8
    1034:	5c82      	ldrb	r2, [r0, r2]
    1036:	4648      	mov	r0, r9
    1038:	0412      	lsls	r2, r2, #16
    103a:	4050      	eors	r0, r2
    103c:	4681      	mov	r9, r0
                ( (uint32_t) FSb[ ( RK[5]       ) & 0xFF ] << 24 );
    103e:	0018      	movs	r0, r3
    1040:	4008      	ands	r0, r1
    1042:	4680      	mov	r8, r0
    1044:	4660      	mov	r0, ip
    1046:	4642      	mov	r2, r8
    1048:	5c82      	ldrb	r2, [r0, r2]
                ( (uint32_t) FSb[ ( RK[5] >> 24 ) & 0xFF ] << 16 ) ^
    104a:	4648      	mov	r0, r9
                ( (uint32_t) FSb[ ( RK[5]       ) & 0xFF ] << 24 );
    104c:	0612      	lsls	r2, r2, #24
                ( (uint32_t) FSb[ ( RK[5] >> 24 ) & 0xFF ] << 16 ) ^
    104e:	4050      	eors	r0, r2
    1050:	0002      	movs	r2, r0
                ( (uint32_t) FSb[ ( RK[5] >> 16 ) & 0xFF ] <<  8 ) ^
    1052:	0c08      	lsrs	r0, r1, #16
    1054:	4003      	ands	r3, r0
    1056:	4660      	mov	r0, ip
    1058:	5cc3      	ldrb	r3, [r0, r3]
                RK[6]  = RK[0] ^ RCON[i] ^
    105a:	4658      	mov	r0, fp
                ( (uint32_t) FSb[ ( RK[5] >> 16 ) & 0xFF ] <<  8 ) ^
    105c:	021b      	lsls	r3, r3, #8
                ( (uint32_t) FSb[ ( RK[5] >> 24 ) & 0xFF ] << 16 ) ^
    105e:	4053      	eors	r3, r2
                RK[6]  = RK[0] ^ RCON[i] ^
    1060:	22c8      	movs	r2, #200	; 0xc8
    1062:	5083      	str	r3, [r0, r2]
                RK[7]  = RK[1] ^ RK[6];
    1064:	407b      	eors	r3, r7
    1066:	3204      	adds	r2, #4
    1068:	5083      	str	r3, [r0, r2]
                RK[8]  = RK[2] ^ RK[7];
    106a:	4073      	eors	r3, r6
    106c:	3204      	adds	r2, #4
    106e:	5083      	str	r3, [r0, r2]
                RK[9]  = RK[3] ^ RK[8];
    1070:	406b      	eors	r3, r5
    1072:	3204      	adds	r2, #4
    1074:	5083      	str	r3, [r0, r2]
                RK[10] = RK[4] ^ RK[9];
    1076:	4063      	eors	r3, r4
    1078:	3204      	adds	r2, #4
    107a:	5083      	str	r3, [r0, r2]
                RK[11] = RK[5] ^ RK[10];
    107c:	404b      	eors	r3, r1
    107e:	3204      	adds	r2, #4
    1080:	5083      	str	r3, [r0, r2]
    return( 0 );
    1082:	2000      	movs	r0, #0
    1084:	e462      	b.n	94c <mbedtls_aes_setkey_enc+0x24>
    1086:	46c0      	nop			; (mov r8, r8)
    1088:	00002030 	.word	0x00002030

0000108c <mbedtls_aes_setkey_dec>:
{
    108c:	b5f0      	push	{r4, r5, r6, r7, lr}
    108e:	46de      	mov	lr, fp
    1090:	464e      	mov	r6, r9
    1092:	4645      	mov	r5, r8
    1094:	4657      	mov	r7, sl
    1096:	b5e0      	push	{r5, r6, r7, lr}
    1098:	0016      	movs	r6, r2
    memset( ctx, 0, sizeof( mbedtls_aes_context ) );
    109a:	228c      	movs	r2, #140	; 0x8c
{
    109c:	0004      	movs	r4, r0
    109e:	b0cd      	sub	sp, #308	; 0x134
    10a0:	000d      	movs	r5, r1
    memset( ctx, 0, sizeof( mbedtls_aes_context ) );
    10a2:	0052      	lsls	r2, r2, #1
    10a4:	2100      	movs	r1, #0
    10a6:	4b97      	ldr	r3, [pc, #604]	; (1304 <mbedtls_aes_setkey_dec+0x278>)
    10a8:	a806      	add	r0, sp, #24
    10aa:	4798      	blx	r3
    ctx->rk = RK = ctx->buf;
    10ac:	0023      	movs	r3, r4
    10ae:	3308      	adds	r3, #8
    10b0:	6063      	str	r3, [r4, #4]
    if( ( ret = mbedtls_aes_setkey_enc( &cty, key, keybits ) ) != 0 )
    10b2:	0032      	movs	r2, r6
    10b4:	0029      	movs	r1, r5
    10b6:	a806      	add	r0, sp, #24
    10b8:	4b93      	ldr	r3, [pc, #588]	; (1308 <mbedtls_aes_setkey_dec+0x27c>)
    10ba:	4798      	blx	r3
    10bc:	9002      	str	r0, [sp, #8]
    10be:	2800      	cmp	r0, #0
    10c0:	d000      	beq.n	10c4 <mbedtls_aes_setkey_dec+0x38>
    10c2:	e112      	b.n	12ea <mbedtls_aes_setkey_dec+0x25e>
    ctx->nr = cty.nr;
    10c4:	9b06      	ldr	r3, [sp, #24]
    10c6:	001a      	movs	r2, r3
    10c8:	9303      	str	r3, [sp, #12]
    10ca:	6023      	str	r3, [r4, #0]
    SK = cty.rk + cty.nr * 4;
    10cc:	011b      	lsls	r3, r3, #4
    10ce:	0019      	movs	r1, r3
    10d0:	468c      	mov	ip, r1
    10d2:	9304      	str	r3, [sp, #16]
    10d4:	9b07      	ldr	r3, [sp, #28]
    for( i = ctx->nr - 1, SK -= 8; i > 0; i--, SK -= 8 )
    10d6:	3a01      	subs	r2, #1
    SK = cty.rk + cty.nr * 4;
    10d8:	4463      	add	r3, ip
    *RK++ = *SK++;
    10da:	6819      	ldr	r1, [r3, #0]
    for( i = ctx->nr - 1, SK -= 8; i > 0; i--, SK -= 8 )
    10dc:	4690      	mov	r8, r2
    *RK++ = *SK++;
    10de:	60a1      	str	r1, [r4, #8]
    *RK++ = *SK++;
    10e0:	6859      	ldr	r1, [r3, #4]
    for( i = ctx->nr - 1, SK -= 8; i > 0; i--, SK -= 8 )
    10e2:	2210      	movs	r2, #16
    *RK++ = *SK++;
    10e4:	60e1      	str	r1, [r4, #12]
    *RK++ = *SK++;
    10e6:	6899      	ldr	r1, [r3, #8]
    for( i = ctx->nr - 1, SK -= 8; i > 0; i--, SK -= 8 )
    10e8:	4252      	negs	r2, r2
    *RK++ = *SK++;
    10ea:	6121      	str	r1, [r4, #16]
    *RK++ = *SK++;
    10ec:	2118      	movs	r1, #24
    10ee:	468c      	mov	ip, r1
    for( i = ctx->nr - 1, SK -= 8; i > 0; i--, SK -= 8 )
    10f0:	4691      	mov	r9, r2
    *RK++ = *SK++;
    10f2:	44a4      	add	ip, r4
    10f4:	68d8      	ldr	r0, [r3, #12]
    10f6:	4661      	mov	r1, ip
    for( i = ctx->nr - 1, SK -= 8; i > 0; i--, SK -= 8 )
    10f8:	4499      	add	r9, r3
    10fa:	4643      	mov	r3, r8
    *RK++ = *SK++;
    10fc:	9101      	str	r1, [sp, #4]
    10fe:	6160      	str	r0, [r4, #20]
    for( i = ctx->nr - 1, SK -= 8; i > 0; i--, SK -= 8 )
    1100:	2b00      	cmp	r3, #0
    1102:	dc00      	bgt.n	1106 <mbedtls_aes_setkey_dec+0x7a>
    1104:	e0e3      	b.n	12ce <mbedtls_aes_setkey_dec+0x242>
    1106:	464c      	mov	r4, r9
    1108:	4b80      	ldr	r3, [pc, #512]	; (130c <mbedtls_aes_setkey_dec+0x280>)
    110a:	4660      	mov	r0, ip
    110c:	469c      	mov	ip, r3
            *RK++ = AES_RT0( FSb[ ( *SK       ) & 0xFF ] ) ^
    110e:	4b80      	ldr	r3, [pc, #512]	; (1310 <mbedtls_aes_setkey_dec+0x284>)
    1110:	3210      	adds	r2, #16
    1112:	4f80      	ldr	r7, [pc, #512]	; (1314 <mbedtls_aes_setkey_dec+0x288>)
    1114:	32ff      	adds	r2, #255	; 0xff
    1116:	3328      	adds	r3, #40	; 0x28
    1118:	9405      	str	r4, [sp, #20]
    111a:	0015      	movs	r5, r2
    111c:	6821      	ldr	r1, [r4, #0]
    111e:	3c10      	subs	r4, #16
    1120:	400d      	ands	r5, r1
    1122:	5d5d      	ldrb	r5, [r3, r5]
    1124:	00ad      	lsls	r5, r5, #2
    1126:	46aa      	mov	sl, r5
                    AES_RT3( FSb[ ( *SK >> 24 ) & 0xFF ] );
    1128:	0e0d      	lsrs	r5, r1, #24
    112a:	5d5d      	ldrb	r5, [r3, r5]
            *RK++ = AES_RT0( FSb[ ( *SK       ) & 0xFF ] ) ^
    112c:	44e2      	add	sl, ip
                    AES_RT3( FSb[ ( *SK >> 24 ) & 0xFF ] );
    112e:	00ad      	lsls	r5, r5, #2
    1130:	46ab      	mov	fp, r5
                    AES_RT2( FSb[ ( *SK >> 16 ) & 0xFF ] ) ^
    1132:	4655      	mov	r5, sl
    1134:	6aad      	ldr	r5, [r5, #40]	; 0x28
                    AES_RT3( FSb[ ( *SK >> 24 ) & 0xFF ] );
    1136:	44bb      	add	fp, r7
                    AES_RT2( FSb[ ( *SK >> 16 ) & 0xFF ] ) ^
    1138:	46aa      	mov	sl, r5
    113a:	465d      	mov	r5, fp
    113c:	6aad      	ldr	r5, [r5, #40]	; 0x28
    113e:	46ab      	mov	fp, r5
    1140:	4655      	mov	r5, sl
    1142:	465e      	mov	r6, fp
    1144:	4075      	eors	r5, r6
    1146:	46aa      	mov	sl, r5
                    AES_RT1( FSb[ ( *SK >>  8 ) & 0xFF ] ) ^
    1148:	0a0d      	lsrs	r5, r1, #8
    114a:	4015      	ands	r5, r2
    114c:	5d5d      	ldrb	r5, [r3, r5]
                    AES_RT2( FSb[ ( *SK >> 16 ) & 0xFF ] ) ^
    114e:	0c09      	lsrs	r1, r1, #16
                    AES_RT1( FSb[ ( *SK >>  8 ) & 0xFF ] ) ^
    1150:	00ad      	lsls	r5, r5, #2
    1152:	46ab      	mov	fp, r5
    1154:	4d70      	ldr	r5, [pc, #448]	; (1318 <mbedtls_aes_setkey_dec+0x28c>)
                    AES_RT2( FSb[ ( *SK >> 16 ) & 0xFF ] ) ^
    1156:	4011      	ands	r1, r2
                    AES_RT1( FSb[ ( *SK >>  8 ) & 0xFF ] ) ^
    1158:	46a9      	mov	r9, r5
    115a:	44cb      	add	fp, r9
                    AES_RT2( FSb[ ( *SK >> 16 ) & 0xFF ] ) ^
    115c:	465d      	mov	r5, fp
    115e:	6aad      	ldr	r5, [r5, #40]	; 0x28
    1160:	5c59      	ldrb	r1, [r3, r1]
    1162:	46ab      	mov	fp, r5
    1164:	4655      	mov	r5, sl
    1166:	465e      	mov	r6, fp
    1168:	4075      	eors	r5, r6
    116a:	46aa      	mov	sl, r5
    116c:	4d6b      	ldr	r5, [pc, #428]	; (131c <mbedtls_aes_setkey_dec+0x290>)
    116e:	0089      	lsls	r1, r1, #2
    1170:	46a9      	mov	r9, r5
    1172:	4655      	mov	r5, sl
    1174:	4449      	add	r1, r9
    1176:	6a89      	ldr	r1, [r1, #40]	; 0x28
    1178:	4069      	eors	r1, r5
            *RK++ = AES_RT0( FSb[ ( *SK       ) & 0xFF ] ) ^
    117a:	0015      	movs	r5, r2
    117c:	6001      	str	r1, [r0, #0]
    117e:	6961      	ldr	r1, [r4, #20]
    1180:	400d      	ands	r5, r1
    1182:	5d5d      	ldrb	r5, [r3, r5]
    1184:	00ad      	lsls	r5, r5, #2
    1186:	46aa      	mov	sl, r5
                    AES_RT3( FSb[ ( *SK >> 24 ) & 0xFF ] );
    1188:	0e0d      	lsrs	r5, r1, #24
    118a:	5d5d      	ldrb	r5, [r3, r5]
            *RK++ = AES_RT0( FSb[ ( *SK       ) & 0xFF ] ) ^
    118c:	44e2      	add	sl, ip
                    AES_RT3( FSb[ ( *SK >> 24 ) & 0xFF ] );
    118e:	00ad      	lsls	r5, r5, #2
    1190:	46ab      	mov	fp, r5
                    AES_RT2( FSb[ ( *SK >> 16 ) & 0xFF ] ) ^
    1192:	4655      	mov	r5, sl
    1194:	6aad      	ldr	r5, [r5, #40]	; 0x28
                    AES_RT3( FSb[ ( *SK >> 24 ) & 0xFF ] );
    1196:	44bb      	add	fp, r7
                    AES_RT2( FSb[ ( *SK >> 16 ) & 0xFF ] ) ^
    1198:	46aa      	mov	sl, r5
    119a:	465d      	mov	r5, fp
    119c:	6aad      	ldr	r5, [r5, #40]	; 0x28
    119e:	46ab      	mov	fp, r5
    11a0:	4655      	mov	r5, sl
    11a2:	465e      	mov	r6, fp
    11a4:	4075      	eors	r5, r6
    11a6:	46aa      	mov	sl, r5
                    AES_RT1( FSb[ ( *SK >>  8 ) & 0xFF ] ) ^
    11a8:	0a0d      	lsrs	r5, r1, #8
    11aa:	4015      	ands	r5, r2
    11ac:	5d5d      	ldrb	r5, [r3, r5]
                    AES_RT2( FSb[ ( *SK >> 16 ) & 0xFF ] ) ^
    11ae:	0c09      	lsrs	r1, r1, #16
                    AES_RT1( FSb[ ( *SK >>  8 ) & 0xFF ] ) ^
    11b0:	00ad      	lsls	r5, r5, #2
    11b2:	46ab      	mov	fp, r5
    11b4:	4d58      	ldr	r5, [pc, #352]	; (1318 <mbedtls_aes_setkey_dec+0x28c>)
                    AES_RT2( FSb[ ( *SK >> 16 ) & 0xFF ] ) ^
    11b6:	4011      	ands	r1, r2
                    AES_RT1( FSb[ ( *SK >>  8 ) & 0xFF ] ) ^
    11b8:	46a9      	mov	r9, r5
    11ba:	44cb      	add	fp, r9
                    AES_RT2( FSb[ ( *SK >> 16 ) & 0xFF ] ) ^
    11bc:	465d      	mov	r5, fp
    11be:	6aad      	ldr	r5, [r5, #40]	; 0x28
    11c0:	5c59      	ldrb	r1, [r3, r1]
    11c2:	46ab      	mov	fp, r5
    11c4:	4655      	mov	r5, sl
    11c6:	465e      	mov	r6, fp
    11c8:	4075      	eors	r5, r6
    11ca:	46aa      	mov	sl, r5
    11cc:	4d53      	ldr	r5, [pc, #332]	; (131c <mbedtls_aes_setkey_dec+0x290>)
    11ce:	0089      	lsls	r1, r1, #2
    11d0:	46a9      	mov	r9, r5
    11d2:	4655      	mov	r5, sl
    11d4:	4449      	add	r1, r9
    11d6:	6a89      	ldr	r1, [r1, #40]	; 0x28
    11d8:	4069      	eors	r1, r5
            *RK++ = AES_RT0( FSb[ ( *SK       ) & 0xFF ] ) ^
    11da:	0015      	movs	r5, r2
    11dc:	6041      	str	r1, [r0, #4]
    11de:	69a1      	ldr	r1, [r4, #24]
    11e0:	400d      	ands	r5, r1
    11e2:	5d5d      	ldrb	r5, [r3, r5]
    11e4:	00ad      	lsls	r5, r5, #2
    11e6:	46aa      	mov	sl, r5
                    AES_RT3( FSb[ ( *SK >> 24 ) & 0xFF ] );
    11e8:	0e0d      	lsrs	r5, r1, #24
    11ea:	5d5d      	ldrb	r5, [r3, r5]
            *RK++ = AES_RT0( FSb[ ( *SK       ) & 0xFF ] ) ^
    11ec:	44e2      	add	sl, ip
                    AES_RT3( FSb[ ( *SK >> 24 ) & 0xFF ] );
    11ee:	00ad      	lsls	r5, r5, #2
    11f0:	46ab      	mov	fp, r5
                    AES_RT2( FSb[ ( *SK >> 16 ) & 0xFF ] ) ^
    11f2:	4655      	mov	r5, sl
    11f4:	6aad      	ldr	r5, [r5, #40]	; 0x28
                    AES_RT3( FSb[ ( *SK >> 24 ) & 0xFF ] );
    11f6:	44bb      	add	fp, r7
                    AES_RT2( FSb[ ( *SK >> 16 ) & 0xFF ] ) ^
    11f8:	46aa      	mov	sl, r5
    11fa:	465d      	mov	r5, fp
    11fc:	6aad      	ldr	r5, [r5, #40]	; 0x28
    11fe:	46ab      	mov	fp, r5
    1200:	4655      	mov	r5, sl
    1202:	465e      	mov	r6, fp
    1204:	4075      	eors	r5, r6
    1206:	46aa      	mov	sl, r5
                    AES_RT1( FSb[ ( *SK >>  8 ) & 0xFF ] ) ^
    1208:	0a0d      	lsrs	r5, r1, #8
    120a:	4015      	ands	r5, r2
    120c:	5d5d      	ldrb	r5, [r3, r5]
                    AES_RT2( FSb[ ( *SK >> 16 ) & 0xFF ] ) ^
    120e:	0c09      	lsrs	r1, r1, #16
                    AES_RT1( FSb[ ( *SK >>  8 ) & 0xFF ] ) ^
    1210:	00ad      	lsls	r5, r5, #2
    1212:	46ab      	mov	fp, r5
    1214:	4d40      	ldr	r5, [pc, #256]	; (1318 <mbedtls_aes_setkey_dec+0x28c>)
                    AES_RT2( FSb[ ( *SK >> 16 ) & 0xFF ] ) ^
    1216:	4011      	ands	r1, r2
                    AES_RT1( FSb[ ( *SK >>  8 ) & 0xFF ] ) ^
    1218:	46a9      	mov	r9, r5
    121a:	44cb      	add	fp, r9
                    AES_RT2( FSb[ ( *SK >> 16 ) & 0xFF ] ) ^
    121c:	465d      	mov	r5, fp
    121e:	6aad      	ldr	r5, [r5, #40]	; 0x28
    1220:	5c59      	ldrb	r1, [r3, r1]
    1222:	46ab      	mov	fp, r5
    1224:	4655      	mov	r5, sl
    1226:	465e      	mov	r6, fp
    1228:	4075      	eors	r5, r6
    122a:	46aa      	mov	sl, r5
    122c:	4d3b      	ldr	r5, [pc, #236]	; (131c <mbedtls_aes_setkey_dec+0x290>)
    122e:	0089      	lsls	r1, r1, #2
    1230:	46a9      	mov	r9, r5
    1232:	4655      	mov	r5, sl
    1234:	4449      	add	r1, r9
    1236:	6a89      	ldr	r1, [r1, #40]	; 0x28
    1238:	4069      	eors	r1, r5
            *RK++ = AES_RT0( FSb[ ( *SK       ) & 0xFF ] ) ^
    123a:	0015      	movs	r5, r2
    123c:	6081      	str	r1, [r0, #8]
    123e:	69e1      	ldr	r1, [r4, #28]
    1240:	400d      	ands	r5, r1
    1242:	5d5d      	ldrb	r5, [r3, r5]
    1244:	00ad      	lsls	r5, r5, #2
    1246:	46aa      	mov	sl, r5
                    AES_RT3( FSb[ ( *SK >> 24 ) & 0xFF ] );
    1248:	0e0d      	lsrs	r5, r1, #24
    124a:	5d5d      	ldrb	r5, [r3, r5]
            *RK++ = AES_RT0( FSb[ ( *SK       ) & 0xFF ] ) ^
    124c:	44e2      	add	sl, ip
                    AES_RT3( FSb[ ( *SK >> 24 ) & 0xFF ] );
    124e:	00ad      	lsls	r5, r5, #2
    1250:	46ab      	mov	fp, r5
                    AES_RT2( FSb[ ( *SK >> 16 ) & 0xFF ] ) ^
    1252:	4655      	mov	r5, sl
    1254:	6aad      	ldr	r5, [r5, #40]	; 0x28
                    AES_RT3( FSb[ ( *SK >> 24 ) & 0xFF ] );
    1256:	44bb      	add	fp, r7
                    AES_RT2( FSb[ ( *SK >> 16 ) & 0xFF ] ) ^
    1258:	46aa      	mov	sl, r5
    125a:	465d      	mov	r5, fp
    125c:	6aad      	ldr	r5, [r5, #40]	; 0x28
    125e:	46ab      	mov	fp, r5
    1260:	4655      	mov	r5, sl
    1262:	465e      	mov	r6, fp
    1264:	4075      	eors	r5, r6
    1266:	46aa      	mov	sl, r5
                    AES_RT1( FSb[ ( *SK >>  8 ) & 0xFF ] ) ^
    1268:	0a0d      	lsrs	r5, r1, #8
    126a:	4015      	ands	r5, r2
    126c:	5d5d      	ldrb	r5, [r3, r5]
                    AES_RT2( FSb[ ( *SK >> 16 ) & 0xFF ] ) ^
    126e:	0c09      	lsrs	r1, r1, #16
                    AES_RT1( FSb[ ( *SK >>  8 ) & 0xFF ] ) ^
    1270:	00ad      	lsls	r5, r5, #2
    1272:	46ab      	mov	fp, r5
    1274:	4d28      	ldr	r5, [pc, #160]	; (1318 <mbedtls_aes_setkey_dec+0x28c>)
                    AES_RT2( FSb[ ( *SK >> 16 ) & 0xFF ] ) ^
    1276:	4011      	ands	r1, r2
                    AES_RT1( FSb[ ( *SK >>  8 ) & 0xFF ] ) ^
    1278:	46a9      	mov	r9, r5
    127a:	44cb      	add	fp, r9
                    AES_RT2( FSb[ ( *SK >> 16 ) & 0xFF ] ) ^
    127c:	465d      	mov	r5, fp
    127e:	6aad      	ldr	r5, [r5, #40]	; 0x28
    1280:	5c59      	ldrb	r1, [r3, r1]
    1282:	46ab      	mov	fp, r5
    1284:	4655      	mov	r5, sl
    1286:	465e      	mov	r6, fp
    1288:	4075      	eors	r5, r6
    128a:	46aa      	mov	sl, r5
    128c:	4d23      	ldr	r5, [pc, #140]	; (131c <mbedtls_aes_setkey_dec+0x290>)
    128e:	0089      	lsls	r1, r1, #2
    1290:	46ab      	mov	fp, r5
    1292:	4655      	mov	r5, sl
    1294:	4459      	add	r1, fp
    1296:	6a89      	ldr	r1, [r1, #40]	; 0x28
    1298:	4069      	eors	r1, r5
            *RK++ = AES_RT0( FSb[ ( *SK       ) & 0xFF ] ) ^
    129a:	60c1      	str	r1, [r0, #12]
    for( i = ctx->nr - 1, SK -= 8; i > 0; i--, SK -= 8 )
    129c:	2101      	movs	r1, #1
    129e:	4249      	negs	r1, r1
    12a0:	468a      	mov	sl, r1
    12a2:	44d0      	add	r8, sl
    12a4:	4641      	mov	r1, r8
            *RK++ = AES_RT0( FSb[ ( *SK       ) & 0xFF ] ) ^
    12a6:	3010      	adds	r0, #16
    for( i = ctx->nr - 1, SK -= 8; i > 0; i--, SK -= 8 )
    12a8:	2900      	cmp	r1, #0
    12aa:	d000      	beq.n	12ae <mbedtls_aes_setkey_dec+0x222>
    12ac:	e735      	b.n	111a <mbedtls_aes_setkey_dec+0x8e>
    12ae:	9b05      	ldr	r3, [sp, #20]
    12b0:	4699      	mov	r9, r3
    12b2:	464a      	mov	r2, r9
    12b4:	9b03      	ldr	r3, [sp, #12]
    12b6:	011b      	lsls	r3, r3, #4
    12b8:	1ad3      	subs	r3, r2, r3
    12ba:	2210      	movs	r2, #16
    12bc:	4691      	mov	r9, r2
    12be:	9a01      	ldr	r2, [sp, #4]
    12c0:	4499      	add	r9, r3
    12c2:	4694      	mov	ip, r2
    12c4:	9b04      	ldr	r3, [sp, #16]
    12c6:	3b10      	subs	r3, #16
    12c8:	449c      	add	ip, r3
    12ca:	4663      	mov	r3, ip
    12cc:	9301      	str	r3, [sp, #4]
    *RK++ = *SK++;
    12ce:	464a      	mov	r2, r9
    12d0:	9b01      	ldr	r3, [sp, #4]
    12d2:	6812      	ldr	r2, [r2, #0]
    12d4:	601a      	str	r2, [r3, #0]
    *RK++ = *SK++;
    12d6:	464a      	mov	r2, r9
    12d8:	6852      	ldr	r2, [r2, #4]
    12da:	605a      	str	r2, [r3, #4]
    *RK++ = *SK++;
    12dc:	464a      	mov	r2, r9
    12de:	6892      	ldr	r2, [r2, #8]
    12e0:	609a      	str	r2, [r3, #8]
    *RK++ = *SK++;
    12e2:	464a      	mov	r2, r9
    12e4:	68d2      	ldr	r2, [r2, #12]
    12e6:	9201      	str	r2, [sp, #4]
    12e8:	60da      	str	r2, [r3, #12]
    mbedtls_platform_zeroize( ctx, sizeof( mbedtls_aes_context ) );
    12ea:	218c      	movs	r1, #140	; 0x8c
    12ec:	a806      	add	r0, sp, #24
    12ee:	0049      	lsls	r1, r1, #1
    12f0:	4b0b      	ldr	r3, [pc, #44]	; (1320 <mbedtls_aes_setkey_dec+0x294>)
    12f2:	4798      	blx	r3
}
    12f4:	9802      	ldr	r0, [sp, #8]
    12f6:	b04d      	add	sp, #308	; 0x134
    12f8:	bc3c      	pop	{r2, r3, r4, r5}
    12fa:	4690      	mov	r8, r2
    12fc:	4699      	mov	r9, r3
    12fe:	46a2      	mov	sl, r4
    1300:	46ab      	mov	fp, r5
    1302:	bdf0      	pop	{r4, r5, r6, r7, pc}
    1304:	00001e4f 	.word	0x00001e4f
    1308:	00000929 	.word	0x00000929
    130c:	00002130 	.word	0x00002130
    1310:	00002030 	.word	0x00002030
    1314:	00002530 	.word	0x00002530
    1318:	00002930 	.word	0x00002930
    131c:	00002d30 	.word	0x00002d30
    1320:	00001db9 	.word	0x00001db9

00001324 <mbedtls_internal_aes_encrypt>:
{
    1324:	b5f0      	push	{r4, r5, r6, r7, lr}
    1326:	464e      	mov	r6, r9
    1328:	4645      	mov	r5, r8
    132a:	46de      	mov	lr, fp
    132c:	4657      	mov	r7, sl
    132e:	b5e0      	push	{r5, r6, r7, lr}
    GET_UINT32_LE( X0, input,  0 ); X0 ^= *RK++;
    1330:	784c      	ldrb	r4, [r1, #1]
    1332:	780b      	ldrb	r3, [r1, #0]
    1334:	0224      	lsls	r4, r4, #8
    1336:	431c      	orrs	r4, r3
    1338:	788b      	ldrb	r3, [r1, #2]
{
    133a:	b089      	sub	sp, #36	; 0x24
    GET_UINT32_LE( X0, input,  0 ); X0 ^= *RK++;
    133c:	041b      	lsls	r3, r3, #16
    133e:	431c      	orrs	r4, r3
    1340:	78cb      	ldrb	r3, [r1, #3]
{
    1342:	9206      	str	r2, [sp, #24]
    RK = ctx->rk;
    1344:	6842      	ldr	r2, [r0, #4]
    GET_UINT32_LE( X0, input,  0 ); X0 ^= *RK++;
    1346:	061b      	lsls	r3, r3, #24
    1348:	4323      	orrs	r3, r4
    134a:	6814      	ldr	r4, [r2, #0]
    GET_UINT32_LE( X2, input,  8 ); X2 ^= *RK++;
    134c:	7a0d      	ldrb	r5, [r1, #8]
    GET_UINT32_LE( X0, input,  0 ); X0 ^= *RK++;
    134e:	405c      	eors	r4, r3
    1350:	9402      	str	r4, [sp, #8]
    GET_UINT32_LE( X1, input,  4 ); X1 ^= *RK++;
    1352:	794c      	ldrb	r4, [r1, #5]
    1354:	790b      	ldrb	r3, [r1, #4]
    1356:	0224      	lsls	r4, r4, #8
    1358:	431c      	orrs	r4, r3
    135a:	798b      	ldrb	r3, [r1, #6]
    GET_UINT32_LE( X3, input, 12 ); X3 ^= *RK++;
    135c:	7b4e      	ldrb	r6, [r1, #13]
    GET_UINT32_LE( X1, input,  4 ); X1 ^= *RK++;
    135e:	041b      	lsls	r3, r3, #16
    1360:	431c      	orrs	r4, r3
    1362:	79cb      	ldrb	r3, [r1, #7]
    GET_UINT32_LE( X3, input, 12 ); X3 ^= *RK++;
    1364:	0236      	lsls	r6, r6, #8
    GET_UINT32_LE( X1, input,  4 ); X1 ^= *RK++;
    1366:	061b      	lsls	r3, r3, #24
    1368:	4323      	orrs	r3, r4
    136a:	6854      	ldr	r4, [r2, #4]
    136c:	4063      	eors	r3, r4
    GET_UINT32_LE( X2, input,  8 ); X2 ^= *RK++;
    136e:	7a4c      	ldrb	r4, [r1, #9]
    1370:	0224      	lsls	r4, r4, #8
    1372:	432c      	orrs	r4, r5
    1374:	7a8d      	ldrb	r5, [r1, #10]
    1376:	042d      	lsls	r5, r5, #16
    1378:	432c      	orrs	r4, r5
    137a:	7acd      	ldrb	r5, [r1, #11]
    137c:	062d      	lsls	r5, r5, #24
    137e:	4325      	orrs	r5, r4
    1380:	6894      	ldr	r4, [r2, #8]
    1382:	4065      	eors	r5, r4
    GET_UINT32_LE( X3, input, 12 ); X3 ^= *RK++;
    1384:	7b0c      	ldrb	r4, [r1, #12]
    1386:	4326      	orrs	r6, r4
    1388:	7b8c      	ldrb	r4, [r1, #14]
    138a:	0424      	lsls	r4, r4, #16
    138c:	4326      	orrs	r6, r4
    138e:	7bcc      	ldrb	r4, [r1, #15]
    1390:	2110      	movs	r1, #16
    1392:	468c      	mov	ip, r1
    1394:	4494      	add	ip, r2
    1396:	4661      	mov	r1, ip
    1398:	0624      	lsls	r4, r4, #24
    139a:	9105      	str	r1, [sp, #20]
    139c:	68d1      	ldr	r1, [r2, #12]
    139e:	4334      	orrs	r4, r6
    13a0:	404c      	eors	r4, r1
    for( i = ( ctx->nr >> 1 ) - 1; i > 0; i-- )
    13a2:	6801      	ldr	r1, [r0, #0]
    13a4:	1049      	asrs	r1, r1, #1
    13a6:	9107      	str	r1, [sp, #28]
    13a8:	3901      	subs	r1, #1
    13aa:	1e08      	subs	r0, r1, #0
    13ac:	9104      	str	r1, [sp, #16]
    GET_UINT32_LE( X3, input, 12 ); X3 ^= *RK++;
    13ae:	6911      	ldr	r1, [r2, #16]
    for( i = ( ctx->nr >> 1 ) - 1; i > 0; i-- )
    13b0:	dc00      	bgt.n	13b4 <mbedtls_internal_aes_encrypt+0x90>
    13b2:	e1d9      	b.n	1768 <mbedtls_internal_aes_encrypt+0x444>
    13b4:	9a05      	ldr	r2, [sp, #20]
        AES_FROUND( Y0, Y1, Y2, Y3, X0, X1, X2, X3 );
    13b6:	27ff      	movs	r7, #255	; 0xff
    for( i = ( ctx->nr >> 1 ) - 1; i > 0; i-- )
    13b8:	4694      	mov	ip, r2
    13ba:	4af0      	ldr	r2, [pc, #960]	; (177c <mbedtls_internal_aes_encrypt+0x458>)
        AES_FROUND( Y0, Y1, Y2, Y3, X0, X1, X2, X3 );
    13bc:	4666      	mov	r6, ip
    13be:	4693      	mov	fp, r2
    13c0:	4aef      	ldr	r2, [pc, #956]	; (1780 <mbedtls_internal_aes_encrypt+0x45c>)
    13c2:	9301      	str	r3, [sp, #4]
    13c4:	4692      	mov	sl, r2
    13c6:	4aef      	ldr	r2, [pc, #956]	; (1784 <mbedtls_internal_aes_encrypt+0x460>)
    13c8:	4691      	mov	r9, r2
    13ca:	4aef      	ldr	r2, [pc, #956]	; (1788 <mbedtls_internal_aes_encrypt+0x464>)
    13cc:	4690      	mov	r8, r2
    13ce:	9b02      	ldr	r3, [sp, #8]
    13d0:	0e20      	lsrs	r0, r4, #24
    13d2:	001a      	movs	r2, r3
    13d4:	403a      	ands	r2, r7
    13d6:	0092      	lsls	r2, r2, #2
    13d8:	0080      	lsls	r0, r0, #2
    13da:	445a      	add	r2, fp
    13dc:	4450      	add	r0, sl
    13de:	6a80      	ldr	r0, [r0, #40]	; 0x28
    13e0:	6a92      	ldr	r2, [r2, #40]	; 0x28
    13e2:	4042      	eors	r2, r0
    13e4:	4051      	eors	r1, r2
    13e6:	9a01      	ldr	r2, [sp, #4]
    13e8:	0a10      	lsrs	r0, r2, #8
    13ea:	4038      	ands	r0, r7
    13ec:	0080      	lsls	r0, r0, #2
    13ee:	4448      	add	r0, r9
    13f0:	6a82      	ldr	r2, [r0, #40]	; 0x28
    13f2:	0038      	movs	r0, r7
    13f4:	4051      	eors	r1, r2
    13f6:	0c2a      	lsrs	r2, r5, #16
    13f8:	403a      	ands	r2, r7
    13fa:	0092      	lsls	r2, r2, #2
    13fc:	4442      	add	r2, r8
    13fe:	6a92      	ldr	r2, [r2, #40]	; 0x28
    1400:	4051      	eors	r1, r2
    1402:	9a01      	ldr	r2, [sp, #4]
    1404:	4010      	ands	r0, r2
    1406:	0082      	lsls	r2, r0, #2
    1408:	0e18      	lsrs	r0, r3, #24
    140a:	0080      	lsls	r0, r0, #2
    140c:	445a      	add	r2, fp
    140e:	4450      	add	r0, sl
    1410:	6a80      	ldr	r0, [r0, #40]	; 0x28
    1412:	6a92      	ldr	r2, [r2, #40]	; 0x28
    1414:	6873      	ldr	r3, [r6, #4]
    1416:	4042      	eors	r2, r0
    1418:	0a28      	lsrs	r0, r5, #8
    141a:	4038      	ands	r0, r7
    141c:	0080      	lsls	r0, r0, #2
    141e:	4448      	add	r0, r9
    1420:	6a80      	ldr	r0, [r0, #40]	; 0x28
    1422:	405a      	eors	r2, r3
    1424:	4042      	eors	r2, r0
    1426:	0c20      	lsrs	r0, r4, #16
    1428:	4038      	ands	r0, r7
    142a:	0080      	lsls	r0, r0, #2
    142c:	4440      	add	r0, r8
    142e:	6a80      	ldr	r0, [r0, #40]	; 0x28
    1430:	4042      	eors	r2, r0
    1432:	0038      	movs	r0, r7
    1434:	4028      	ands	r0, r5
    1436:	0080      	lsls	r0, r0, #2
    1438:	4684      	mov	ip, r0
    143a:	44dc      	add	ip, fp
    143c:	4663      	mov	r3, ip
    143e:	9801      	ldr	r0, [sp, #4]
    1440:	6a9b      	ldr	r3, [r3, #40]	; 0x28
    1442:	0e00      	lsrs	r0, r0, #24
    1444:	0080      	lsls	r0, r0, #2
    1446:	4450      	add	r0, sl
    1448:	6a80      	ldr	r0, [r0, #40]	; 0x28
    144a:	9203      	str	r2, [sp, #12]
    144c:	4058      	eors	r0, r3
    144e:	68b3      	ldr	r3, [r6, #8]
    1450:	0e2d      	lsrs	r5, r5, #24
    1452:	4058      	eors	r0, r3
    1454:	0a23      	lsrs	r3, r4, #8
    1456:	001a      	movs	r2, r3
    1458:	403a      	ands	r2, r7
    145a:	0093      	lsls	r3, r2, #2
    145c:	469c      	mov	ip, r3
    145e:	44cc      	add	ip, r9
    1460:	4663      	mov	r3, ip
    1462:	9a02      	ldr	r2, [sp, #8]
    1464:	6a9b      	ldr	r3, [r3, #40]	; 0x28
    1466:	403c      	ands	r4, r7
    1468:	4058      	eors	r0, r3
    146a:	0c13      	lsrs	r3, r2, #16
    146c:	403b      	ands	r3, r7
    146e:	009b      	lsls	r3, r3, #2
    1470:	469c      	mov	ip, r3
    1472:	44c4      	add	ip, r8
    1474:	4663      	mov	r3, ip
    1476:	00a4      	lsls	r4, r4, #2
    1478:	00ad      	lsls	r5, r5, #2
    147a:	445c      	add	r4, fp
    147c:	4455      	add	r5, sl
    147e:	6aad      	ldr	r5, [r5, #40]	; 0x28
    1480:	6aa4      	ldr	r4, [r4, #40]	; 0x28
    1482:	6a9b      	ldr	r3, [r3, #40]	; 0x28
    1484:	406c      	eors	r4, r5
    1486:	0a15      	lsrs	r5, r2, #8
    1488:	403d      	ands	r5, r7
    148a:	00ad      	lsls	r5, r5, #2
    148c:	4058      	eors	r0, r3
    148e:	444d      	add	r5, r9
    1490:	68f3      	ldr	r3, [r6, #12]
    1492:	6aad      	ldr	r5, [r5, #40]	; 0x28
    1494:	405c      	eors	r4, r3
    1496:	406c      	eors	r4, r5
    1498:	9d01      	ldr	r5, [sp, #4]
        AES_FROUND( X0, X1, X2, X3, Y0, Y1, Y2, Y3 );
    149a:	6932      	ldr	r2, [r6, #16]
        AES_FROUND( Y0, Y1, Y2, Y3, X0, X1, X2, X3 );
    149c:	0c2b      	lsrs	r3, r5, #16
    149e:	403b      	ands	r3, r7
    14a0:	009b      	lsls	r3, r3, #2
    14a2:	4443      	add	r3, r8
    14a4:	6a9b      	ldr	r3, [r3, #40]	; 0x28
    14a6:	405c      	eors	r4, r3
        AES_FROUND( X0, X1, X2, X3, Y0, Y1, Y2, Y3 );
    14a8:	003b      	movs	r3, r7
    14aa:	0e25      	lsrs	r5, r4, #24
    14ac:	400b      	ands	r3, r1
    14ae:	009b      	lsls	r3, r3, #2
    14b0:	00ad      	lsls	r5, r5, #2
    14b2:	445b      	add	r3, fp
    14b4:	4455      	add	r5, sl
    14b6:	6aad      	ldr	r5, [r5, #40]	; 0x28
    14b8:	6a9b      	ldr	r3, [r3, #40]	; 0x28
    14ba:	406b      	eors	r3, r5
    14bc:	4053      	eors	r3, r2
    14be:	9a03      	ldr	r2, [sp, #12]
    14c0:	0a15      	lsrs	r5, r2, #8
    14c2:	403d      	ands	r5, r7
    14c4:	00ad      	lsls	r5, r5, #2
    14c6:	444d      	add	r5, r9
    14c8:	6aad      	ldr	r5, [r5, #40]	; 0x28
    14ca:	406b      	eors	r3, r5
    14cc:	0c05      	lsrs	r5, r0, #16
    14ce:	403d      	ands	r5, r7
    14d0:	00ad      	lsls	r5, r5, #2
    14d2:	4445      	add	r5, r8
    14d4:	6aad      	ldr	r5, [r5, #40]	; 0x28
    14d6:	406b      	eors	r3, r5
    14d8:	9302      	str	r3, [sp, #8]
    14da:	003b      	movs	r3, r7
    14dc:	0e0d      	lsrs	r5, r1, #24
    14de:	4013      	ands	r3, r2
    14e0:	009b      	lsls	r3, r3, #2
    14e2:	00ad      	lsls	r5, r5, #2
    14e4:	445b      	add	r3, fp
    14e6:	4455      	add	r5, sl
    14e8:	6aad      	ldr	r5, [r5, #40]	; 0x28
    14ea:	6a9b      	ldr	r3, [r3, #40]	; 0x28
    14ec:	6972      	ldr	r2, [r6, #20]
    14ee:	406b      	eors	r3, r5
    14f0:	0a05      	lsrs	r5, r0, #8
    14f2:	403d      	ands	r5, r7
    14f4:	00ad      	lsls	r5, r5, #2
    14f6:	444d      	add	r5, r9
    14f8:	6aad      	ldr	r5, [r5, #40]	; 0x28
    14fa:	4053      	eors	r3, r2
    14fc:	406b      	eors	r3, r5
    14fe:	0c25      	lsrs	r5, r4, #16
    1500:	403d      	ands	r5, r7
    1502:	00ad      	lsls	r5, r5, #2
    1504:	4445      	add	r5, r8
    1506:	6aad      	ldr	r5, [r5, #40]	; 0x28
    1508:	9a03      	ldr	r2, [sp, #12]
    150a:	406b      	eors	r3, r5
    150c:	003d      	movs	r5, r7
    150e:	4005      	ands	r5, r0
    1510:	00ad      	lsls	r5, r5, #2
    1512:	445d      	add	r5, fp
    1514:	46ac      	mov	ip, r5
    1516:	9301      	str	r3, [sp, #4]
    1518:	4663      	mov	r3, ip
    151a:	0e15      	lsrs	r5, r2, #24
    151c:	00ad      	lsls	r5, r5, #2
    151e:	4455      	add	r5, sl
    1520:	6a9b      	ldr	r3, [r3, #40]	; 0x28
    1522:	6aad      	ldr	r5, [r5, #40]	; 0x28
    1524:	0e00      	lsrs	r0, r0, #24
    1526:	405d      	eors	r5, r3
    1528:	69b3      	ldr	r3, [r6, #24]
    152a:	0080      	lsls	r0, r0, #2
    152c:	405d      	eors	r5, r3
    152e:	0a23      	lsrs	r3, r4, #8
    1530:	403b      	ands	r3, r7
    1532:	009b      	lsls	r3, r3, #2
    1534:	469c      	mov	ip, r3
    1536:	44cc      	add	ip, r9
    1538:	4663      	mov	r3, ip
    153a:	6a9b      	ldr	r3, [r3, #40]	; 0x28
    153c:	403c      	ands	r4, r7
    153e:	405d      	eors	r5, r3
    1540:	0c0b      	lsrs	r3, r1, #16
    1542:	403b      	ands	r3, r7
    1544:	009b      	lsls	r3, r3, #2
    1546:	469c      	mov	ip, r3
    1548:	44c4      	add	ip, r8
    154a:	4663      	mov	r3, ip
    154c:	00a4      	lsls	r4, r4, #2
    154e:	0a09      	lsrs	r1, r1, #8
    1550:	6a9b      	ldr	r3, [r3, #40]	; 0x28
    1552:	445c      	add	r4, fp
    1554:	4450      	add	r0, sl
    1556:	4039      	ands	r1, r7
    1558:	0c12      	lsrs	r2, r2, #16
    155a:	6a80      	ldr	r0, [r0, #40]	; 0x28
    155c:	6aa4      	ldr	r4, [r4, #40]	; 0x28
    155e:	0089      	lsls	r1, r1, #2
    1560:	403a      	ands	r2, r7
    1562:	4449      	add	r1, r9
    1564:	405d      	eors	r5, r3
    1566:	0092      	lsls	r2, r2, #2
    1568:	69f3      	ldr	r3, [r6, #28]
    156a:	4044      	eors	r4, r0
    156c:	4442      	add	r2, r8
    156e:	6a88      	ldr	r0, [r1, #40]	; 0x28
    1570:	6a92      	ldr	r2, [r2, #40]	; 0x28
    1572:	405c      	eors	r4, r3
    1574:	4044      	eors	r4, r0
    1576:	4054      	eors	r4, r2
    for( i = ( ctx->nr >> 1 ) - 1; i > 0; i-- )
    1578:	9a04      	ldr	r2, [sp, #16]
        AES_FROUND( X0, X1, X2, X3, Y0, Y1, Y2, Y3 );
    157a:	6a31      	ldr	r1, [r6, #32]
    for( i = ( ctx->nr >> 1 ) - 1; i > 0; i-- )
    157c:	3a01      	subs	r2, #1
    157e:	9204      	str	r2, [sp, #16]
    1580:	3620      	adds	r6, #32
    1582:	2a00      	cmp	r2, #0
    1584:	d000      	beq.n	1588 <mbedtls_internal_aes_encrypt+0x264>
    1586:	e722      	b.n	13ce <mbedtls_internal_aes_encrypt+0xaa>
    1588:	4880      	ldr	r0, [pc, #512]	; (178c <mbedtls_internal_aes_encrypt+0x468>)
    158a:	9a07      	ldr	r2, [sp, #28]
    158c:	4684      	mov	ip, r0
    158e:	9805      	ldr	r0, [sp, #20]
    1590:	4462      	add	r2, ip
    1592:	4684      	mov	ip, r0
    1594:	0152      	lsls	r2, r2, #5
    1596:	4494      	add	ip, r2
    1598:	4662      	mov	r2, ip
    159a:	9b01      	ldr	r3, [sp, #4]
    159c:	9205      	str	r2, [sp, #20]
    AES_FROUND( Y0, Y1, Y2, Y3, X0, X1, X2, X3 );
    159e:	20ff      	movs	r0, #255	; 0xff
    15a0:	9a02      	ldr	r2, [sp, #8]
    15a2:	0e26      	lsrs	r6, r4, #24
    15a4:	4002      	ands	r2, r0
    15a6:	0092      	lsls	r2, r2, #2
    15a8:	00b6      	lsls	r6, r6, #2
    15aa:	445a      	add	r2, fp
    15ac:	4456      	add	r6, sl
    15ae:	0a1f      	lsrs	r7, r3, #8
    15b0:	6ab6      	ldr	r6, [r6, #40]	; 0x28
    15b2:	6a92      	ldr	r2, [r2, #40]	; 0x28
    15b4:	4007      	ands	r7, r0
    15b6:	00bf      	lsls	r7, r7, #2
    15b8:	4072      	eors	r2, r6
    15ba:	444f      	add	r7, r9
    15bc:	4051      	eors	r1, r2
    15be:	6aba      	ldr	r2, [r7, #40]	; 0x28
    15c0:	0e1f      	lsrs	r7, r3, #24
    15c2:	4051      	eors	r1, r2
    15c4:	0c2a      	lsrs	r2, r5, #16
    15c6:	4002      	ands	r2, r0
    15c8:	0092      	lsls	r2, r2, #2
    15ca:	4442      	add	r2, r8
    15cc:	6a92      	ldr	r2, [r2, #40]	; 0x28
    15ce:	00bf      	lsls	r7, r7, #2
    15d0:	4051      	eors	r1, r2
    15d2:	0002      	movs	r2, r0
    15d4:	468c      	mov	ip, r1
    15d6:	9902      	ldr	r1, [sp, #8]
    15d8:	401a      	ands	r2, r3
    15da:	0e09      	lsrs	r1, r1, #24
    15dc:	0092      	lsls	r2, r2, #2
    15de:	0089      	lsls	r1, r1, #2
    15e0:	445a      	add	r2, fp
    15e2:	4451      	add	r1, sl
    15e4:	6a89      	ldr	r1, [r1, #40]	; 0x28
    15e6:	6a92      	ldr	r2, [r2, #40]	; 0x28
    15e8:	4457      	add	r7, sl
    15ea:	404a      	eors	r2, r1
    15ec:	9905      	ldr	r1, [sp, #20]
    15ee:	0c1b      	lsrs	r3, r3, #16
    15f0:	684e      	ldr	r6, [r1, #4]
    15f2:	0a29      	lsrs	r1, r5, #8
    15f4:	4072      	eors	r2, r6
    15f6:	0006      	movs	r6, r0
    15f8:	4001      	ands	r1, r0
    15fa:	0089      	lsls	r1, r1, #2
    15fc:	4449      	add	r1, r9
    15fe:	6a89      	ldr	r1, [r1, #40]	; 0x28
    1600:	402e      	ands	r6, r5
    1602:	404a      	eors	r2, r1
    1604:	0c21      	lsrs	r1, r4, #16
    1606:	4001      	ands	r1, r0
    1608:	0089      	lsls	r1, r1, #2
    160a:	4441      	add	r1, r8
    160c:	6a89      	ldr	r1, [r1, #40]	; 0x28
    160e:	0e2d      	lsrs	r5, r5, #24
    1610:	404a      	eors	r2, r1
    1612:	00b1      	lsls	r1, r6, #2
    1614:	9201      	str	r2, [sp, #4]
    1616:	4459      	add	r1, fp
    1618:	9a05      	ldr	r2, [sp, #20]
    161a:	6a8e      	ldr	r6, [r1, #40]	; 0x28
    161c:	6ab9      	ldr	r1, [r7, #40]	; 0x28
    161e:	6897      	ldr	r7, [r2, #8]
    1620:	404e      	eors	r6, r1
    1622:	9703      	str	r7, [sp, #12]
    1624:	407e      	eors	r6, r7
    1626:	0a27      	lsrs	r7, r4, #8
    1628:	4007      	ands	r7, r0
    162a:	4004      	ands	r4, r0
    162c:	00bf      	lsls	r7, r7, #2
    162e:	00a4      	lsls	r4, r4, #2
    1630:	00ad      	lsls	r5, r5, #2
    1632:	444f      	add	r7, r9
    1634:	445c      	add	r4, fp
    1636:	4455      	add	r5, sl
    1638:	6ab9      	ldr	r1, [r7, #40]	; 0x28
    163a:	6aa4      	ldr	r4, [r4, #40]	; 0x28
    163c:	9f02      	ldr	r7, [sp, #8]
    163e:	6aad      	ldr	r5, [r5, #40]	; 0x28
    1640:	404e      	eors	r6, r1
    1642:	4065      	eors	r5, r4
    1644:	0c39      	lsrs	r1, r7, #16
    1646:	68d4      	ldr	r4, [r2, #12]
    1648:	4001      	ands	r1, r0
    164a:	4065      	eors	r5, r4
    164c:	0089      	lsls	r1, r1, #2
    164e:	0a3c      	lsrs	r4, r7, #8
    1650:	4441      	add	r1, r8
    1652:	4004      	ands	r4, r0
    1654:	6a89      	ldr	r1, [r1, #40]	; 0x28
    1656:	00a4      	lsls	r4, r4, #2
    1658:	444c      	add	r4, r9
    165a:	4003      	ands	r3, r0
    165c:	4071      	eors	r1, r6
    165e:	009b      	lsls	r3, r3, #2
    1660:	6aa6      	ldr	r6, [r4, #40]	; 0x28
    1662:	4443      	add	r3, r8
    1664:	4075      	eors	r5, r6
    1666:	6a9e      	ldr	r6, [r3, #40]	; 0x28
            ( (uint32_t) FSb[ ( Y0       ) & 0xFF ]       ) ^
    1668:	4664      	mov	r4, ip
    AES_FROUND( Y0, Y1, Y2, Y3, X0, X1, X2, X3 );
    166a:	0033      	movs	r3, r6
    166c:	406b      	eors	r3, r5
    166e:	4699      	mov	r9, r3
            ( (uint32_t) FSb[ ( Y0       ) & 0xFF ]       ) ^
    1670:	4b47      	ldr	r3, [pc, #284]	; (1790 <mbedtls_internal_aes_encrypt+0x46c>)
    1672:	4004      	ands	r4, r0
    1674:	3328      	adds	r3, #40	; 0x28
    1676:	5d1d      	ldrb	r5, [r3, r4]
    X0 = *RK++ ^ \
    1678:	6914      	ldr	r4, [r2, #16]
            ( (uint32_t) FSb[ ( Y1 >>  8 ) & 0xFF ] <<  8 ) ^
    167a:	9e01      	ldr	r6, [sp, #4]
    X0 = *RK++ ^ \
    167c:	4065      	eors	r5, r4
            ( (uint32_t) FSb[ ( Y3 >> 24 ) & 0xFF ] << 24 );
    167e:	464c      	mov	r4, r9
    1680:	0e24      	lsrs	r4, r4, #24
    1682:	5d1c      	ldrb	r4, [r3, r4]
    1684:	0624      	lsls	r4, r4, #24
    X0 = *RK++ ^ \
    1686:	4065      	eors	r5, r4
            ( (uint32_t) FSb[ ( Y1 >>  8 ) & 0xFF ] <<  8 ) ^
    1688:	0a34      	lsrs	r4, r6, #8
    168a:	4004      	ands	r4, r0
    168c:	5d1c      	ldrb	r4, [r3, r4]
    168e:	0224      	lsls	r4, r4, #8
    X0 = *RK++ ^ \
    1690:	4065      	eors	r5, r4
            ( (uint32_t) FSb[ ( Y2 >> 16 ) & 0xFF ] << 16 ) ^
    1692:	0c0c      	lsrs	r4, r1, #16
    1694:	4004      	ands	r4, r0
    1696:	5d1c      	ldrb	r4, [r3, r4]
    1698:	0424      	lsls	r4, r4, #16
    X0 = *RK++ ^ \
    169a:	4065      	eors	r5, r4
            ( (uint32_t) FSb[ ( Y1       ) & 0xFF ]       ) ^
    169c:	0004      	movs	r4, r0
    169e:	4034      	ands	r4, r6
    16a0:	5d1f      	ldrb	r7, [r3, r4]
    X1 = *RK++ ^ \
    16a2:	6954      	ldr	r4, [r2, #20]
    X2 = *RK++ ^ \
    16a4:	6996      	ldr	r6, [r2, #24]
    X1 = *RK++ ^ \
    16a6:	4067      	eors	r7, r4
            ( (uint32_t) FSb[ ( Y0 >> 24 ) & 0xFF ] << 24 );
    16a8:	4664      	mov	r4, ip
    16aa:	0e24      	lsrs	r4, r4, #24
    16ac:	5d1c      	ldrb	r4, [r3, r4]
    X2 = *RK++ ^ \
    16ae:	9602      	str	r6, [sp, #8]
            ( (uint32_t) FSb[ ( Y0 >> 24 ) & 0xFF ] << 24 );
    16b0:	0624      	lsls	r4, r4, #24
    X1 = *RK++ ^ \
    16b2:	4067      	eors	r7, r4
            ( (uint32_t) FSb[ ( Y2 >>  8 ) & 0xFF ] <<  8 ) ^
    16b4:	0a0c      	lsrs	r4, r1, #8
    16b6:	4004      	ands	r4, r0
    16b8:	5d1c      	ldrb	r4, [r3, r4]
    X3 = *RK++ ^ \
    16ba:	69d2      	ldr	r2, [r2, #28]
            ( (uint32_t) FSb[ ( Y2 >>  8 ) & 0xFF ] <<  8 ) ^
    16bc:	0224      	lsls	r4, r4, #8
    X1 = *RK++ ^ \
    16be:	4067      	eors	r7, r4
            ( (uint32_t) FSb[ ( Y3 >> 16 ) & 0xFF ] << 16 ) ^
    16c0:	464c      	mov	r4, r9
    16c2:	0c24      	lsrs	r4, r4, #16
    16c4:	4004      	ands	r4, r0
    16c6:	5d1c      	ldrb	r4, [r3, r4]
    16c8:	0424      	lsls	r4, r4, #16
    X1 = *RK++ ^ \
    16ca:	4067      	eors	r7, r4
            ( (uint32_t) FSb[ ( Y2       ) & 0xFF ]       ) ^
    16cc:	0004      	movs	r4, r0
    16ce:	400c      	ands	r4, r1
    16d0:	5d1c      	ldrb	r4, [r3, r4]
            ( (uint32_t) FSb[ ( Y2 >> 24 ) & 0xFF ] << 24 );
    16d2:	0e09      	lsrs	r1, r1, #24
    X2 = *RK++ ^ \
    16d4:	4066      	eors	r6, r4
            ( (uint32_t) FSb[ ( Y1 >> 24 ) & 0xFF ] << 24 );
    16d6:	9c01      	ldr	r4, [sp, #4]
            ( (uint32_t) FSb[ ( Y2 >> 24 ) & 0xFF ] << 24 );
    16d8:	5c59      	ldrb	r1, [r3, r1]
            ( (uint32_t) FSb[ ( Y1 >> 24 ) & 0xFF ] << 24 );
    16da:	0e24      	lsrs	r4, r4, #24
    16dc:	5d1c      	ldrb	r4, [r3, r4]
            ( (uint32_t) FSb[ ( Y2 >> 24 ) & 0xFF ] << 24 );
    16de:	0609      	lsls	r1, r1, #24
            ( (uint32_t) FSb[ ( Y1 >> 24 ) & 0xFF ] << 24 );
    16e0:	0624      	lsls	r4, r4, #24
    X2 = *RK++ ^ \
    16e2:	4074      	eors	r4, r6
            ( (uint32_t) FSb[ ( Y3 >>  8 ) & 0xFF ] <<  8 ) ^
    16e4:	464e      	mov	r6, r9
    16e6:	0a36      	lsrs	r6, r6, #8
    16e8:	4006      	ands	r6, r0
    16ea:	5d9e      	ldrb	r6, [r3, r6]
    16ec:	0236      	lsls	r6, r6, #8
    X2 = *RK++ ^ \
    16ee:	4074      	eors	r4, r6
            ( (uint32_t) FSb[ ( Y0 >> 16 ) & 0xFF ] << 16 ) ^
    16f0:	4666      	mov	r6, ip
    16f2:	0c36      	lsrs	r6, r6, #16
    16f4:	4006      	ands	r6, r0
    16f6:	5d9e      	ldrb	r6, [r3, r6]
    16f8:	0436      	lsls	r6, r6, #16
    X2 = *RK++ ^ \
    16fa:	4074      	eors	r4, r6
            ( (uint32_t) FSb[ ( Y3       ) & 0xFF ]       ) ^
    16fc:	464e      	mov	r6, r9
    16fe:	4006      	ands	r6, r0
    1700:	5d9e      	ldrb	r6, [r3, r6]
    X3 = *RK++ ^ \
    1702:	4056      	eors	r6, r2
            ( (uint32_t) FSb[ ( Y0 >>  8 ) & 0xFF ] <<  8 ) ^
    1704:	4662      	mov	r2, ip
    X3 = *RK++ ^ \
    1706:	404e      	eors	r6, r1
            ( (uint32_t) FSb[ ( Y0 >>  8 ) & 0xFF ] <<  8 ) ^
    1708:	0a11      	lsrs	r1, r2, #8
            ( (uint32_t) FSb[ ( Y1 >> 16 ) & 0xFF ] << 16 ) ^
    170a:	9a01      	ldr	r2, [sp, #4]
            ( (uint32_t) FSb[ ( Y0 >>  8 ) & 0xFF ] <<  8 ) ^
    170c:	4001      	ands	r1, r0
            ( (uint32_t) FSb[ ( Y1 >> 16 ) & 0xFF ] << 16 ) ^
    170e:	0c12      	lsrs	r2, r2, #16
    1710:	4010      	ands	r0, r2
            ( (uint32_t) FSb[ ( Y0 >>  8 ) & 0xFF ] <<  8 ) ^
    1712:	5c59      	ldrb	r1, [r3, r1]
            ( (uint32_t) FSb[ ( Y1 >> 16 ) & 0xFF ] << 16 ) ^
    1714:	5c1b      	ldrb	r3, [r3, r0]
}
    1716:	2000      	movs	r0, #0
            ( (uint32_t) FSb[ ( Y0 >>  8 ) & 0xFF ] <<  8 ) ^
    1718:	0209      	lsls	r1, r1, #8
    X3 = *RK++ ^ \
    171a:	4071      	eors	r1, r6
            ( (uint32_t) FSb[ ( Y1 >> 16 ) & 0xFF ] << 16 ) ^
    171c:	041b      	lsls	r3, r3, #16
    X3 = *RK++ ^ \
    171e:	404b      	eors	r3, r1
    PUT_UINT32_LE( X0, output,  0 );
    1720:	9906      	ldr	r1, [sp, #24]
    1722:	0a2a      	lsrs	r2, r5, #8
    1724:	704a      	strb	r2, [r1, #1]
    1726:	0c2a      	lsrs	r2, r5, #16
    1728:	708a      	strb	r2, [r1, #2]
    PUT_UINT32_LE( X1, output,  4 );
    172a:	0a3a      	lsrs	r2, r7, #8
    172c:	714a      	strb	r2, [r1, #5]
    172e:	0c3a      	lsrs	r2, r7, #16
    1730:	718a      	strb	r2, [r1, #6]
    PUT_UINT32_LE( X2, output,  8 );
    1732:	0a22      	lsrs	r2, r4, #8
    1734:	724a      	strb	r2, [r1, #9]
    1736:	0c22      	lsrs	r2, r4, #16
    PUT_UINT32_LE( X0, output,  0 );
    1738:	700d      	strb	r5, [r1, #0]
    PUT_UINT32_LE( X1, output,  4 );
    173a:	710f      	strb	r7, [r1, #4]
    PUT_UINT32_LE( X2, output,  8 );
    173c:	720c      	strb	r4, [r1, #8]
    173e:	728a      	strb	r2, [r1, #10]
    PUT_UINT32_LE( X0, output,  0 );
    1740:	0e2d      	lsrs	r5, r5, #24
    PUT_UINT32_LE( X3, output, 12 );
    1742:	0a1a      	lsrs	r2, r3, #8
    PUT_UINT32_LE( X1, output,  4 );
    1744:	0e3f      	lsrs	r7, r7, #24
    PUT_UINT32_LE( X2, output,  8 );
    1746:	0e24      	lsrs	r4, r4, #24
    PUT_UINT32_LE( X0, output,  0 );
    1748:	70cd      	strb	r5, [r1, #3]
    PUT_UINT32_LE( X1, output,  4 );
    174a:	71cf      	strb	r7, [r1, #7]
    PUT_UINT32_LE( X2, output,  8 );
    174c:	72cc      	strb	r4, [r1, #11]
    PUT_UINT32_LE( X3, output, 12 );
    174e:	730b      	strb	r3, [r1, #12]
    1750:	734a      	strb	r2, [r1, #13]
    1752:	0c1a      	lsrs	r2, r3, #16
    1754:	0e1b      	lsrs	r3, r3, #24
    1756:	738a      	strb	r2, [r1, #14]
    1758:	73cb      	strb	r3, [r1, #15]
}
    175a:	b009      	add	sp, #36	; 0x24
    175c:	bc3c      	pop	{r2, r3, r4, r5}
    175e:	4690      	mov	r8, r2
    1760:	4699      	mov	r9, r3
    1762:	46a2      	mov	sl, r4
    1764:	46ab      	mov	fp, r5
    1766:	bdf0      	pop	{r4, r5, r6, r7, pc}
    1768:	4a04      	ldr	r2, [pc, #16]	; (177c <mbedtls_internal_aes_encrypt+0x458>)
    176a:	4693      	mov	fp, r2
    176c:	4a04      	ldr	r2, [pc, #16]	; (1780 <mbedtls_internal_aes_encrypt+0x45c>)
    176e:	4692      	mov	sl, r2
    1770:	4a04      	ldr	r2, [pc, #16]	; (1784 <mbedtls_internal_aes_encrypt+0x460>)
    1772:	4691      	mov	r9, r2
    1774:	4a04      	ldr	r2, [pc, #16]	; (1788 <mbedtls_internal_aes_encrypt+0x464>)
    1776:	4690      	mov	r8, r2
    1778:	e711      	b.n	159e <mbedtls_internal_aes_encrypt+0x27a>
    177a:	46c0      	nop			; (mov r8, r8)
    177c:	00003130 	.word	0x00003130
    1780:	00003530 	.word	0x00003530
    1784:	00003930 	.word	0x00003930
    1788:	00003d30 	.word	0x00003d30
    178c:	07ffffff 	.word	0x07ffffff
    1790:	00002030 	.word	0x00002030

00001794 <mbedtls_internal_aes_decrypt>:
{
    1794:	b5f0      	push	{r4, r5, r6, r7, lr}
    1796:	464e      	mov	r6, r9
    1798:	4645      	mov	r5, r8
    179a:	46de      	mov	lr, fp
    179c:	4657      	mov	r7, sl
    179e:	b5e0      	push	{r5, r6, r7, lr}
    17a0:	b089      	sub	sp, #36	; 0x24
    17a2:	9206      	str	r2, [sp, #24]
    GET_UINT32_LE( X0, input,  0 ); X0 ^= *RK++;
    17a4:	784a      	ldrb	r2, [r1, #1]
    17a6:	780b      	ldrb	r3, [r1, #0]
    17a8:	0212      	lsls	r2, r2, #8
    17aa:	431a      	orrs	r2, r3
    17ac:	788b      	ldrb	r3, [r1, #2]
    RK = ctx->rk;
    17ae:	6845      	ldr	r5, [r0, #4]
    GET_UINT32_LE( X0, input,  0 ); X0 ^= *RK++;
    17b0:	041b      	lsls	r3, r3, #16
    17b2:	431a      	orrs	r2, r3
    17b4:	78cb      	ldrb	r3, [r1, #3]
    GET_UINT32_LE( X2, input,  8 ); X2 ^= *RK++;
    17b6:	7a4c      	ldrb	r4, [r1, #9]
    GET_UINT32_LE( X0, input,  0 ); X0 ^= *RK++;
    17b8:	061b      	lsls	r3, r3, #24
    17ba:	4313      	orrs	r3, r2
    17bc:	682a      	ldr	r2, [r5, #0]
    GET_UINT32_LE( X2, input,  8 ); X2 ^= *RK++;
    17be:	0224      	lsls	r4, r4, #8
    GET_UINT32_LE( X0, input,  0 ); X0 ^= *RK++;
    17c0:	405a      	eors	r2, r3
    17c2:	9202      	str	r2, [sp, #8]
    GET_UINT32_LE( X1, input,  4 ); X1 ^= *RK++;
    17c4:	794a      	ldrb	r2, [r1, #5]
    17c6:	790b      	ldrb	r3, [r1, #4]
    17c8:	0212      	lsls	r2, r2, #8
    17ca:	431a      	orrs	r2, r3
    17cc:	798b      	ldrb	r3, [r1, #6]
    GET_UINT32_LE( X3, input, 12 ); X3 ^= *RK++;
    17ce:	7b4e      	ldrb	r6, [r1, #13]
    GET_UINT32_LE( X1, input,  4 ); X1 ^= *RK++;
    17d0:	041b      	lsls	r3, r3, #16
    17d2:	431a      	orrs	r2, r3
    17d4:	79cb      	ldrb	r3, [r1, #7]
    GET_UINT32_LE( X3, input, 12 ); X3 ^= *RK++;
    17d6:	0236      	lsls	r6, r6, #8
    GET_UINT32_LE( X1, input,  4 ); X1 ^= *RK++;
    17d8:	061b      	lsls	r3, r3, #24
    17da:	4313      	orrs	r3, r2
    17dc:	686a      	ldr	r2, [r5, #4]
    17de:	4053      	eors	r3, r2
    GET_UINT32_LE( X2, input,  8 ); X2 ^= *RK++;
    17e0:	7a0a      	ldrb	r2, [r1, #8]
    17e2:	4314      	orrs	r4, r2
    17e4:	7a8a      	ldrb	r2, [r1, #10]
    17e6:	0412      	lsls	r2, r2, #16
    17e8:	4314      	orrs	r4, r2
    17ea:	7aca      	ldrb	r2, [r1, #11]
    17ec:	0612      	lsls	r2, r2, #24
    17ee:	4322      	orrs	r2, r4
    17f0:	68ac      	ldr	r4, [r5, #8]
    17f2:	4062      	eors	r2, r4
    GET_UINT32_LE( X3, input, 12 ); X3 ^= *RK++;
    17f4:	7b0c      	ldrb	r4, [r1, #12]
    17f6:	4326      	orrs	r6, r4
    17f8:	7b8c      	ldrb	r4, [r1, #14]
    17fa:	0424      	lsls	r4, r4, #16
    17fc:	4326      	orrs	r6, r4
    17fe:	7bcc      	ldrb	r4, [r1, #15]
    1800:	2110      	movs	r1, #16
    1802:	468c      	mov	ip, r1
    1804:	44ac      	add	ip, r5
    1806:	4661      	mov	r1, ip
    1808:	0624      	lsls	r4, r4, #24
    180a:	9105      	str	r1, [sp, #20]
    180c:	68e9      	ldr	r1, [r5, #12]
    180e:	4334      	orrs	r4, r6
    1810:	404c      	eors	r4, r1
    for( i = ( ctx->nr >> 1 ) - 1; i > 0; i-- )
    1812:	6801      	ldr	r1, [r0, #0]
    1814:	1049      	asrs	r1, r1, #1
    1816:	9107      	str	r1, [sp, #28]
    1818:	3901      	subs	r1, #1
    181a:	1e08      	subs	r0, r1, #0
    181c:	9103      	str	r1, [sp, #12]
    GET_UINT32_LE( X3, input, 12 ); X3 ^= *RK++;
    181e:	6929      	ldr	r1, [r5, #16]
    for( i = ( ctx->nr >> 1 ) - 1; i > 0; i-- )
    1820:	dc00      	bgt.n	1824 <mbedtls_internal_aes_decrypt+0x90>
    1822:	e1d9      	b.n	1bd8 <mbedtls_internal_aes_decrypt+0x444>
    1824:	9805      	ldr	r0, [sp, #20]
        AES_RROUND( Y0, Y1, Y2, Y3, X0, X1, X2, X3 );
    1826:	27ff      	movs	r7, #255	; 0xff
    for( i = ( ctx->nr >> 1 ) - 1; i > 0; i-- )
    1828:	4684      	mov	ip, r0
    182a:	48f0      	ldr	r0, [pc, #960]	; (1bec <mbedtls_internal_aes_decrypt+0x458>)
        AES_RROUND( Y0, Y1, Y2, Y3, X0, X1, X2, X3 );
    182c:	4666      	mov	r6, ip
    182e:	4683      	mov	fp, r0
    1830:	48ef      	ldr	r0, [pc, #956]	; (1bf0 <mbedtls_internal_aes_decrypt+0x45c>)
    1832:	9301      	str	r3, [sp, #4]
    1834:	4682      	mov	sl, r0
    1836:	48ef      	ldr	r0, [pc, #956]	; (1bf4 <mbedtls_internal_aes_decrypt+0x460>)
    1838:	4681      	mov	r9, r0
    183a:	48ef      	ldr	r0, [pc, #956]	; (1bf8 <mbedtls_internal_aes_decrypt+0x464>)
    183c:	4680      	mov	r8, r0
    183e:	9b01      	ldr	r3, [sp, #4]
    1840:	9802      	ldr	r0, [sp, #8]
    1842:	0e1d      	lsrs	r5, r3, #24
    1844:	4038      	ands	r0, r7
    1846:	0080      	lsls	r0, r0, #2
    1848:	00ad      	lsls	r5, r5, #2
    184a:	4458      	add	r0, fp
    184c:	4455      	add	r5, sl
    184e:	6aad      	ldr	r5, [r5, #40]	; 0x28
    1850:	6a80      	ldr	r0, [r0, #40]	; 0x28
    1852:	4068      	eors	r0, r5
    1854:	0a25      	lsrs	r5, r4, #8
    1856:	403d      	ands	r5, r7
    1858:	00ad      	lsls	r5, r5, #2
    185a:	444d      	add	r5, r9
    185c:	4041      	eors	r1, r0
    185e:	6aa8      	ldr	r0, [r5, #40]	; 0x28
    1860:	003d      	movs	r5, r7
    1862:	4041      	eors	r1, r0
    1864:	0c10      	lsrs	r0, r2, #16
    1866:	4038      	ands	r0, r7
    1868:	0080      	lsls	r0, r0, #2
    186a:	4440      	add	r0, r8
    186c:	6a80      	ldr	r0, [r0, #40]	; 0x28
    186e:	401d      	ands	r5, r3
    1870:	4041      	eors	r1, r0
    1872:	00a8      	lsls	r0, r5, #2
    1874:	0e15      	lsrs	r5, r2, #24
    1876:	00ad      	lsls	r5, r5, #2
    1878:	4458      	add	r0, fp
    187a:	4455      	add	r5, sl
    187c:	6aad      	ldr	r5, [r5, #40]	; 0x28
    187e:	6a80      	ldr	r0, [r0, #40]	; 0x28
    1880:	6873      	ldr	r3, [r6, #4]
    1882:	4068      	eors	r0, r5
    1884:	9d02      	ldr	r5, [sp, #8]
    1886:	4058      	eors	r0, r3
    1888:	0a2d      	lsrs	r5, r5, #8
    188a:	403d      	ands	r5, r7
    188c:	00ad      	lsls	r5, r5, #2
    188e:	444d      	add	r5, r9
    1890:	6aad      	ldr	r5, [r5, #40]	; 0x28
    1892:	4068      	eors	r0, r5
    1894:	0c25      	lsrs	r5, r4, #16
    1896:	403d      	ands	r5, r7
    1898:	00ad      	lsls	r5, r5, #2
    189a:	4445      	add	r5, r8
    189c:	6aad      	ldr	r5, [r5, #40]	; 0x28
    189e:	4068      	eors	r0, r5
    18a0:	003d      	movs	r5, r7
    18a2:	4015      	ands	r5, r2
    18a4:	00ad      	lsls	r5, r5, #2
    18a6:	46ac      	mov	ip, r5
    18a8:	44dc      	add	ip, fp
    18aa:	4663      	mov	r3, ip
    18ac:	0e25      	lsrs	r5, r4, #24
    18ae:	00ad      	lsls	r5, r5, #2
    18b0:	4455      	add	r5, sl
    18b2:	6a9b      	ldr	r3, [r3, #40]	; 0x28
    18b4:	6aad      	ldr	r5, [r5, #40]	; 0x28
    18b6:	9004      	str	r0, [sp, #16]
    18b8:	405d      	eors	r5, r3
    18ba:	68b3      	ldr	r3, [r6, #8]
    18bc:	403c      	ands	r4, r7
    18be:	405d      	eors	r5, r3
    18c0:	9b01      	ldr	r3, [sp, #4]
    18c2:	00a4      	lsls	r4, r4, #2
    18c4:	0a1b      	lsrs	r3, r3, #8
    18c6:	0018      	movs	r0, r3
    18c8:	4038      	ands	r0, r7
    18ca:	0083      	lsls	r3, r0, #2
    18cc:	469c      	mov	ip, r3
    18ce:	44cc      	add	ip, r9
    18d0:	4663      	mov	r3, ip
    18d2:	9802      	ldr	r0, [sp, #8]
    18d4:	6a9b      	ldr	r3, [r3, #40]	; 0x28
    18d6:	445c      	add	r4, fp
    18d8:	405d      	eors	r5, r3
    18da:	0c03      	lsrs	r3, r0, #16
    18dc:	403b      	ands	r3, r7
    18de:	009b      	lsls	r3, r3, #2
    18e0:	469c      	mov	ip, r3
    18e2:	44c4      	add	ip, r8
    18e4:	4663      	mov	r3, ip
    18e6:	6a9b      	ldr	r3, [r3, #40]	; 0x28
    18e8:	6aa4      	ldr	r4, [r4, #40]	; 0x28
    18ea:	405d      	eors	r5, r3
    18ec:	0e03      	lsrs	r3, r0, #24
    18ee:	009b      	lsls	r3, r3, #2
    18f0:	469c      	mov	ip, r3
    18f2:	44d4      	add	ip, sl
    18f4:	4663      	mov	r3, ip
    18f6:	6a9b      	ldr	r3, [r3, #40]	; 0x28
    18f8:	0a12      	lsrs	r2, r2, #8
    18fa:	405c      	eors	r4, r3
    18fc:	68f3      	ldr	r3, [r6, #12]
    18fe:	403a      	ands	r2, r7
    1900:	405c      	eors	r4, r3
    1902:	9b01      	ldr	r3, [sp, #4]
    1904:	0092      	lsls	r2, r2, #2
    1906:	0c1b      	lsrs	r3, r3, #16
    1908:	403b      	ands	r3, r7
    190a:	444a      	add	r2, r9
    190c:	009b      	lsls	r3, r3, #2
    190e:	6a92      	ldr	r2, [r2, #40]	; 0x28
    1910:	4443      	add	r3, r8
    1912:	6a9b      	ldr	r3, [r3, #40]	; 0x28
    1914:	4054      	eors	r4, r2
    1916:	405c      	eors	r4, r3
        AES_RROUND( X0, X1, X2, X3, Y0, Y1, Y2, Y3 );
    1918:	003b      	movs	r3, r7
    191a:	9804      	ldr	r0, [sp, #16]
    191c:	400b      	ands	r3, r1
    191e:	0e02      	lsrs	r2, r0, #24
    1920:	009b      	lsls	r3, r3, #2
    1922:	0092      	lsls	r2, r2, #2
    1924:	445b      	add	r3, fp
    1926:	4452      	add	r2, sl
    1928:	6a92      	ldr	r2, [r2, #40]	; 0x28
    192a:	6a9b      	ldr	r3, [r3, #40]	; 0x28
    192c:	4053      	eors	r3, r2
    192e:	6932      	ldr	r2, [r6, #16]
    1930:	4053      	eors	r3, r2
    1932:	0a22      	lsrs	r2, r4, #8
    1934:	403a      	ands	r2, r7
    1936:	0092      	lsls	r2, r2, #2
    1938:	444a      	add	r2, r9
    193a:	6a92      	ldr	r2, [r2, #40]	; 0x28
    193c:	4053      	eors	r3, r2
    193e:	0c2a      	lsrs	r2, r5, #16
    1940:	403a      	ands	r2, r7
    1942:	0092      	lsls	r2, r2, #2
    1944:	4442      	add	r2, r8
    1946:	6a92      	ldr	r2, [r2, #40]	; 0x28
    1948:	4053      	eors	r3, r2
    194a:	9302      	str	r3, [sp, #8]
    194c:	003b      	movs	r3, r7
    194e:	0e2a      	lsrs	r2, r5, #24
    1950:	4003      	ands	r3, r0
    1952:	009b      	lsls	r3, r3, #2
    1954:	0092      	lsls	r2, r2, #2
    1956:	445b      	add	r3, fp
    1958:	4452      	add	r2, sl
    195a:	6a92      	ldr	r2, [r2, #40]	; 0x28
    195c:	6a9b      	ldr	r3, [r3, #40]	; 0x28
    195e:	4053      	eors	r3, r2
    1960:	6972      	ldr	r2, [r6, #20]
    1962:	4053      	eors	r3, r2
    1964:	0a0a      	lsrs	r2, r1, #8
    1966:	403a      	ands	r2, r7
    1968:	0092      	lsls	r2, r2, #2
    196a:	444a      	add	r2, r9
    196c:	6a92      	ldr	r2, [r2, #40]	; 0x28
    196e:	4053      	eors	r3, r2
    1970:	0c22      	lsrs	r2, r4, #16
    1972:	403a      	ands	r2, r7
    1974:	0092      	lsls	r2, r2, #2
    1976:	4442      	add	r2, r8
    1978:	6a92      	ldr	r2, [r2, #40]	; 0x28
    197a:	4053      	eors	r3, r2
    197c:	003a      	movs	r2, r7
    197e:	402a      	ands	r2, r5
    1980:	0092      	lsls	r2, r2, #2
    1982:	445a      	add	r2, fp
    1984:	4694      	mov	ip, r2
    1986:	9301      	str	r3, [sp, #4]
    1988:	4663      	mov	r3, ip
    198a:	0e22      	lsrs	r2, r4, #24
    198c:	0092      	lsls	r2, r2, #2
    198e:	4452      	add	r2, sl
    1990:	6a9b      	ldr	r3, [r3, #40]	; 0x28
    1992:	6a92      	ldr	r2, [r2, #40]	; 0x28
    1994:	403c      	ands	r4, r7
    1996:	405a      	eors	r2, r3
    1998:	69b3      	ldr	r3, [r6, #24]
    199a:	00a4      	lsls	r4, r4, #2
    199c:	405a      	eors	r2, r3
    199e:	0a03      	lsrs	r3, r0, #8
    19a0:	403b      	ands	r3, r7
    19a2:	009b      	lsls	r3, r3, #2
    19a4:	469c      	mov	ip, r3
    19a6:	44cc      	add	ip, r9
    19a8:	4663      	mov	r3, ip
    19aa:	6a9b      	ldr	r3, [r3, #40]	; 0x28
    19ac:	0a2d      	lsrs	r5, r5, #8
    19ae:	405a      	eors	r2, r3
    19b0:	0c0b      	lsrs	r3, r1, #16
    19b2:	403b      	ands	r3, r7
    19b4:	009b      	lsls	r3, r3, #2
    19b6:	469c      	mov	ip, r3
    19b8:	44c4      	add	ip, r8
    19ba:	4663      	mov	r3, ip
    19bc:	0e09      	lsrs	r1, r1, #24
    19be:	0089      	lsls	r1, r1, #2
    19c0:	6a9b      	ldr	r3, [r3, #40]	; 0x28
    19c2:	445c      	add	r4, fp
    19c4:	4451      	add	r1, sl
    19c6:	403d      	ands	r5, r7
    19c8:	6a89      	ldr	r1, [r1, #40]	; 0x28
    19ca:	6aa4      	ldr	r4, [r4, #40]	; 0x28
    19cc:	00ad      	lsls	r5, r5, #2
    19ce:	0c00      	lsrs	r0, r0, #16
    19d0:	405a      	eors	r2, r3
    19d2:	444d      	add	r5, r9
    19d4:	69f3      	ldr	r3, [r6, #28]
    19d6:	4038      	ands	r0, r7
    19d8:	404c      	eors	r4, r1
    19da:	0080      	lsls	r0, r0, #2
    19dc:	6aa9      	ldr	r1, [r5, #40]	; 0x28
    19de:	4440      	add	r0, r8
    19e0:	405c      	eors	r4, r3
    19e2:	404c      	eors	r4, r1
    19e4:	6a81      	ldr	r1, [r0, #40]	; 0x28
    19e6:	3620      	adds	r6, #32
    19e8:	404c      	eors	r4, r1
    for( i = ( ctx->nr >> 1 ) - 1; i > 0; i-- )
    19ea:	9903      	ldr	r1, [sp, #12]
    19ec:	3901      	subs	r1, #1
    19ee:	1e08      	subs	r0, r1, #0
    19f0:	9103      	str	r1, [sp, #12]
        AES_RROUND( X0, X1, X2, X3, Y0, Y1, Y2, Y3 );
    19f2:	6831      	ldr	r1, [r6, #0]
    for( i = ( ctx->nr >> 1 ) - 1; i > 0; i-- )
    19f4:	d000      	beq.n	19f8 <mbedtls_internal_aes_decrypt+0x264>
    19f6:	e722      	b.n	183e <mbedtls_internal_aes_decrypt+0xaa>
    19f8:	4d80      	ldr	r5, [pc, #512]	; (1bfc <mbedtls_internal_aes_decrypt+0x468>)
    19fa:	9807      	ldr	r0, [sp, #28]
    19fc:	46ac      	mov	ip, r5
    19fe:	9d05      	ldr	r5, [sp, #20]
    1a00:	4460      	add	r0, ip
    1a02:	46ac      	mov	ip, r5
    1a04:	0140      	lsls	r0, r0, #5
    1a06:	4484      	add	ip, r0
    1a08:	4660      	mov	r0, ip
    1a0a:	9b01      	ldr	r3, [sp, #4]
    1a0c:	9005      	str	r0, [sp, #20]
    AES_RROUND( Y0, Y1, Y2, Y3, X0, X1, X2, X3 );
    1a0e:	20ff      	movs	r0, #255	; 0xff
    1a10:	9d02      	ldr	r5, [sp, #8]
    1a12:	0e1e      	lsrs	r6, r3, #24
    1a14:	4005      	ands	r5, r0
    1a16:	00ad      	lsls	r5, r5, #2
    1a18:	00b6      	lsls	r6, r6, #2
    1a1a:	445d      	add	r5, fp
    1a1c:	4456      	add	r6, sl
    1a1e:	0a27      	lsrs	r7, r4, #8
    1a20:	6ab6      	ldr	r6, [r6, #40]	; 0x28
    1a22:	6aad      	ldr	r5, [r5, #40]	; 0x28
    1a24:	4007      	ands	r7, r0
    1a26:	00bf      	lsls	r7, r7, #2
    1a28:	4075      	eors	r5, r6
    1a2a:	444f      	add	r7, r9
    1a2c:	4069      	eors	r1, r5
    1a2e:	6abd      	ldr	r5, [r7, #40]	; 0x28
    1a30:	9e02      	ldr	r6, [sp, #8]
    1a32:	4069      	eors	r1, r5
    1a34:	0c15      	lsrs	r5, r2, #16
    1a36:	4005      	ands	r5, r0
    1a38:	00ad      	lsls	r5, r5, #2
    1a3a:	4445      	add	r5, r8
    1a3c:	6aad      	ldr	r5, [r5, #40]	; 0x28
    1a3e:	4069      	eors	r1, r5
    1a40:	468c      	mov	ip, r1
    1a42:	0001      	movs	r1, r0
    1a44:	4019      	ands	r1, r3
    1a46:	008d      	lsls	r5, r1, #2
    1a48:	0e11      	lsrs	r1, r2, #24
    1a4a:	0089      	lsls	r1, r1, #2
    1a4c:	445d      	add	r5, fp
    1a4e:	4451      	add	r1, sl
    1a50:	6a89      	ldr	r1, [r1, #40]	; 0x28
    1a52:	6aad      	ldr	r5, [r5, #40]	; 0x28
    1a54:	404d      	eors	r5, r1
    1a56:	9905      	ldr	r1, [sp, #20]
    1a58:	684f      	ldr	r7, [r1, #4]
    1a5a:	0a31      	lsrs	r1, r6, #8
    1a5c:	4001      	ands	r1, r0
    1a5e:	0089      	lsls	r1, r1, #2
    1a60:	4449      	add	r1, r9
    1a62:	6a89      	ldr	r1, [r1, #40]	; 0x28
    1a64:	407d      	eors	r5, r7
    1a66:	404d      	eors	r5, r1
    1a68:	0c21      	lsrs	r1, r4, #16
    1a6a:	4001      	ands	r1, r0
    1a6c:	0089      	lsls	r1, r1, #2
    1a6e:	4441      	add	r1, r8
    1a70:	6a89      	ldr	r1, [r1, #40]	; 0x28
    1a72:	0e27      	lsrs	r7, r4, #24
    1a74:	404d      	eors	r5, r1
    1a76:	0001      	movs	r1, r0
    1a78:	4011      	ands	r1, r2
    1a7a:	0089      	lsls	r1, r1, #2
    1a7c:	00bf      	lsls	r7, r7, #2
    1a7e:	4459      	add	r1, fp
    1a80:	4457      	add	r7, sl
    1a82:	9501      	str	r5, [sp, #4]
    1a84:	6a8e      	ldr	r6, [r1, #40]	; 0x28
    1a86:	9d05      	ldr	r5, [sp, #20]
    1a88:	6ab9      	ldr	r1, [r7, #40]	; 0x28
    1a8a:	0a1f      	lsrs	r7, r3, #8
    1a8c:	4007      	ands	r7, r0
    1a8e:	404e      	eors	r6, r1
    1a90:	00bf      	lsls	r7, r7, #2
    1a92:	68a9      	ldr	r1, [r5, #8]
    1a94:	444f      	add	r7, r9
    1a96:	9103      	str	r1, [sp, #12]
    1a98:	404e      	eors	r6, r1
    1a9a:	6ab9      	ldr	r1, [r7, #40]	; 0x28
    1a9c:	9f02      	ldr	r7, [sp, #8]
    1a9e:	404e      	eors	r6, r1
    1aa0:	0c39      	lsrs	r1, r7, #16
    1aa2:	4001      	ands	r1, r0
    1aa4:	0089      	lsls	r1, r1, #2
    1aa6:	4441      	add	r1, r8
    1aa8:	6a89      	ldr	r1, [r1, #40]	; 0x28
    1aaa:	4004      	ands	r4, r0
    1aac:	4071      	eors	r1, r6
    1aae:	0e3e      	lsrs	r6, r7, #24
    1ab0:	00a4      	lsls	r4, r4, #2
    1ab2:	00b6      	lsls	r6, r6, #2
    1ab4:	445c      	add	r4, fp
    1ab6:	4456      	add	r6, sl
    1ab8:	6ab6      	ldr	r6, [r6, #40]	; 0x28
    1aba:	6aa4      	ldr	r4, [r4, #40]	; 0x28
    1abc:	0a12      	lsrs	r2, r2, #8
    1abe:	4002      	ands	r2, r0
    1ac0:	4074      	eors	r4, r6
    1ac2:	0092      	lsls	r2, r2, #2
    1ac4:	68ee      	ldr	r6, [r5, #12]
    1ac6:	0c1b      	lsrs	r3, r3, #16
    1ac8:	444a      	add	r2, r9
    1aca:	4003      	ands	r3, r0
    1acc:	4074      	eors	r4, r6
    1ace:	009b      	lsls	r3, r3, #2
    1ad0:	6a96      	ldr	r6, [r2, #40]	; 0x28
    1ad2:	4443      	add	r3, r8
    1ad4:	4074      	eors	r4, r6
    1ad6:	6a9e      	ldr	r6, [r3, #40]	; 0x28
            ( (uint32_t) RSb[ ( Y0       ) & 0xFF ]       ) ^
    1ad8:	4662      	mov	r2, ip
    AES_RROUND( Y0, Y1, Y2, Y3, X0, X1, X2, X3 );
    1ada:	0033      	movs	r3, r6
    1adc:	4063      	eors	r3, r4
    1ade:	4699      	mov	r9, r3
            ( (uint32_t) RSb[ ( Y0       ) & 0xFF ]       ) ^
    1ae0:	4b47      	ldr	r3, [pc, #284]	; (1c00 <mbedtls_internal_aes_decrypt+0x46c>)
    1ae2:	4002      	ands	r2, r0
    1ae4:	3328      	adds	r3, #40	; 0x28
            ( (uint32_t) RSb[ ( Y1 >> 24 ) & 0xFF ] << 24 );
    1ae6:	9e01      	ldr	r6, [sp, #4]
            ( (uint32_t) RSb[ ( Y0       ) & 0xFF ]       ) ^
    1ae8:	5c9c      	ldrb	r4, [r3, r2]
    X0 = *RK++ ^ \
    1aea:	692a      	ldr	r2, [r5, #16]
    1aec:	4054      	eors	r4, r2
            ( (uint32_t) RSb[ ( Y1 >> 24 ) & 0xFF ] << 24 );
    1aee:	0e32      	lsrs	r2, r6, #24
    1af0:	5c9a      	ldrb	r2, [r3, r2]
    1af2:	0612      	lsls	r2, r2, #24
    X0 = *RK++ ^ \
    1af4:	4054      	eors	r4, r2
            ( (uint32_t) RSb[ ( Y3 >>  8 ) & 0xFF ] <<  8 ) ^
    1af6:	464a      	mov	r2, r9
    1af8:	0a12      	lsrs	r2, r2, #8
    1afa:	4002      	ands	r2, r0
    1afc:	5c9a      	ldrb	r2, [r3, r2]
    1afe:	0212      	lsls	r2, r2, #8
    X0 = *RK++ ^ \
    1b00:	4054      	eors	r4, r2
            ( (uint32_t) RSb[ ( Y2 >> 16 ) & 0xFF ] << 16 ) ^
    1b02:	0c0a      	lsrs	r2, r1, #16
    1b04:	4002      	ands	r2, r0
    1b06:	5c9a      	ldrb	r2, [r3, r2]
    1b08:	0412      	lsls	r2, r2, #16
    X0 = *RK++ ^ \
    1b0a:	4054      	eors	r4, r2
            ( (uint32_t) RSb[ ( Y1       ) & 0xFF ]       ) ^
    1b0c:	0002      	movs	r2, r0
    1b0e:	4032      	ands	r2, r6
    1b10:	5c9f      	ldrb	r7, [r3, r2]
    X1 = *RK++ ^ \
    1b12:	696a      	ldr	r2, [r5, #20]
    X2 = *RK++ ^ \
    1b14:	69ae      	ldr	r6, [r5, #24]
    X1 = *RK++ ^ \
    1b16:	4057      	eors	r7, r2
            ( (uint32_t) RSb[ ( Y2 >> 24 ) & 0xFF ] << 24 );
    1b18:	0e0a      	lsrs	r2, r1, #24
    1b1a:	5c9a      	ldrb	r2, [r3, r2]
    X2 = *RK++ ^ \
    1b1c:	9602      	str	r6, [sp, #8]
            ( (uint32_t) RSb[ ( Y2 >> 24 ) & 0xFF ] << 24 );
    1b1e:	0612      	lsls	r2, r2, #24
    X1 = *RK++ ^ \
    1b20:	4057      	eors	r7, r2
            ( (uint32_t) RSb[ ( Y0 >>  8 ) & 0xFF ] <<  8 ) ^
    1b22:	4662      	mov	r2, ip
    1b24:	0a12      	lsrs	r2, r2, #8
    1b26:	4002      	ands	r2, r0
    1b28:	5c9a      	ldrb	r2, [r3, r2]
    X3 = *RK++ ^ \
    1b2a:	69ed      	ldr	r5, [r5, #28]
            ( (uint32_t) RSb[ ( Y0 >>  8 ) & 0xFF ] <<  8 ) ^
    1b2c:	0212      	lsls	r2, r2, #8
    X1 = *RK++ ^ \
    1b2e:	4057      	eors	r7, r2
            ( (uint32_t) RSb[ ( Y3 >> 16 ) & 0xFF ] << 16 ) ^
    1b30:	464a      	mov	r2, r9
    1b32:	0c12      	lsrs	r2, r2, #16
    1b34:	4002      	ands	r2, r0
    1b36:	5c9a      	ldrb	r2, [r3, r2]
    1b38:	0412      	lsls	r2, r2, #16
    X1 = *RK++ ^ \
    1b3a:	4057      	eors	r7, r2
            ( (uint32_t) RSb[ ( Y2       ) & 0xFF ]       ) ^
    1b3c:	0002      	movs	r2, r0
    1b3e:	400a      	ands	r2, r1
    1b40:	5c9a      	ldrb	r2, [r3, r2]
            ( (uint32_t) RSb[ ( Y2 >>  8 ) & 0xFF ] <<  8 ) ^
    1b42:	0a09      	lsrs	r1, r1, #8
    X2 = *RK++ ^ \
    1b44:	4056      	eors	r6, r2
            ( (uint32_t) RSb[ ( Y3 >> 24 ) & 0xFF ] << 24 );
    1b46:	464a      	mov	r2, r9
    1b48:	0e12      	lsrs	r2, r2, #24
    1b4a:	5c9a      	ldrb	r2, [r3, r2]
            ( (uint32_t) RSb[ ( Y2 >>  8 ) & 0xFF ] <<  8 ) ^
    1b4c:	4001      	ands	r1, r0
            ( (uint32_t) RSb[ ( Y3 >> 24 ) & 0xFF ] << 24 );
    1b4e:	0612      	lsls	r2, r2, #24
    X2 = *RK++ ^ \
    1b50:	4072      	eors	r2, r6
            ( (uint32_t) RSb[ ( Y1 >>  8 ) & 0xFF ] <<  8 ) ^
    1b52:	9e01      	ldr	r6, [sp, #4]
            ( (uint32_t) RSb[ ( Y2 >>  8 ) & 0xFF ] <<  8 ) ^
    1b54:	5c59      	ldrb	r1, [r3, r1]
            ( (uint32_t) RSb[ ( Y1 >>  8 ) & 0xFF ] <<  8 ) ^
    1b56:	0a36      	lsrs	r6, r6, #8
    1b58:	4006      	ands	r6, r0
    1b5a:	5d9e      	ldrb	r6, [r3, r6]
            ( (uint32_t) RSb[ ( Y2 >>  8 ) & 0xFF ] <<  8 ) ^
    1b5c:	0209      	lsls	r1, r1, #8
            ( (uint32_t) RSb[ ( Y1 >>  8 ) & 0xFF ] <<  8 ) ^
    1b5e:	0236      	lsls	r6, r6, #8
    X2 = *RK++ ^ \
    1b60:	4072      	eors	r2, r6
            ( (uint32_t) RSb[ ( Y0 >> 16 ) & 0xFF ] << 16 ) ^
    1b62:	4666      	mov	r6, ip
    1b64:	0c36      	lsrs	r6, r6, #16
    1b66:	4006      	ands	r6, r0
    1b68:	5d9e      	ldrb	r6, [r3, r6]
    1b6a:	0436      	lsls	r6, r6, #16
    X2 = *RK++ ^ \
    1b6c:	4072      	eors	r2, r6
            ( (uint32_t) RSb[ ( Y3       ) & 0xFF ]       ) ^
    1b6e:	464e      	mov	r6, r9
    1b70:	4006      	ands	r6, r0
    1b72:	5d9e      	ldrb	r6, [r3, r6]
    X3 = *RK++ ^ \
    1b74:	406e      	eors	r6, r5
            ( (uint32_t) RSb[ ( Y0 >> 24 ) & 0xFF ] << 24 );
    1b76:	4665      	mov	r5, ip
    1b78:	0e2d      	lsrs	r5, r5, #24
    1b7a:	5d5d      	ldrb	r5, [r3, r5]
    1b7c:	062d      	lsls	r5, r5, #24
    X3 = *RK++ ^ \
    1b7e:	406e      	eors	r6, r5
            ( (uint32_t) RSb[ ( Y1 >> 16 ) & 0xFF ] << 16 ) ^
    1b80:	9d01      	ldr	r5, [sp, #4]
    X3 = *RK++ ^ \
    1b82:	4071      	eors	r1, r6
            ( (uint32_t) RSb[ ( Y1 >> 16 ) & 0xFF ] << 16 ) ^
    1b84:	0c2d      	lsrs	r5, r5, #16
    1b86:	4028      	ands	r0, r5
    1b88:	5c1b      	ldrb	r3, [r3, r0]
    PUT_UINT32_LE( X0, output,  0 );
    1b8a:	9806      	ldr	r0, [sp, #24]
            ( (uint32_t) RSb[ ( Y1 >> 16 ) & 0xFF ] << 16 ) ^
    1b8c:	041b      	lsls	r3, r3, #16
    X3 = *RK++ ^ \
    1b8e:	404b      	eors	r3, r1
    PUT_UINT32_LE( X0, output,  0 );
    1b90:	0a21      	lsrs	r1, r4, #8
    1b92:	7041      	strb	r1, [r0, #1]
    1b94:	0c21      	lsrs	r1, r4, #16
    1b96:	7081      	strb	r1, [r0, #2]
    PUT_UINT32_LE( X1, output,  4 );
    1b98:	0a39      	lsrs	r1, r7, #8
    1b9a:	7141      	strb	r1, [r0, #5]
    1b9c:	0c39      	lsrs	r1, r7, #16
    1b9e:	7181      	strb	r1, [r0, #6]
    PUT_UINT32_LE( X2, output,  8 );
    1ba0:	0a11      	lsrs	r1, r2, #8
    1ba2:	7202      	strb	r2, [r0, #8]
    1ba4:	7241      	strb	r1, [r0, #9]
    1ba6:	0c11      	lsrs	r1, r2, #16
    1ba8:	0e12      	lsrs	r2, r2, #24
    PUT_UINT32_LE( X0, output,  0 );
    1baa:	7004      	strb	r4, [r0, #0]
    PUT_UINT32_LE( X1, output,  4 );
    1bac:	7107      	strb	r7, [r0, #4]
    PUT_UINT32_LE( X2, output,  8 );
    1bae:	72c2      	strb	r2, [r0, #11]
    PUT_UINT32_LE( X0, output,  0 );
    1bb0:	0e24      	lsrs	r4, r4, #24
    PUT_UINT32_LE( X3, output, 12 );
    1bb2:	0a1a      	lsrs	r2, r3, #8
    PUT_UINT32_LE( X1, output,  4 );
    1bb4:	0e3f      	lsrs	r7, r7, #24
    PUT_UINT32_LE( X0, output,  0 );
    1bb6:	70c4      	strb	r4, [r0, #3]
    PUT_UINT32_LE( X1, output,  4 );
    1bb8:	71c7      	strb	r7, [r0, #7]
    PUT_UINT32_LE( X2, output,  8 );
    1bba:	7281      	strb	r1, [r0, #10]
    PUT_UINT32_LE( X3, output, 12 );
    1bbc:	7303      	strb	r3, [r0, #12]
    1bbe:	7342      	strb	r2, [r0, #13]
    1bc0:	0c1a      	lsrs	r2, r3, #16
    1bc2:	0e1b      	lsrs	r3, r3, #24
    1bc4:	7382      	strb	r2, [r0, #14]
    1bc6:	73c3      	strb	r3, [r0, #15]
}
    1bc8:	2000      	movs	r0, #0
    1bca:	b009      	add	sp, #36	; 0x24
    1bcc:	bc3c      	pop	{r2, r3, r4, r5}
    1bce:	4690      	mov	r8, r2
    1bd0:	4699      	mov	r9, r3
    1bd2:	46a2      	mov	sl, r4
    1bd4:	46ab      	mov	fp, r5
    1bd6:	bdf0      	pop	{r4, r5, r6, r7, pc}
    1bd8:	4804      	ldr	r0, [pc, #16]	; (1bec <mbedtls_internal_aes_decrypt+0x458>)
    1bda:	4683      	mov	fp, r0
    1bdc:	4804      	ldr	r0, [pc, #16]	; (1bf0 <mbedtls_internal_aes_decrypt+0x45c>)
    1bde:	4682      	mov	sl, r0
    1be0:	4804      	ldr	r0, [pc, #16]	; (1bf4 <mbedtls_internal_aes_decrypt+0x460>)
    1be2:	4681      	mov	r9, r0
    1be4:	4804      	ldr	r0, [pc, #16]	; (1bf8 <mbedtls_internal_aes_decrypt+0x464>)
    1be6:	4680      	mov	r8, r0
    1be8:	e711      	b.n	1a0e <mbedtls_internal_aes_decrypt+0x27a>
    1bea:	46c0      	nop			; (mov r8, r8)
    1bec:	00002130 	.word	0x00002130
    1bf0:	00002530 	.word	0x00002530
    1bf4:	00002930 	.word	0x00002930
    1bf8:	00002d30 	.word	0x00002d30
    1bfc:	07ffffff 	.word	0x07ffffff
    1c00:	00004130 	.word	0x00004130

00001c04 <mbedtls_aes_crypt_cbc>:
{
    1c04:	b5f0      	push	{r4, r5, r6, r7, lr}
    1c06:	4657      	mov	r7, sl
    1c08:	464e      	mov	r6, r9
    1c0a:	4645      	mov	r5, r8
    1c0c:	46de      	mov	lr, fp
    1c0e:	b5e0      	push	{r5, r6, r7, lr}
    1c10:	b085      	sub	sp, #20
    1c12:	4681      	mov	r9, r0
    1c14:	468a      	mov	sl, r1
    1c16:	0017      	movs	r7, r2
    1c18:	001d      	movs	r5, r3
    1c1a:	9e0e      	ldr	r6, [sp, #56]	; 0x38
    1c1c:	9c0f      	ldr	r4, [sp, #60]	; 0x3c
    if( length % 16 )
    1c1e:	0713      	lsls	r3, r2, #28
    1c20:	d000      	beq.n	1c24 <mbedtls_aes_crypt_cbc+0x20>
    1c22:	e0bf      	b.n	1da4 <mbedtls_aes_crypt_cbc+0x1a0>
    if( mode == MBEDTLS_AES_DECRYPT )
    1c24:	2900      	cmp	r1, #0
    1c26:	d05e      	beq.n	1ce6 <mbedtls_aes_crypt_cbc+0xe2>
        while( length > 0 )
    1c28:	2a00      	cmp	r2, #0
    1c2a:	d100      	bne.n	1c2e <mbedtls_aes_crypt_cbc+0x2a>
    1c2c:	e0b2      	b.n	1d94 <mbedtls_aes_crypt_cbc+0x190>
    1c2e:	4b5f      	ldr	r3, [pc, #380]	; (1dac <mbedtls_aes_crypt_cbc+0x1a8>)
    1c30:	4698      	mov	r8, r3
        return( mbedtls_internal_aes_decrypt( ctx, input, output ) );
    1c32:	4b5f      	ldr	r3, [pc, #380]	; (1db0 <mbedtls_aes_crypt_cbc+0x1ac>)
    1c34:	469b      	mov	fp, r3
    1c36:	e00d      	b.n	1c54 <mbedtls_aes_crypt_cbc+0x50>
    1c38:	0022      	movs	r2, r4
    1c3a:	0021      	movs	r1, r4
    1c3c:	4648      	mov	r0, r9
    1c3e:	47d8      	blx	fp
            memcpy( iv, output, 16 );
    1c40:	0021      	movs	r1, r4
    1c42:	2210      	movs	r2, #16
    1c44:	0028      	movs	r0, r5
            length -= 16;
    1c46:	3f10      	subs	r7, #16
            memcpy( iv, output, 16 );
    1c48:	47c0      	blx	r8
            input  += 16;
    1c4a:	3610      	adds	r6, #16
            output += 16;
    1c4c:	3410      	adds	r4, #16
        while( length > 0 )
    1c4e:	2f00      	cmp	r7, #0
    1c50:	d100      	bne.n	1c54 <mbedtls_aes_crypt_cbc+0x50>
    1c52:	e09f      	b.n	1d94 <mbedtls_aes_crypt_cbc+0x190>
                output[i] = (unsigned char)( input[i] ^ iv[i] );
    1c54:	782a      	ldrb	r2, [r5, #0]
    1c56:	7833      	ldrb	r3, [r6, #0]
    1c58:	4053      	eors	r3, r2
    1c5a:	7023      	strb	r3, [r4, #0]
    1c5c:	786a      	ldrb	r2, [r5, #1]
    1c5e:	7873      	ldrb	r3, [r6, #1]
    1c60:	4053      	eors	r3, r2
    1c62:	7063      	strb	r3, [r4, #1]
    1c64:	78aa      	ldrb	r2, [r5, #2]
    1c66:	78b3      	ldrb	r3, [r6, #2]
    1c68:	4053      	eors	r3, r2
    1c6a:	70a3      	strb	r3, [r4, #2]
    1c6c:	78ea      	ldrb	r2, [r5, #3]
    1c6e:	78f3      	ldrb	r3, [r6, #3]
    1c70:	4053      	eors	r3, r2
    1c72:	70e3      	strb	r3, [r4, #3]
    1c74:	792a      	ldrb	r2, [r5, #4]
    1c76:	7933      	ldrb	r3, [r6, #4]
    1c78:	4053      	eors	r3, r2
    1c7a:	7123      	strb	r3, [r4, #4]
    1c7c:	796a      	ldrb	r2, [r5, #5]
    1c7e:	7973      	ldrb	r3, [r6, #5]
    1c80:	4053      	eors	r3, r2
    1c82:	7163      	strb	r3, [r4, #5]
    1c84:	79aa      	ldrb	r2, [r5, #6]
    1c86:	79b3      	ldrb	r3, [r6, #6]
    1c88:	4053      	eors	r3, r2
    1c8a:	71a3      	strb	r3, [r4, #6]
    1c8c:	79ea      	ldrb	r2, [r5, #7]
    1c8e:	79f3      	ldrb	r3, [r6, #7]
    1c90:	4053      	eors	r3, r2
    1c92:	71e3      	strb	r3, [r4, #7]
    1c94:	7a2a      	ldrb	r2, [r5, #8]
    1c96:	7a33      	ldrb	r3, [r6, #8]
    1c98:	4053      	eors	r3, r2
    1c9a:	7223      	strb	r3, [r4, #8]
    1c9c:	7a6a      	ldrb	r2, [r5, #9]
    1c9e:	7a73      	ldrb	r3, [r6, #9]
    1ca0:	4053      	eors	r3, r2
    1ca2:	7263      	strb	r3, [r4, #9]
    1ca4:	7aaa      	ldrb	r2, [r5, #10]
    1ca6:	7ab3      	ldrb	r3, [r6, #10]
    1ca8:	4053      	eors	r3, r2
    1caa:	72a3      	strb	r3, [r4, #10]
    1cac:	7aea      	ldrb	r2, [r5, #11]
    1cae:	7af3      	ldrb	r3, [r6, #11]
    1cb0:	4053      	eors	r3, r2
    1cb2:	72e3      	strb	r3, [r4, #11]
    1cb4:	7b2a      	ldrb	r2, [r5, #12]
    1cb6:	7b33      	ldrb	r3, [r6, #12]
    1cb8:	4053      	eors	r3, r2
    1cba:	7323      	strb	r3, [r4, #12]
    1cbc:	7b6a      	ldrb	r2, [r5, #13]
    1cbe:	7b73      	ldrb	r3, [r6, #13]
    1cc0:	4053      	eors	r3, r2
    1cc2:	7363      	strb	r3, [r4, #13]
    1cc4:	7baa      	ldrb	r2, [r5, #14]
    1cc6:	7bb3      	ldrb	r3, [r6, #14]
    1cc8:	4053      	eors	r3, r2
    1cca:	73a3      	strb	r3, [r4, #14]
    1ccc:	7bf3      	ldrb	r3, [r6, #15]
    1cce:	7bea      	ldrb	r2, [r5, #15]
    1cd0:	4053      	eors	r3, r2
    1cd2:	73e3      	strb	r3, [r4, #15]
    if( mode == MBEDTLS_AES_ENCRYPT )
    1cd4:	4653      	mov	r3, sl
    1cd6:	2b01      	cmp	r3, #1
    1cd8:	d1ae      	bne.n	1c38 <mbedtls_aes_crypt_cbc+0x34>
        return( mbedtls_internal_aes_encrypt( ctx, input, output ) );
    1cda:	0022      	movs	r2, r4
    1cdc:	0021      	movs	r1, r4
    1cde:	4648      	mov	r0, r9
    1ce0:	4b34      	ldr	r3, [pc, #208]	; (1db4 <mbedtls_aes_crypt_cbc+0x1b0>)
    1ce2:	4798      	blx	r3
    1ce4:	e7ac      	b.n	1c40 <mbedtls_aes_crypt_cbc+0x3c>
        while( length > 0 )
    1ce6:	2a00      	cmp	r2, #0
    1ce8:	d054      	beq.n	1d94 <mbedtls_aes_crypt_cbc+0x190>
    1cea:	4b30      	ldr	r3, [pc, #192]	; (1dac <mbedtls_aes_crypt_cbc+0x1a8>)
    1cec:	4698      	mov	r8, r3
    1cee:	4b30      	ldr	r3, [pc, #192]	; (1db0 <mbedtls_aes_crypt_cbc+0x1ac>)
    1cf0:	469a      	mov	sl, r3
            memcpy( temp, input, 16 );
    1cf2:	0031      	movs	r1, r6
    1cf4:	2210      	movs	r2, #16
    1cf6:	4668      	mov	r0, sp
    1cf8:	47c0      	blx	r8
        return( mbedtls_internal_aes_decrypt( ctx, input, output ) );
    1cfa:	0022      	movs	r2, r4
    1cfc:	0031      	movs	r1, r6
    1cfe:	4648      	mov	r0, r9
    1d00:	47d0      	blx	sl
                output[i] = (unsigned char)( output[i] ^ iv[i] );
    1d02:	782b      	ldrb	r3, [r5, #0]
    1d04:	7822      	ldrb	r2, [r4, #0]
            memcpy( iv, temp, 16 );
    1d06:	4669      	mov	r1, sp
                output[i] = (unsigned char)( output[i] ^ iv[i] );
    1d08:	4053      	eors	r3, r2
    1d0a:	7023      	strb	r3, [r4, #0]
    1d0c:	786a      	ldrb	r2, [r5, #1]
    1d0e:	7863      	ldrb	r3, [r4, #1]
            memcpy( iv, temp, 16 );
    1d10:	0028      	movs	r0, r5
                output[i] = (unsigned char)( output[i] ^ iv[i] );
    1d12:	4053      	eors	r3, r2
    1d14:	7063      	strb	r3, [r4, #1]
    1d16:	78aa      	ldrb	r2, [r5, #2]
    1d18:	78a3      	ldrb	r3, [r4, #2]
            length -= 16;
    1d1a:	3f10      	subs	r7, #16
                output[i] = (unsigned char)( output[i] ^ iv[i] );
    1d1c:	4053      	eors	r3, r2
    1d1e:	70a3      	strb	r3, [r4, #2]
    1d20:	78ea      	ldrb	r2, [r5, #3]
    1d22:	78e3      	ldrb	r3, [r4, #3]
            input  += 16;
    1d24:	3610      	adds	r6, #16
                output[i] = (unsigned char)( output[i] ^ iv[i] );
    1d26:	4053      	eors	r3, r2
    1d28:	70e3      	strb	r3, [r4, #3]
    1d2a:	792a      	ldrb	r2, [r5, #4]
    1d2c:	7923      	ldrb	r3, [r4, #4]
    1d2e:	4053      	eors	r3, r2
    1d30:	7123      	strb	r3, [r4, #4]
    1d32:	796a      	ldrb	r2, [r5, #5]
    1d34:	7963      	ldrb	r3, [r4, #5]
    1d36:	4053      	eors	r3, r2
    1d38:	7163      	strb	r3, [r4, #5]
    1d3a:	79aa      	ldrb	r2, [r5, #6]
    1d3c:	79a3      	ldrb	r3, [r4, #6]
    1d3e:	4053      	eors	r3, r2
    1d40:	71a3      	strb	r3, [r4, #6]
    1d42:	79ea      	ldrb	r2, [r5, #7]
    1d44:	79e3      	ldrb	r3, [r4, #7]
    1d46:	4053      	eors	r3, r2
    1d48:	71e3      	strb	r3, [r4, #7]
    1d4a:	7a2a      	ldrb	r2, [r5, #8]
    1d4c:	7a23      	ldrb	r3, [r4, #8]
    1d4e:	4053      	eors	r3, r2
    1d50:	7223      	strb	r3, [r4, #8]
    1d52:	7a6a      	ldrb	r2, [r5, #9]
    1d54:	7a63      	ldrb	r3, [r4, #9]
    1d56:	4053      	eors	r3, r2
    1d58:	7263      	strb	r3, [r4, #9]
    1d5a:	7aaa      	ldrb	r2, [r5, #10]
    1d5c:	7aa3      	ldrb	r3, [r4, #10]
    1d5e:	4053      	eors	r3, r2
    1d60:	72a3      	strb	r3, [r4, #10]
    1d62:	7aea      	ldrb	r2, [r5, #11]
    1d64:	7ae3      	ldrb	r3, [r4, #11]
    1d66:	4053      	eors	r3, r2
    1d68:	72e3      	strb	r3, [r4, #11]
    1d6a:	7b2a      	ldrb	r2, [r5, #12]
    1d6c:	7b23      	ldrb	r3, [r4, #12]
    1d6e:	4053      	eors	r3, r2
    1d70:	7323      	strb	r3, [r4, #12]
    1d72:	7b6a      	ldrb	r2, [r5, #13]
    1d74:	7b63      	ldrb	r3, [r4, #13]
    1d76:	4053      	eors	r3, r2
    1d78:	7363      	strb	r3, [r4, #13]
    1d7a:	7baa      	ldrb	r2, [r5, #14]
    1d7c:	7ba3      	ldrb	r3, [r4, #14]
    1d7e:	4053      	eors	r3, r2
    1d80:	73a3      	strb	r3, [r4, #14]
    1d82:	7bea      	ldrb	r2, [r5, #15]
    1d84:	7be3      	ldrb	r3, [r4, #15]
    1d86:	4053      	eors	r3, r2
    1d88:	73e3      	strb	r3, [r4, #15]
            memcpy( iv, temp, 16 );
    1d8a:	2210      	movs	r2, #16
    1d8c:	47c0      	blx	r8
            output += 16;
    1d8e:	3410      	adds	r4, #16
        while( length > 0 )
    1d90:	2f00      	cmp	r7, #0
    1d92:	d1ae      	bne.n	1cf2 <mbedtls_aes_crypt_cbc+0xee>
    1d94:	2000      	movs	r0, #0
}
    1d96:	b005      	add	sp, #20
    1d98:	bc3c      	pop	{r2, r3, r4, r5}
    1d9a:	4690      	mov	r8, r2
    1d9c:	4699      	mov	r9, r3
    1d9e:	46a2      	mov	sl, r4
    1da0:	46ab      	mov	fp, r5
    1da2:	bdf0      	pop	{r4, r5, r6, r7, pc}
        return( MBEDTLS_ERR_AES_INVALID_INPUT_LENGTH );
    1da4:	2022      	movs	r0, #34	; 0x22
    1da6:	4240      	negs	r0, r0
    1da8:	e7f5      	b.n	1d96 <mbedtls_aes_crypt_cbc+0x192>
    1daa:	46c0      	nop			; (mov r8, r8)
    1dac:	00001e3d 	.word	0x00001e3d
    1db0:	00001795 	.word	0x00001795
    1db4:	00001325 	.word	0x00001325

00001db8 <mbedtls_platform_zeroize>:
 * platform and needs.
 */
static void * (* const volatile memset_func)( void *, int, size_t ) = memset;

void mbedtls_platform_zeroize( void *buf, size_t len )
{
    1db8:	b510      	push	{r4, lr}
    memset_func( buf, 0, len );
    1dba:	4b03      	ldr	r3, [pc, #12]	; (1dc8 <mbedtls_platform_zeroize+0x10>)
{
    1dbc:	000a      	movs	r2, r1
    memset_func( buf, 0, len );
    1dbe:	681b      	ldr	r3, [r3, #0]
    1dc0:	2100      	movs	r1, #0
    1dc2:	4798      	blx	r3
}
    1dc4:	bd10      	pop	{r4, pc}
    1dc6:	46c0      	nop			; (mov r8, r8)
    1dc8:	20000020 	.word	0x20000020

00001dcc <__libc_init_array>:
    1dcc:	b570      	push	{r4, r5, r6, lr}
    1dce:	2600      	movs	r6, #0
    1dd0:	4d0c      	ldr	r5, [pc, #48]	; (1e04 <__libc_init_array+0x38>)
    1dd2:	4c0d      	ldr	r4, [pc, #52]	; (1e08 <__libc_init_array+0x3c>)
    1dd4:	1b64      	subs	r4, r4, r5
    1dd6:	10a4      	asrs	r4, r4, #2
    1dd8:	42a6      	cmp	r6, r4
    1dda:	d109      	bne.n	1df0 <__libc_init_array+0x24>
    1ddc:	2600      	movs	r6, #0
    1dde:	f002 fda1 	bl	4924 <_init>
    1de2:	4d0a      	ldr	r5, [pc, #40]	; (1e0c <__libc_init_array+0x40>)
    1de4:	4c0a      	ldr	r4, [pc, #40]	; (1e10 <__libc_init_array+0x44>)
    1de6:	1b64      	subs	r4, r4, r5
    1de8:	10a4      	asrs	r4, r4, #2
    1dea:	42a6      	cmp	r6, r4
    1dec:	d105      	bne.n	1dfa <__libc_init_array+0x2e>
    1dee:	bd70      	pop	{r4, r5, r6, pc}
    1df0:	00b3      	lsls	r3, r6, #2
    1df2:	58eb      	ldr	r3, [r5, r3]
    1df4:	4798      	blx	r3
    1df6:	3601      	adds	r6, #1
    1df8:	e7ee      	b.n	1dd8 <__libc_init_array+0xc>
    1dfa:	00b3      	lsls	r3, r6, #2
    1dfc:	58eb      	ldr	r3, [r5, r3]
    1dfe:	4798      	blx	r3
    1e00:	3601      	adds	r6, #1
    1e02:	e7f2      	b.n	1dea <__libc_init_array+0x1e>
    1e04:	00004930 	.word	0x00004930
    1e08:	00004930 	.word	0x00004930
    1e0c:	00004930 	.word	0x00004930
    1e10:	00004934 	.word	0x00004934

00001e14 <malloc>:
    1e14:	b510      	push	{r4, lr}
    1e16:	4b03      	ldr	r3, [pc, #12]	; (1e24 <malloc+0x10>)
    1e18:	0001      	movs	r1, r0
    1e1a:	6818      	ldr	r0, [r3, #0]
    1e1c:	f000 f86a 	bl	1ef4 <_malloc_r>
    1e20:	bd10      	pop	{r4, pc}
    1e22:	46c0      	nop			; (mov r8, r8)
    1e24:	20000024 	.word	0x20000024

00001e28 <free>:
    1e28:	b510      	push	{r4, lr}
    1e2a:	4b03      	ldr	r3, [pc, #12]	; (1e38 <free+0x10>)
    1e2c:	0001      	movs	r1, r0
    1e2e:	6818      	ldr	r0, [r3, #0]
    1e30:	f000 f816 	bl	1e60 <_free_r>
    1e34:	bd10      	pop	{r4, pc}
    1e36:	46c0      	nop			; (mov r8, r8)
    1e38:	20000024 	.word	0x20000024

00001e3c <memcpy>:
    1e3c:	2300      	movs	r3, #0
    1e3e:	b510      	push	{r4, lr}
    1e40:	429a      	cmp	r2, r3
    1e42:	d100      	bne.n	1e46 <memcpy+0xa>
    1e44:	bd10      	pop	{r4, pc}
    1e46:	5ccc      	ldrb	r4, [r1, r3]
    1e48:	54c4      	strb	r4, [r0, r3]
    1e4a:	3301      	adds	r3, #1
    1e4c:	e7f8      	b.n	1e40 <memcpy+0x4>

00001e4e <memset>:
    1e4e:	0003      	movs	r3, r0
    1e50:	1882      	adds	r2, r0, r2
    1e52:	4293      	cmp	r3, r2
    1e54:	d100      	bne.n	1e58 <memset+0xa>
    1e56:	4770      	bx	lr
    1e58:	7019      	strb	r1, [r3, #0]
    1e5a:	3301      	adds	r3, #1
    1e5c:	e7f9      	b.n	1e52 <memset+0x4>
	...

00001e60 <_free_r>:
    1e60:	b570      	push	{r4, r5, r6, lr}
    1e62:	0005      	movs	r5, r0
    1e64:	2900      	cmp	r1, #0
    1e66:	d010      	beq.n	1e8a <_free_r+0x2a>
    1e68:	1f0c      	subs	r4, r1, #4
    1e6a:	6823      	ldr	r3, [r4, #0]
    1e6c:	2b00      	cmp	r3, #0
    1e6e:	da00      	bge.n	1e72 <_free_r+0x12>
    1e70:	18e4      	adds	r4, r4, r3
    1e72:	0028      	movs	r0, r5
    1e74:	f000 f8ae 	bl	1fd4 <__malloc_lock>
    1e78:	4a1d      	ldr	r2, [pc, #116]	; (1ef0 <_free_r+0x90>)
    1e7a:	6813      	ldr	r3, [r2, #0]
    1e7c:	2b00      	cmp	r3, #0
    1e7e:	d105      	bne.n	1e8c <_free_r+0x2c>
    1e80:	6063      	str	r3, [r4, #4]
    1e82:	6014      	str	r4, [r2, #0]
    1e84:	0028      	movs	r0, r5
    1e86:	f000 f8a6 	bl	1fd6 <__malloc_unlock>
    1e8a:	bd70      	pop	{r4, r5, r6, pc}
    1e8c:	42a3      	cmp	r3, r4
    1e8e:	d909      	bls.n	1ea4 <_free_r+0x44>
    1e90:	6821      	ldr	r1, [r4, #0]
    1e92:	1860      	adds	r0, r4, r1
    1e94:	4283      	cmp	r3, r0
    1e96:	d1f3      	bne.n	1e80 <_free_r+0x20>
    1e98:	6818      	ldr	r0, [r3, #0]
    1e9a:	685b      	ldr	r3, [r3, #4]
    1e9c:	1841      	adds	r1, r0, r1
    1e9e:	6021      	str	r1, [r4, #0]
    1ea0:	e7ee      	b.n	1e80 <_free_r+0x20>
    1ea2:	0013      	movs	r3, r2
    1ea4:	685a      	ldr	r2, [r3, #4]
    1ea6:	2a00      	cmp	r2, #0
    1ea8:	d001      	beq.n	1eae <_free_r+0x4e>
    1eaa:	42a2      	cmp	r2, r4
    1eac:	d9f9      	bls.n	1ea2 <_free_r+0x42>
    1eae:	6819      	ldr	r1, [r3, #0]
    1eb0:	1858      	adds	r0, r3, r1
    1eb2:	42a0      	cmp	r0, r4
    1eb4:	d10b      	bne.n	1ece <_free_r+0x6e>
    1eb6:	6820      	ldr	r0, [r4, #0]
    1eb8:	1809      	adds	r1, r1, r0
    1eba:	1858      	adds	r0, r3, r1
    1ebc:	6019      	str	r1, [r3, #0]
    1ebe:	4282      	cmp	r2, r0
    1ec0:	d1e0      	bne.n	1e84 <_free_r+0x24>
    1ec2:	6810      	ldr	r0, [r2, #0]
    1ec4:	6852      	ldr	r2, [r2, #4]
    1ec6:	1841      	adds	r1, r0, r1
    1ec8:	6019      	str	r1, [r3, #0]
    1eca:	605a      	str	r2, [r3, #4]
    1ecc:	e7da      	b.n	1e84 <_free_r+0x24>
    1ece:	42a0      	cmp	r0, r4
    1ed0:	d902      	bls.n	1ed8 <_free_r+0x78>
    1ed2:	230c      	movs	r3, #12
    1ed4:	602b      	str	r3, [r5, #0]
    1ed6:	e7d5      	b.n	1e84 <_free_r+0x24>
    1ed8:	6821      	ldr	r1, [r4, #0]
    1eda:	1860      	adds	r0, r4, r1
    1edc:	4282      	cmp	r2, r0
    1ede:	d103      	bne.n	1ee8 <_free_r+0x88>
    1ee0:	6810      	ldr	r0, [r2, #0]
    1ee2:	6852      	ldr	r2, [r2, #4]
    1ee4:	1841      	adds	r1, r0, r1
    1ee6:	6021      	str	r1, [r4, #0]
    1ee8:	6062      	str	r2, [r4, #4]
    1eea:	605c      	str	r4, [r3, #4]
    1eec:	e7ca      	b.n	1e84 <_free_r+0x24>
    1eee:	46c0      	nop			; (mov r8, r8)
    1ef0:	200002e0 	.word	0x200002e0

00001ef4 <_malloc_r>:
    1ef4:	2303      	movs	r3, #3
    1ef6:	b570      	push	{r4, r5, r6, lr}
    1ef8:	1ccd      	adds	r5, r1, #3
    1efa:	439d      	bics	r5, r3
    1efc:	3508      	adds	r5, #8
    1efe:	0006      	movs	r6, r0
    1f00:	2d0c      	cmp	r5, #12
    1f02:	d21e      	bcs.n	1f42 <_malloc_r+0x4e>
    1f04:	250c      	movs	r5, #12
    1f06:	42a9      	cmp	r1, r5
    1f08:	d81d      	bhi.n	1f46 <_malloc_r+0x52>
    1f0a:	0030      	movs	r0, r6
    1f0c:	f000 f862 	bl	1fd4 <__malloc_lock>
    1f10:	4a25      	ldr	r2, [pc, #148]	; (1fa8 <_malloc_r+0xb4>)
    1f12:	6814      	ldr	r4, [r2, #0]
    1f14:	0021      	movs	r1, r4
    1f16:	2900      	cmp	r1, #0
    1f18:	d119      	bne.n	1f4e <_malloc_r+0x5a>
    1f1a:	4c24      	ldr	r4, [pc, #144]	; (1fac <_malloc_r+0xb8>)
    1f1c:	6823      	ldr	r3, [r4, #0]
    1f1e:	2b00      	cmp	r3, #0
    1f20:	d103      	bne.n	1f2a <_malloc_r+0x36>
    1f22:	0030      	movs	r0, r6
    1f24:	f000 f844 	bl	1fb0 <_sbrk_r>
    1f28:	6020      	str	r0, [r4, #0]
    1f2a:	0029      	movs	r1, r5
    1f2c:	0030      	movs	r0, r6
    1f2e:	f000 f83f 	bl	1fb0 <_sbrk_r>
    1f32:	1c43      	adds	r3, r0, #1
    1f34:	d12c      	bne.n	1f90 <_malloc_r+0x9c>
    1f36:	230c      	movs	r3, #12
    1f38:	0030      	movs	r0, r6
    1f3a:	6033      	str	r3, [r6, #0]
    1f3c:	f000 f84b 	bl	1fd6 <__malloc_unlock>
    1f40:	e003      	b.n	1f4a <_malloc_r+0x56>
    1f42:	2d00      	cmp	r5, #0
    1f44:	dadf      	bge.n	1f06 <_malloc_r+0x12>
    1f46:	230c      	movs	r3, #12
    1f48:	6033      	str	r3, [r6, #0]
    1f4a:	2000      	movs	r0, #0
    1f4c:	bd70      	pop	{r4, r5, r6, pc}
    1f4e:	680b      	ldr	r3, [r1, #0]
    1f50:	1b5b      	subs	r3, r3, r5
    1f52:	d41a      	bmi.n	1f8a <_malloc_r+0x96>
    1f54:	2b0b      	cmp	r3, #11
    1f56:	d903      	bls.n	1f60 <_malloc_r+0x6c>
    1f58:	600b      	str	r3, [r1, #0]
    1f5a:	18cc      	adds	r4, r1, r3
    1f5c:	6025      	str	r5, [r4, #0]
    1f5e:	e003      	b.n	1f68 <_malloc_r+0x74>
    1f60:	428c      	cmp	r4, r1
    1f62:	d10e      	bne.n	1f82 <_malloc_r+0x8e>
    1f64:	6863      	ldr	r3, [r4, #4]
    1f66:	6013      	str	r3, [r2, #0]
    1f68:	0030      	movs	r0, r6
    1f6a:	f000 f834 	bl	1fd6 <__malloc_unlock>
    1f6e:	0020      	movs	r0, r4
    1f70:	2207      	movs	r2, #7
    1f72:	300b      	adds	r0, #11
    1f74:	1d23      	adds	r3, r4, #4
    1f76:	4390      	bics	r0, r2
    1f78:	1ac3      	subs	r3, r0, r3
    1f7a:	d0e7      	beq.n	1f4c <_malloc_r+0x58>
    1f7c:	425a      	negs	r2, r3
    1f7e:	50e2      	str	r2, [r4, r3]
    1f80:	e7e4      	b.n	1f4c <_malloc_r+0x58>
    1f82:	684b      	ldr	r3, [r1, #4]
    1f84:	6063      	str	r3, [r4, #4]
    1f86:	000c      	movs	r4, r1
    1f88:	e7ee      	b.n	1f68 <_malloc_r+0x74>
    1f8a:	000c      	movs	r4, r1
    1f8c:	6849      	ldr	r1, [r1, #4]
    1f8e:	e7c2      	b.n	1f16 <_malloc_r+0x22>
    1f90:	2303      	movs	r3, #3
    1f92:	1cc4      	adds	r4, r0, #3
    1f94:	439c      	bics	r4, r3
    1f96:	42a0      	cmp	r0, r4
    1f98:	d0e0      	beq.n	1f5c <_malloc_r+0x68>
    1f9a:	1a21      	subs	r1, r4, r0
    1f9c:	0030      	movs	r0, r6
    1f9e:	f000 f807 	bl	1fb0 <_sbrk_r>
    1fa2:	1c43      	adds	r3, r0, #1
    1fa4:	d1da      	bne.n	1f5c <_malloc_r+0x68>
    1fa6:	e7c6      	b.n	1f36 <_malloc_r+0x42>
    1fa8:	200002e0 	.word	0x200002e0
    1fac:	200002e4 	.word	0x200002e4

00001fb0 <_sbrk_r>:
    1fb0:	2300      	movs	r3, #0
    1fb2:	b570      	push	{r4, r5, r6, lr}
    1fb4:	4c06      	ldr	r4, [pc, #24]	; (1fd0 <_sbrk_r+0x20>)
    1fb6:	0005      	movs	r5, r0
    1fb8:	0008      	movs	r0, r1
    1fba:	6023      	str	r3, [r4, #0]
    1fbc:	f7fe f9d6 	bl	36c <_sbrk>
    1fc0:	1c43      	adds	r3, r0, #1
    1fc2:	d103      	bne.n	1fcc <_sbrk_r+0x1c>
    1fc4:	6823      	ldr	r3, [r4, #0]
    1fc6:	2b00      	cmp	r3, #0
    1fc8:	d000      	beq.n	1fcc <_sbrk_r+0x1c>
    1fca:	602b      	str	r3, [r5, #0]
    1fcc:	bd70      	pop	{r4, r5, r6, pc}
    1fce:	46c0      	nop			; (mov r8, r8)
    1fd0:	20000304 	.word	0x20000304

00001fd4 <__malloc_lock>:
    1fd4:	4770      	bx	lr

00001fd6 <__malloc_unlock>:
    1fd6:	4770      	bx	lr
    1fd8:	682f2e2e 	.word	0x682f2e2e
    1fdc:	732f6c61 	.word	0x732f6c61
    1fe0:	682f6372 	.word	0x682f6372
    1fe4:	665f6c61 	.word	0x665f6c61
    1fe8:	6873616c 	.word	0x6873616c
    1fec:	0000632e 	.word	0x0000632e
    1ff0:	682f2e2e 	.word	0x682f2e2e
    1ff4:	6e2f6c70 	.word	0x6e2f6c70
    1ff8:	74636d76 	.word	0x74636d76
    1ffc:	682f6c72 	.word	0x682f6c72
    2000:	6e5f6c70 	.word	0x6e5f6c70
    2004:	74636d76 	.word	0x74636d76
    2008:	632e6c72 	.word	0x632e6c72
    200c:	00000000 	.word	0x00000000

00002010 <key_256>:
    2010:	10eb3d60 be71ca15 f0ae732b 81777d85     `=....q.+s...}w.
    2020:	072c351f d708613b a310982d f4df1409     .5,.;a..-.......

00002030 <RCON>:
    2030:	00000001 00000002 00000004 00000008     ................
    2040:	00000010 00000020 00000040 00000080     .... ...@.......
    2050:	0000001b 00000036                       ....6...

00002058 <FSb>:
    2058:	7b777c63 c56f6bf2 2b670130 76abd7fe     c|w{.ko.0.g+...v
    2068:	7dc982ca f04759fa afa2d4ad c072a49c     ...}.YG.......r.
    2078:	2693fdb7 ccf73f36 f1e5a534 1531d871     ...&6?..4...q.1.
    2088:	c323c704 9a059618 e2801207 75b227eb     ..#..........'.u
    2098:	1a2c8309 a05a6e1b b3d63b52 842fe329     ..,..nZ.R;..)./.
    20a8:	ed00d153 5bb1fc20 39becb6a cf584c4a     S... ..[j..9JLX.
    20b8:	fbaaefd0 85334d43 7f02f945 a89f3c50     ....CM3.E...P<..
    20c8:	8f40a351 f5389d92 21dab6bc d2f3ff10     Q.@...8....!....
    20d8:	ec130ccd 1744975f 3d7ea7c4 73195d64     ...._.D...~=d].s
    20e8:	dc4f8160 88902a22 14b8ee46 db0b5ede     `.O."*..F....^..
    20f8:	0a3a32e0 5c240649 62acd3c2 79e49591     .2:.I.$\...b...y
    2108:	6d37c8e7 a94ed58d eaf4566c 08ae7a65     ..7m..N.lV..ez..
    2118:	2e2578ba c6b4a61c 1f74dde8 8a8bbd4b     .x%.......t.K...
    2128:	66b53e70 0ef60348 b9573561 9e1dc186     p>.fH...a5W.....
    2138:	1198f8e1 948ed969 e9871e9b df2855ce     ....i........U(.
    2148:	0d89a18c 6842e6bf 0f2d9941 16bb54b0     ......BhA.-..T..

00002158 <RT0>:
    2158:	50a7f451 5365417e c3a4171a 965e273a     Q..P~AeS....:'^.
    2168:	cb6bab3b f1459d1f ab58faac 9303e34b     ;.k...E...X.K...
    2178:	55fa3020 f66d76ad 9176cc88 254c02f5      0.U.vm...v...L%
    2188:	fcd7e54f d7cb2ac5 80443526 8fa362b5     O....*..&5D..b..
    2198:	495ab1de 671bba25 980eea45 e1c0fe5d     ..ZI%..gE...]...
    21a8:	02752fc3 12f04c81 a397468d c6f9d36b     ./u..L...F..k...
    21b8:	e75f8f03 959c9215 eb7a6dbf da595295     .._......mz..RY.
    21c8:	2d83bed4 d3217458 2969e049 44c8c98e     ...-Xt!.I.i)...D
    21d8:	6a89c275 78798ef4 6b3e5899 dd71b927     u..j..yx.X>k'.q.
    21e8:	b64fe1be 17ad88f0 66ac20c9 b43ace7d     ..O...... .f}.:.
    21f8:	184adf63 82311ae5 60335197 457f5362     c.J...1..Q3`bS.E
    2208:	e07764b1 84ae6bbb 1ca081fe 942b08f9     .dw..k........+.
    2218:	58684870 19fd458f 876cde94 b7f87b52     pHhX.E....l.R{..
    2228:	23d373ab e2024b72 578f1fe3 2aab5566     .s.#rK.....WfU.*
    2238:	0728ebb2 03c2b52f 9a7bc586 a50837d3     ..(./.....{..7..
    2248:	f2872830 b2a5bf23 ba6a0302 5c8216ed     0(..#.....j....\
    2258:	2b1ccf8a 92b479a7 f0f207f3 a1e2694e     ...+.y......Ni..
    2268:	cdf4da65 d5be0506 1f6234d1 8afea6c4     e........4b.....
    2278:	9d532e34 a055f3a2 32e18a05 75ebf6a4     4.S...U....2...u
    2288:	39ec830b aaef6040 069f715e 51106ebd     ...9@`..^q...n.Q
    2298:	f98a213e 3d06dd96 ae053edd 46bde64d     >!.....=.>..M..F
    22a8:	b58d5491 055dc471 6fd40604 ff155060     .T..q.]....o`P..
    22b8:	24fb9819 97e9bdd6 cc434089 779ed967     ...$.....@C.g..w
    22c8:	bd42e8b0 888b8907 385b19e7 dbeec879     ..B.......[8y...
    22d8:	470a7ca1 e90f427c c91e84f8 00000000     .|.G|B..........
    22e8:	83868009 48ed2b32 ac70111e 4e725a6c     ....2+.H..p.lZrN
    22f8:	fbff0efd 5638850f 1ed5ae3d 27392d36     ......8V=...6-9'
    2308:	64d90f0a 21a65c68 d1545b9b 3a2e3624     ...dh\.!.[T.$6.:
    2318:	b1670a0c 0fe75793 d296eeb4 9e919b1b     ..g..W..........
    2328:	4fc5c080 a220dc61 694b775a 161a121c     ...Oa. .ZwKi....
    2338:	0aba93e2 e52aa0c0 43e0223c 1d171b12     ......*.<".C....
    2348:	0b0d090e adc78bf2 b9a8b62d c8a91e14     ........-.......
    2358:	8519f157 4c0775af bbdd99ee fd607fa3     W....u.L......`.
    2368:	9f2601f7 bcf5725c c53b6644 347efb5b     ..&.\r..Df;.[.~4
    2378:	7629438b dcc623cb 68fcedb6 63f1e4b8     .C)v.#.....h...c
    2388:	cadc31d7 10856342 40229713 2011c684     .1..Bc...."@... 
    2398:	7d244a85 f83dbbd2 1132f9ae 6da129c7     .J$}..=...2..).m
    23a8:	4b2f9e1d f330b2dc ec52860d d0e3c177     ../K..0...R.w...
    23b8:	6c16b32b 99b970a9 fa489411 2264e947     +..l.p....H.G.d"
    23c8:	c48cfca8 1a3ff0a0 d82c7d56 ef903322     ......?.V},."3..
    23d8:	c74e4987 c1d138d9 fea2ca8c 360bd498     .IN..8.........6
    23e8:	cf81f5a6 28de7aa5 268eb7da a4bfad3f     .....z.(...&?...
    23f8:	e49d3a2c 0d927850 9bcc5f6a 62467e54     ,:..Px..j_..T~Fb
    2408:	c2138df6 e8b8d890 5ef7392e f5afc382     .........9.^....
    2418:	be805d9f 7c93d069 a92dd56f b31225cf     .]..i..|o.-..%..
    2428:	3b99acc8 a77d1810 6e639ce8 7bbb3bdb     ...;..}...cn.;.{
    2438:	097826cd f418596e 01b79aec a89a4f83     .&x.nY.......O..
    2448:	656e95e6 7ee6ffaa 08cfbc21 e6e815ef     ..ne...~!.......
    2458:	d99be7ba ce366f4a d4099fea d67cb029     ....Jo6.....).|.
    2468:	afb2a431 31233f2a 3094a5c6 c066a235     1...*?#1...05.f.
    2478:	37bc4e74 a6ca82fc b0d090e0 15d8a733     tN.7........3...
    2488:	4a9804f1 f7daec41 0e50cd7f 2ff69117     ...JA.....P..../
    2498:	8dd64d76 4db0ef43 544daacc df0496e4     vM..C..M..MT....
    24a8:	e3b5d19e 1b886a4c b81f2cc1 7f516546     ....Lj...,..FeQ.
    24b8:	04ea5e9d 5d358c01 737487fa 2e410bfb     .^....5]..ts..A.
    24c8:	5a1d67b3 52d2db92 335610e9 1347d66d     .g.Z...R..V3m.G.
    24d8:	8c61d79a 7a0ca137 8e14f859 893c13eb     ..a.7..zY.....<.
    24e8:	ee27a9ce 35c961b7 ede51ce1 3cb1477a     ..'..a.5....zG.<
    24f8:	59dfd29c 3f73f255 79ce1418 bf37c773     ...YU.s?...ys.7.
    2508:	eacdf753 5baafd5f 146f3ddf 86db4478     S..._..[.=o.xD..
    2518:	81f3afca 3ec468b9 2c342438 5f40a3c2     .....h.>8$4,..@_
    2528:	72c31d16 0c25e2bc 8b493c28 41950dff     ...r..%.(<I....A
    2538:	7101a839 deb30c08 9ce4b4d8 90c15664     9..q........dV..
    2548:	6184cb7b 70b632d5 745c6c48 4257b8d0     {..a.2.pHl\t..WB

00002558 <RT3>:
    2558:	5150a7f4 7e536541 1ac3a417 3a965e27     ..PQAeS~....'^.:
    2568:	3bcb6bab 1ff1459d acab58fa 4b9303e3     .k.;.E...X.....K
    2578:	2055fa30 adf66d76 889176cc f5254c02     0.U vm...v...L%.
    2588:	4ffcd7e5 c5d7cb2a 26804435 b58fa362     ...O*...5D.&b...
    2598:	de495ab1 25671bba 45980eea 5de1c0fe     .ZI...g%...E...]
    25a8:	c302752f 8112f04c 8da39746 6bc6f9d3     /u..L...F......k
    25b8:	03e75f8f 15959c92 bfeb7a6d 95da5952     ._......mz..RY..
    25c8:	d42d83be 58d32174 492969e0 8e44c8c9     ..-.t!.X.i)I..D.
    25d8:	756a89c2 f478798e 996b3e58 27dd71b9     ..ju.yx.X>k..q.'
    25e8:	beb64fe1 f017ad88 c966ac20 7db43ace     .O...... .f..:.}
    25f8:	63184adf e582311a 97603351 62457f53     .J.c.1..Q3`.S.Eb
    2608:	b1e07764 bb84ae6b fe1ca081 f9942b08     dw..k........+..
    2618:	70586848 8f19fd45 94876cde 52b7f87b     HhXpE....l..{..R
    2628:	ab23d373 72e2024b e3578f1f 662aab55     s.#.K..r..W.U.*f
    2638:	b20728eb 2f03c2b5 869a7bc5 d3a50837     .(...../.{..7...
    2648:	30f28728 23b2a5bf 02ba6a03 ed5c8216     (..0...#.j....\.
    2658:	8a2b1ccf a792b479 f3f0f207 4ea1e269     ..+.y.......i..N
    2668:	65cdf4da 06d5be05 d11f6234 c48afea6     ...e....4b......
    2678:	349d532e a2a055f3 0532e18a a475ebf6     .S.4.U....2...u.
    2688:	0b39ec83 40aaef60 5e069f71 bd51106e     ..9.`..@q..^n.Q.
    2698:	3ef98a21 963d06dd ddae053e 4d46bde6     !..>..=.>.....FM
    26a8:	91b58d54 71055dc4 046fd406 60ff1550     T....].q..o.P..`
    26b8:	1924fb98 d697e9bd 89cc4340 67779ed9     ..$.....@C....wg
    26c8:	b0bd42e8 07888b89 e7385b19 79dbeec8     .B.......[8....y
    26d8:	a1470a7c 7ce90f42 f8c91e84 00000000     |.G.B..|........
    26e8:	09838680 3248ed2b 1eac7011 6c4e725a     ....+.H2.p..ZrNl
    26f8:	fdfbff0e 0f563885 3d1ed5ae 3627392d     .....8V....=-9'6
    2708:	0a64d90f 6821a65c 9bd1545b 243a2e36     ..d.\.!h[T..6.:$
    2718:	0cb1670a 930fe757 b4d296ee 1b9e919b     .g..W...........
    2728:	804fc5c0 61a220dc 5a694b77 1c161a12     ..O.. .awKiZ....
    2738:	e20aba93 c0e52aa0 3c43e022 121d171b     .....*..".C<....
    2748:	0e0b0d09 f2adc78b 2db9a8b6 14c8a91e     ...........-....
    2758:	578519f1 af4c0775 eebbdd99 a3fd607f     ...Wu.L......`..
    2768:	f79f2601 5cbcf572 44c53b66 5b347efb     .&..r..\f;.D.~4[
    2778:	8b762943 cbdcc623 b668fced b863f1e4     C)v.#.....h...c.
    2788:	d7cadc31 42108563 13402297 842011c6     1...c..B."@... .
    2798:	857d244a d2f83dbb ae1132f9 c76da129     J$}..=...2..).m.
    27a8:	1d4b2f9e dcf330b2 0dec5286 77d0e3c1     ./K..0...R.....w
    27b8:	2b6c16b3 a999b970 11fa4894 472264e9     ..l+p....H...d"G
    27c8:	a8c48cfc a01a3ff0 56d82c7d 22ef9033     .....?..},.V3.."
    27d8:	87c74e49 d9c1d138 8cfea2ca 98360bd4     IN..8.........6.
    27e8:	a6cf81f5 a528de7a da268eb7 3fa4bfad     ....z.(...&....?
    27f8:	2ce49d3a 500d9278 6a9bcc5f 5462467e     :..,x..P_..j~FbT
    2808:	f6c2138d 90e8b8d8 2e5ef739 82f5afc3     ........9.^.....
    2818:	9fbe805d 697c93d0 6fa92dd5 cfb31225     ].....|i.-.o%...
    2828:	c83b99ac 10a77d18 e86e639c db7bbb3b     ..;..}...cn.;.{.
    2838:	cd097826 6ef41859 ec01b79a 83a89a4f     &x..Y..n....O...
    2848:	e6656e95 aa7ee6ff 2108cfbc efe6e815     .ne...~....!....
    2858:	bad99be7 4ace366f ead4099f 29d67cb0     ....o6.J.....|.)
    2868:	31afb2a4 2a31233f c63094a5 35c066a2     ...1?#1*..0..f.5
    2878:	7437bc4e fca6ca82 e0b0d090 3315d8a7     N.7t...........3
    2888:	f14a9804 41f7daec 7f0e50cd 172ff691     ..J....A.P..../.
    2898:	768dd64d 434db0ef cc544daa e4df0496     M..v..MC.MT.....
    28a8:	9ee3b5d1 4c1b886a c1b81f2c 467f5165     ....j..L,...eQ.F
    28b8:	9d04ea5e 015d358c fa737487 fb2e410b     ^....5]..ts..A..
    28c8:	b35a1d67 9252d2db e9335610 6d1347d6     g.Z...R..V3..G.m
    28d8:	9a8c61d7 377a0ca1 598e14f8 eb893c13     .a....z7...Y.<..
    28e8:	ceee27a9 b735c961 e1ede51c 7a3cb147     .'..a.5.....G.<z
    28f8:	9c59dfd2 553f73f2 1879ce14 73bf37c7     ..Y..s?U..y..7.s
    2908:	53eacdf7 5f5baafd df146f3d 7886db44     ...S..[_=o..D..x
    2918:	ca81f3af b93ec468 382c3424 c25f40a3     ....h.>.$4,8.@_.
    2928:	1672c31d bc0c25e2 288b493c ff41950d     ..r..%..<I.(..A.
    2938:	397101a8 08deb30c d89ce4b4 6490c156     ..q9........V..d
    2948:	7b6184cb d570b632 48745c6c d04257b8     ..a{2.p.l\tH.WB.

00002958 <RT1>:
    2958:	a7f45150 65417e53 a4171ac3 5e273a96     PQ..S~Ae.....:'^
    2968:	6bab3bcb 459d1ff1 58faacab 03e34b93     .;.k...E...X.K..
    2978:	fa302055 6d76adf6 76cc8891 4c02f525     U 0...vm...v%..L
    2988:	d7e54ffc cb2ac5d7 44352680 a362b58f     .O....*..&5D..b.
    2998:	5ab1de49 1bba2567 0eea4598 c0fe5de1     I..Zg%...E...]..
    29a8:	752fc302 f04c8112 97468da3 f9d36bc6     ../u..L...F..k..
    29b8:	5f8f03e7 9c921595 7a6dbfeb 595295da     ..._......mz..RY
    29c8:	83bed42d 217458d3 69e04929 c8c98e44     -....Xt!)I.iD...
    29d8:	89c2756a 798ef478 3e58996b 71b927dd     ju..x..yk.X>.'.q
    29e8:	4fe1beb6 ad88f017 ac20c966 3ace7db4     ...O....f. ..}.:
    29f8:	4adf6318 311ae582 33519760 7f536245     .c.J...1`.Q3EbS.
    2a08:	7764b1e0 ae6bbb84 a081fe1c 2b08f994     ..dw..k........+
    2a18:	68487058 fd458f19 6cde9487 f87b52b7     XpHh..E....l.R{.
    2a28:	d373ab23 024b72e2 8f1fe357 ab55662a     #.s..rK.W...*fU.
    2a38:	28ebb207 c2b52f03 7bc5869a 0837d3a5     ...(./.....{..7.
    2a48:	872830f2 a5bf23b2 6a0302ba 8216ed5c     .0(..#.....j\...
    2a58:	1ccf8a2b b479a792 f207f3f0 e2694ea1     +.....y......Ni.
    2a68:	f4da65cd be0506d5 6234d11f fea6c48a     .e........4b....
    2a78:	532e349d 55f3a2a0 e18a0532 ebf6a475     .4.S...U2...u...
    2a88:	ec830b39 ef6040aa 9f715e06 106ebd51     9....@`..^q.Q.n.
    2a98:	8a213ef9 06dd963d 053eddae bde64d46     .>!.=.....>.FM..
    2aa8:	8d5491b5 5dc47105 d406046f 155060ff     ..T..q.]o....`P.
    2ab8:	fb981924 e9bdd697 434089cc 9ed96777     $.........@Cwg..
    2ac8:	42e8b0bd 8b890788 5b19e738 eec879db     ...B....8..[.y..
    2ad8:	0a7ca147 0f427ce9 1e84f8c9 00000000     G.|..|B.........
    2ae8:	86800983 ed2b3248 70111eac 725a6c4e     ....H2+....pNlZr
    2af8:	ff0efdfb 38850f56 d5ae3d1e 392d3627     ....V..8.=..'6-9
    2b08:	d90f0a64 a65c6821 545b9bd1 2e36243a     d...!h\...[T:$6.
    2b18:	670a0cb1 e757930f 96eeb4d2 919b1b9e     ...g..W.........
    2b28:	c5c0804f 20dc61a2 4b775a69 1a121c16     O....a. iZwK....
    2b38:	ba93e20a 2aa0c0e5 e0223c43 171b121d     .......*C<".....
    2b48:	0d090e0b c78bf2ad a8b62db9 a91e14c8     .........-......
    2b58:	19f15785 0775af4c dd99eebb 607fa3fd     .W..L.u........`
    2b68:	2601f79f f5725cbc 3b6644c5 7efb5b34     ...&.\r..Df;4[.~
    2b78:	29438b76 c623cbdc fcedb668 f1e4b863     v.C)..#.h...c...
    2b88:	dc31d7ca 85634210 22971340 11c68420     ..1..Bc.@.." ...
    2b98:	244a857d 3dbbd2f8 32f9ae11 a129c76d     }.J$...=...2m.).
    2ba8:	2f9e1d4b 30b2dcf3 52860dec e3c177d0     K../...0...R.w..
    2bb8:	16b32b6c b970a999 489411fa 64e94722     l+....p....H"G.d
    2bc8:	8cfca8c4 3ff0a01a 2c7d56d8 903322ef     .......?.V},."3.
    2bd8:	4e4987c7 d138d9c1 a2ca8cfe 0bd49836     ..IN..8.....6...
    2be8:	81f5a6cf de7aa528 8eb7da26 bfad3fa4     ....(.z.&....?..
    2bf8:	9d3a2ce4 9278500d cc5f6a9b 467e5462     .,:..Px..j_.bT~F
    2c08:	138df6c2 b8d890e8 f7392e5e afc382f5     ........^.9.....
    2c18:	805d9fbe 93d0697c 2dd56fa9 1225cfb3     ..].|i...o.-..%.
    2c28:	99acc83b 7d1810a7 639ce86e bb3bdb7b     ;......}n..c{.;.
    2c38:	7826cd09 18596ef4 b79aec01 9a4f83a8     ..&x.nY.......O.
    2c48:	6e95e665 e6ffaa7e cfbc2108 e815efe6     e..n~....!......
    2c58:	9be7bad9 366f4ace 099fead4 7cb029d6     .....Jo6.....).|
    2c68:	b2a431af 233f2a31 94a5c630 66a235c0     .1..1*?#0....5.f
    2c78:	bc4e7437 ca82fca6 d090e0b0 d8a73315     7tN..........3..
    2c88:	9804f14a daec41f7 50cd7f0e f691172f     J....A.....P/...
    2c98:	d64d768d b0ef434d 4daacc54 0496e4df     .vM.MC..T..M....
    2ca8:	b5d19ee3 886a4c1b 1f2cc1b8 5165467f     .....Lj...,..FeQ
    2cb8:	ea5e9d04 358c015d 7487fa73 410bfb2e     ..^.]..5s..t...A
    2cc8:	1d67b35a d2db9252 5610e933 47d66d13     Z.g.R...3..V.m.G
    2cd8:	61d79a8c 0ca1377a 14f8598e 3c13eb89     ...az7...Y.....<
    2ce8:	27a9ceee c961b735 e51ce1ed b1477a3c     ...'5.a.....<zG.
    2cf8:	dfd29c59 73f2553f ce141879 37c773bf     Y...?U.sy....s.7
    2d08:	cdf753ea aafd5f5b 6f3ddf14 db447886     .S..[_....=o.xD.
    2d18:	f3afca81 c468b93e 3424382c 40a3c25f     ....>.h.,8$4_..@
    2d28:	c31d1672 25e2bc0c 493c288b 950dff41     r......%.(<IA...
    2d38:	01a83971 b30c08de e4b4d89c c1566490     q9...........dV.
    2d48:	84cb7b61 b632d570 5c6c4874 57b8d042     a{..p.2.tHl\B..W

00002d58 <RT2>:
    2d58:	f45150a7 417e5365 171ac3a4 273a965e     .PQ.eS~A....^.:'
    2d68:	ab3bcb6b 9d1ff145 faacab58 e34b9303     k.;.E...X.....K.
    2d78:	302055fa 76adf66d cc889176 02f5254c     .U 0m..vv...L%..
    2d88:	e54ffcd7 2ac5d7cb 35268044 62b58fa3     ..O....*D.&5...b
    2d98:	b1de495a ba25671b ea45980e fe5de1c0     ZI...g%...E...].
    2da8:	2fc30275 4c8112f0 468da397 d36bc6f9     u../...L...F..k.
    2db8:	8f03e75f 9215959c 6dbfeb7a 5295da59     _.......z..mY..R
    2dc8:	bed42d83 7458d321 e0492969 c98e44c8     .-..!.Xti)I..D..
    2dd8:	c2756a89 8ef47879 58996b3e b927dd71     .ju.yx..>k.Xq.'.
    2de8:	e1beb64f 88f017ad 20c966ac ce7db43a     O........f. :.}.
    2df8:	df63184a 1ae58231 51976033 5362457f     J.c.1...3`.Q.EbS
    2e08:	64b1e077 6bbb84ae 81fe1ca0 08f9942b     w..d...k....+...
    2e18:	48705868 458f19fd de94876c 7b52b7f8     hXpH...El.....R{
    2e28:	73ab23d3 4b72e202 1fe3578f 55662aab     .#.s..rK.W...*fU
    2e38:	ebb20728 b52f03c2 c5869a7b 37d3a508     (...../.{......7
    2e48:	2830f287 bf23b2a5 0302ba6a 16ed5c82     ..0(..#.j....\..
    2e58:	cf8a2b1c 79a792b4 07f3f0f2 694ea1e2     .+.....y......Ni
    2e68:	da65cdf4 0506d5be 34d11f62 a6c48afe     ..e.....b..4....
    2e78:	2e349d53 f3a2a055 8a0532e1 f6a475eb     S.4.U....2...u..
    2e88:	830b39ec 6040aaef 715e069f 6ebd5110     .9....@`..^q.Q.n
    2e98:	213ef98a dd963d06 3eddae05 e64d46bd     ..>!.=.....>.FM.
    2ea8:	5491b58d c471055d 06046fd4 5060ff15     ...T].q..o....`P
    2eb8:	981924fb bdd697e9 4089cc43 d967779e     .$......C..@.wg.
    2ec8:	e8b0bd42 8907888b 19e7385b c879dbee     B.......[8....y.
    2ed8:	7ca1470a 427ce90f 84f8c91e 00000000     .G.|..|B........
    2ee8:	80098386 2b3248ed 111eac70 5a6c4e72     .....H2+p...rNlZ
    2ef8:	0efdfbff 850f5638 ae3d1ed5 2d362739     ....8V....=.9'6-
    2f08:	0f0a64d9 5c6821a6 5b9bd154 36243a2e     .d...!h\T..[.:$6
    2f18:	0a0cb167 57930fe7 eeb4d296 9b1b9e91     g......W........
    2f28:	c0804fc5 dc61a220 775a694b 121c161a     .O.. .a.KiZw....
    2f38:	93e20aba a0c0e52a 223c43e0 1b121d17     ....*....C<"....
    2f48:	090e0b0d 8bf2adc7 b62db9a8 1e14c8a9     ..........-.....
    2f58:	f1578519 75af4c07 99eebbdd 7fa3fd60     ..W..L.u....`...
    2f68:	01f79f26 725cbcf5 6644c53b fb5b347e     &.....\r;.Df~4[.
    2f78:	438b7629 23cbdcc6 edb668fc e4b863f1     )v.C...#.h...c..
    2f88:	31d7cadc 63421085 97134022 c6842011     ...1..Bc"@... ..
    2f98:	4a857d24 bbd2f83d f9ae1132 29c76da1     $}.J=...2....m.)
    2fa8:	9e1d4b2f b2dcf330 860dec52 c177d0e3     /K..0...R.....w.
    2fb8:	b32b6c16 70a999b9 9411fa48 e9472264     .l+....pH...d"G.
    2fc8:	fca8c48c f0a01a3f 7d56d82c 3322ef90     ....?...,.V}.."3
    2fd8:	4987c74e 38d9c1d1 ca8cfea2 d498360b     N..I...8.....6..
    2fe8:	f5a6cf81 7aa528de b7da268e ad3fa4bf     .....(.z.&....?.
    2ff8:	3a2ce49d 78500d92 5f6a9bcc 7e546246     ..,:..Px..j_FbT~
    3008:	8df6c213 d890e8b8 392e5ef7 c382f5af     .........^.9....
    3018:	5d9fbe80 d0697c93 d56fa92d 25cfb312     ...].|i.-.o....%
    3028:	acc83b99 1810a77d 9ce86e63 3bdb7bbb     .;..}...cn...{.;
    3038:	26cd0978 596ef418 9aec01b7 4f83a89a     x..&..nY.......O
    3048:	95e6656e ffaa7ee6 bc2108cf 15efe6e8     ne...~....!.....
    3058:	e7bad99b 6f4ace36 9fead409 b029d67c     ....6.Jo....|.).
    3068:	a431afb2 3f2a3123 a5c63094 a235c066     ..1.#1*?.0..f.5.
    3078:	4e7437bc 82fca6ca 90e0b0d0 a73315d8     .7tN..........3.
    3088:	04f14a98 ec41f7da cd7f0e50 91172ff6     .J....A.P..../..
    3098:	4d768dd6 ef434db0 aacc544d 96e4df04     ..vM.MC.MT......
    30a8:	d19ee3b5 6a4c1b88 2cc1b81f 65467f51     ......Lj...,Q.Fe
    30b8:	5e9d04ea 8c015d35 87fa7374 0bfb2e41     ...^5]..ts..A...
    30c8:	67b35a1d db9252d2 10e93356 d66d1347     .Z.g.R..V3..G.m.
    30d8:	d79a8c61 a1377a0c f8598e14 13eb893c     a....z7...Y.<...
    30e8:	a9ceee27 61b735c9 1ce1ede5 477a3cb1     '....5.a.....<zG
    30f8:	d29c59df f2553f73 141879ce c773bf37     .Y..s?U..y..7.s.
    3108:	f753eacd fd5f5baa 3ddf146f 447886db     ..S..[_.o..=..xD
    3118:	afca81f3 68b93ec4 24382c34 a3c25f40     .....>.h4,8$@_..
    3128:	1d1672c3 e2bc0c25 3c288b49 0dff4195     .r..%...I.(<.A..
    3138:	a8397101 0c08deb3 b4d89ce4 566490c1     .q9...........dV
    3148:	cb7b6184 32d570b6 6c48745c b8d04257     .a{..p.2\tHlWB..

00003158 <FT0>:
    3158:	a56363c6 847c7cf8 997777ee 8d7b7bf6     .cc..||..ww..{{.
    3168:	0df2f2ff bd6b6bd6 b16f6fde 54c5c591     .....kk..oo....T
    3178:	50303060 03010102 a96767ce 7d2b2b56     `00P.....gg.V++}
    3188:	19fefee7 62d7d7b5 e6abab4d 9a7676ec     .......bM....vv.
    3198:	45caca8f 9d82821f 40c9c989 877d7dfa     ...E.......@.}}.
    31a8:	15fafaef eb5959b2 c947478e 0bf0f0fb     .....YY..GG.....
    31b8:	ecadad41 67d4d4b3 fda2a25f eaafaf45     A......g_...E...
    31c8:	bf9c9c23 f7a4a453 967272e4 5bc0c09b     #...S....rr....[
    31d8:	c2b7b775 1cfdfde1 ae93933d 6a26264c     u.......=...L&&j
    31e8:	5a36366c 413f3f7e 02f7f7f5 4fcccc83     l66Z~??A.......O
    31f8:	5c343468 f4a5a551 34e5e5d1 08f1f1f9     h44\Q......4....
    3208:	937171e2 73d8d8ab 53313162 3f15152a     .qq....sb11S*..?
    3218:	0c040408 52c7c795 65232346 5ec3c39d     .......RF##e...^
    3228:	28181830 a1969637 0f05050a b59a9a2f     0..(7......./...
    3238:	0907070e 36121224 9b80801b 3de2e2df     ....$..6.......=
    3248:	26ebebcd 6927274e cdb2b27f 9f7575ea     ...&N''i.....uu.
    3258:	1b090912 9e83831d 742c2c58 2e1a1a34     ........X,,t4...
    3268:	2d1b1b36 b26e6edc ee5a5ab4 fba0a05b     6..-.nn..ZZ.[...
    3278:	f65252a4 4d3b3b76 61d6d6b7 ceb3b37d     .RR.v;;M...a}...
    3288:	7b292952 3ee3e3dd 712f2f5e 97848413     R)){...>^//q....
    3298:	f55353a6 68d1d1b9 00000000 2cededc1     .SS....h.......,
    32a8:	60202040 1ffcfce3 c8b1b179 ed5b5bb6     @  `....y....[[.
    32b8:	be6a6ad4 46cbcb8d d9bebe67 4b393972     .jj....Fg...r99K
    32c8:	de4a4a94 d44c4c98 e85858b0 4acfcf85     .JJ..LL..XX....J
    32d8:	6bd0d0bb 2aefefc5 e5aaaa4f 16fbfbed     ...k...*O.......
    32e8:	c5434386 d74d4d9a 55333366 94858511     .CC..MM.f33U....
    32f8:	cf45458a 10f9f9e9 06020204 817f7ffe     .EE.............
    3308:	f05050a0 443c3c78 ba9f9f25 e3a8a84b     .PP.x<<D%...K...
    3318:	f35151a2 fea3a35d c0404080 8a8f8f05     .QQ.]....@@.....
    3328:	ad92923f bc9d9d21 48383870 04f5f5f1     ?...!...p88H....
    3338:	dfbcbc63 c1b6b677 75dadaaf 63212142     c...w......uB!!c
    3348:	30101020 1affffe5 0ef3f3fd 6dd2d2bf      ..0...........m
    3358:	4ccdcd81 140c0c18 35131326 2fececc3     ...L....&..5.../
    3368:	e15f5fbe a2979735 cc444488 3917172e     .__.5....DD....9
    3378:	57c4c493 f2a7a755 827e7efc 473d3d7a     ...WU....~~.z==G
    3388:	ac6464c8 e75d5dba 2b191932 957373e6     .dd..]].2..+.ss.
    3398:	a06060c0 98818119 d14f4f9e 7fdcdca3     .``......OO.....
    33a8:	66222244 7e2a2a54 ab90903b 8388880b     D""fT**~;.......
    33b8:	ca46468c 29eeeec7 d3b8b86b 3c141428     .FF....)k...(..<
    33c8:	79dedea7 e25e5ebc 1d0b0b16 76dbdbad     ...y.^^........v
    33d8:	3be0e0db 56323264 4e3a3a74 1e0a0a14     ...;d22Vt::N....
    33e8:	db494992 0a06060c 6c242448 e45c5cb8     .II.....H$$l.\\.
    33f8:	5dc2c29f 6ed3d3bd efacac43 a66262c4     ...]...nC....bb.
    3408:	a8919139 a4959531 37e4e4d3 8b7979f2     9...1......7.yy.
    3418:	32e7e7d5 43c8c88b 5937376e b76d6dda     ...2...Cn77Y.mm.
    3428:	8c8d8d01 64d5d5b1 d24e4e9c e0a9a949     .......d.NN.I...
    3438:	b46c6cd8 fa5656ac 07f4f4f3 25eaeacf     .ll..VV........%
    3448:	af6565ca 8e7a7af4 e9aeae47 18080810     .ee..zz.G.......
    3458:	d5baba6f 887878f0 6f25254a 722e2e5c     o....xx.J%%o\..r
    3468:	241c1c38 f1a6a657 c7b4b473 51c6c697     8..$W...s......Q
    3478:	23e8e8cb 7cdddda1 9c7474e8 211f1f3e     ...#...|.tt.>..!
    3488:	dd4b4b96 dcbdbd61 868b8b0d 858a8a0f     .KK.a...........
    3498:	907070e0 423e3e7c c4b5b571 aa6666cc     .pp.|>>Bq....ff.
    34a8:	d8484890 05030306 01f6f6f7 120e0e1c     .HH.............
    34b8:	a36161c2 5f35356a f95757ae d0b9b969     .aa.j55_.WW.i...
    34c8:	91868617 58c1c199 271d1d3a b99e9e27     .......X:..''...
    34d8:	38e1e1d9 13f8f8eb b398982b 33111122     ...8....+..."..3
    34e8:	bb6969d2 70d9d9a9 898e8e07 a7949433     .ii....p....3...
    34f8:	b69b9b2d 221e1e3c 92878715 20e9e9c9     -...<.."....... 
    3508:	49cece87 ff5555aa 78282850 7adfdfa5     ...I.UU.P((x...z
    3518:	8f8c8c03 f8a1a159 80898909 170d0d1a     ....Y...........
    3528:	dabfbf65 31e6e6d7 c6424284 b86868d0     e......1.BB..hh.
    3538:	c3414182 b0999929 772d2d5a 110f0f1e     .AA.)...Z--w....
    3548:	cbb0b07b fc5454a8 d6bbbb6d 3a16162c     {....TT.m...,..:

00003558 <FT3>:
    3558:	c6a56363 f8847c7c ee997777 f68d7b7b     cc..||..ww..{{..
    3568:	ff0df2f2 d6bd6b6b deb16f6f 9154c5c5     ....kk..oo....T.
    3578:	60503030 02030101 cea96767 567d2b2b     00P`....gg..++}V
    3588:	e719fefe b562d7d7 4de6abab ec9a7676     ......b....Mvv..
    3598:	8f45caca 1f9d8282 8940c9c9 fa877d7d     ..E.......@.}}..
    35a8:	ef15fafa b2eb5959 8ec94747 fb0bf0f0     ....YY..GG......
    35b8:	41ecadad b367d4d4 5ffda2a2 45eaafaf     ...A..g...._...E
    35c8:	23bf9c9c 53f7a4a4 e4967272 9b5bc0c0     ...#...Srr....[.
    35d8:	75c2b7b7 e11cfdfd 3dae9393 4c6a2626     ...u.......=&&jL
    35e8:	6c5a3636 7e413f3f f502f7f7 834fcccc     66Zl??A~......O.
    35f8:	685c3434 51f4a5a5 d134e5e5 f908f1f1     44\h...Q..4.....
    3608:	e2937171 ab73d8d8 62533131 2a3f1515     qq....s.11Sb..?*
    3618:	080c0404 9552c7c7 46652323 9d5ec3c3     ......R.##eF..^.
    3628:	30281818 37a19696 0a0f0505 2fb59a9a     ..(0...7......./
    3638:	0e090707 24361212 1b9b8080 df3de2e2     ......6$......=.
    3648:	cd26ebeb 4e692727 7fcdb2b2 ea9f7575     ..&.''iN....uu..
    3658:	121b0909 1d9e8383 58742c2c 342e1a1a     ........,,tX...4
    3668:	362d1b1b dcb26e6e b4ee5a5a 5bfba0a0     ..-6nn..ZZ.....[
    3678:	a4f65252 764d3b3b b761d6d6 7dceb3b3     RR..;;Mv..a....}
    3688:	527b2929 dd3ee3e3 5e712f2f 13978484     )){R..>.//q^....
    3698:	a6f55353 b968d1d1 00000000 c12ceded     SS....h.......,.
    36a8:	40602020 e31ffcfc 79c8b1b1 b6ed5b5b       `@.......y[[..
    36b8:	d4be6a6a 8d46cbcb 67d9bebe 724b3939     jj....F....g99Kr
    36c8:	94de4a4a 98d44c4c b0e85858 854acfcf     JJ..LL..XX....J.
    36d8:	bb6bd0d0 c52aefef 4fe5aaaa ed16fbfb     ..k...*....O....
    36e8:	86c54343 9ad74d4d 66553333 11948585     CC..MM..33Uf....
    36f8:	8acf4545 e910f9f9 04060202 fe817f7f     EE..............
    3708:	a0f05050 78443c3c 25ba9f9f 4be3a8a8     PP..<<Dx...%...K
    3718:	a2f35151 5dfea3a3 80c04040 058a8f8f     QQ.....]@@......
    3728:	3fad9292 21bc9d9d 70483838 f104f5f5     ...?...!88Hp....
    3738:	63dfbcbc 77c1b6b6 af75dada 42632121     ...c...w..u.!!cB
    3748:	20301010 e51affff fd0ef3f3 bf6dd2d2     ..0 ..........m.
    3758:	814ccdcd 18140c0c 26351313 c32fecec     ..L.......5&../.
    3768:	bee15f5f 35a29797 88cc4444 2e391717     __.....5DD....9.
    3778:	9357c4c4 55f2a7a7 fc827e7e 7a473d3d     ..W....U~~..==Gz
    3788:	c8ac6464 bae75d5d 322b1919 e6957373     dd..]]....+2ss..
    3798:	c0a06060 19988181 9ed14f4f a37fdcdc     ``......OO......
    37a8:	44662222 547e2a2a 3bab9090 0b838888     ""fD**~T...;....
    37b8:	8cca4646 c729eeee 6bd3b8b8 283c1414     FF....)....k..<(
    37c8:	a779dede bce25e5e 161d0b0b ad76dbdb     ..y.^^........v.
    37d8:	db3be0e0 64563232 744e3a3a 141e0a0a     ..;.22Vd::Nt....
    37e8:	92db4949 0c0a0606 486c2424 b8e45c5c     II......$$lH\\..
    37f8:	9f5dc2c2 bd6ed3d3 43efacac c4a66262     ..]...n....Cbb..
    3808:	39a89191 31a49595 d337e4e4 f28b7979     ...9...1..7.yy..
    3818:	d532e7e7 8b43c8c8 6e593737 dab76d6d     ..2...C.77Ynmm..
    3828:	018c8d8d b164d5d5 9cd24e4e 49e0a9a9     ......d.NN.....I
    3838:	d8b46c6c acfa5656 f307f4f4 cf25eaea     ll..VV........%.
    3848:	caaf6565 f48e7a7a 47e9aeae 10180808     ee..zz.....G....
    3858:	6fd5baba f0887878 4a6f2525 5c722e2e     ...oxx..%%oJ..r\
    3868:	38241c1c 57f1a6a6 73c7b4b4 9751c6c6     ..$8...W...s..Q.
    3878:	cb23e8e8 a17cdddd e89c7474 3e211f1f     ..#...|.tt....!>
    3888:	96dd4b4b 61dcbdbd 0d868b8b 0f858a8a     KK.....a........
    3898:	e0907070 7c423e3e 71c4b5b5 ccaa6666     pp..>>B|...qff..
    38a8:	90d84848 06050303 f701f6f6 1c120e0e     HH..............
    38b8:	c2a36161 6a5f3535 aef95757 69d0b9b9     aa..55_jWW.....i
    38c8:	17918686 9958c1c1 3a271d1d 27b99e9e     ......X...':...'
    38d8:	d938e1e1 eb13f8f8 2bb39898 22331111     ..8........+..3"
    38e8:	d2bb6969 a970d9d9 07898e8e 33a79494     ii....p........3
    38f8:	2db69b9b 3c221e1e 15928787 c920e9e9     ...-.."<...... .
    3908:	8749cece aaff5555 50782828 a57adfdf     ..I.UU..((xP..z.
    3918:	038f8c8c 59f8a1a1 09808989 1a170d0d     .......Y........
    3928:	65dabfbf d731e6e6 84c64242 d0b86868     ...e..1.BB..hh..
    3938:	82c34141 29b09999 5a772d2d 1e110f0f     AA.....)--wZ....
    3948:	7bcbb0b0 a8fc5454 6dd6bbbb 2c3a1616     ...{TT.....m..:,

00003958 <FT1>:
    3958:	6363c6a5 7c7cf884 7777ee99 7b7bf68d     ..cc..||..ww..{{
    3968:	f2f2ff0d 6b6bd6bd 6f6fdeb1 c5c59154     ......kk..ooT...
    3978:	30306050 01010203 6767cea9 2b2b567d     P`00......gg}V++
    3988:	fefee719 d7d7b562 abab4de6 7676ec9a     ....b....M....vv
    3998:	caca8f45 82821f9d c9c98940 7d7dfa87     E.......@.....}}
    39a8:	fafaef15 5959b2eb 47478ec9 f0f0fb0b     ......YY..GG....
    39b8:	adad41ec d4d4b367 a2a25ffd afaf45ea     .A..g...._...E..
    39c8:	9c9c23bf a4a453f7 7272e496 c0c09b5b     .#...S....rr[...
    39d8:	b7b775c2 fdfde11c 93933dae 26264c6a     .u.......=..jL&&
    39e8:	36366c5a 3f3f7e41 f7f7f502 cccc834f     Zl66A~??....O...
    39f8:	3434685c a5a551f4 e5e5d134 f1f1f908     \h44.Q..4.......
    3a08:	7171e293 d8d8ab73 31316253 15152a3f     ..qqs...Sb11?*..
    3a18:	0404080c c7c79552 23234665 c3c39d5e     ....R...eF##^...
    3a28:	18183028 969637a1 05050a0f 9a9a2fb5     (0...7......./..
    3a38:	07070e09 12122436 80801b9b e2e2df3d     ....6$......=...
    3a48:	ebebcd26 27274e69 b2b27fcd 7575ea9f     &...iN''......uu
    3a58:	0909121b 83831d9e 2c2c5874 1a1a342e     ........tX,,.4..
    3a68:	1b1b362d 6e6edcb2 5a5ab4ee a0a05bfb     -6....nn..ZZ.[..
    3a78:	5252a4f6 3b3b764d d6d6b761 b3b37dce     ..RRMv;;a....}..
    3a88:	2929527b e3e3dd3e 2f2f5e71 84841397     {R))>...q^//....
    3a98:	5353a6f5 d1d1b968 00000000 ededc12c     ..SSh.......,...
    3aa8:	20204060 fcfce31f b1b179c8 5b5bb6ed     `@  .....y....[[
    3ab8:	6a6ad4be cbcb8d46 bebe67d9 3939724b     ..jjF....g..Kr99
    3ac8:	4a4a94de 4c4c98d4 5858b0e8 cfcf854a     ..JJ..LL..XXJ...
    3ad8:	d0d0bb6b efefc52a aaaa4fe5 fbfbed16     k...*....O......
    3ae8:	434386c5 4d4d9ad7 33336655 85851194     ..CC..MMUf33....
    3af8:	45458acf f9f9e910 02020406 7f7ffe81     ..EE............
    3b08:	5050a0f0 3c3c7844 9f9f25ba a8a84be3     ..PPDx<<.%...K..
    3b18:	5151a2f3 a3a35dfe 404080c0 8f8f058a     ..QQ.]....@@....
    3b28:	92923fad 9d9d21bc 38387048 f5f5f104     .?...!..Hp88....
    3b38:	bcbc63df b6b677c1 dadaaf75 21214263     .c...w..u...cB!!
    3b48:	10102030 ffffe51a f3f3fd0e d2d2bf6d     0 ..........m...
    3b58:	cdcd814c 0c0c1814 13132635 ececc32f     L.......5&../...
    3b68:	5f5fbee1 979735a2 444488cc 17172e39     ..__.5....DD9...
    3b78:	c4c49357 a7a755f2 7e7efc82 3d3d7a47     W....U....~~Gz==
    3b88:	6464c8ac 5d5dbae7 1919322b 7373e695     ..dd..]]+2....ss
    3b98:	6060c0a0 81811998 4f4f9ed1 dcdca37f     ..``......OO....
    3ba8:	22224466 2a2a547e 90903bab 88880b83     fD""~T**.;......
    3bb8:	46468cca eeeec729 b8b86bd3 1414283c     ..FF)....k..<(..
    3bc8:	dedea779 5e5ebce2 0b0b161d dbdbad76     y.....^^....v...
    3bd8:	e0e0db3b 32326456 3a3a744e 0a0a141e     ;...Vd22Nt::....
    3be8:	494992db 06060c0a 2424486c 5c5cb8e4     ..II....lH$$..\\
    3bf8:	c2c29f5d d3d3bd6e acac43ef 6262c4a6     ]...n....C....bb
    3c08:	919139a8 959531a4 e4e4d337 7979f28b     .9...1..7.....yy
    3c18:	e7e7d532 c8c88b43 37376e59 6d6ddab7     2...C...Yn77..mm
    3c28:	8d8d018c d5d5b164 4e4e9cd2 a9a949e0     ....d.....NN.I..
    3c38:	6c6cd8b4 5656acfa f4f4f307 eaeacf25     ..ll..VV....%...
    3c48:	6565caaf 7a7af48e aeae47e9 08081018     ..ee..zz.G......
    3c58:	baba6fd5 7878f088 25254a6f 2e2e5c72     .o....xxoJ%%r\..
    3c68:	1c1c3824 a6a657f1 b4b473c7 c6c69751     $8...W...s..Q...
    3c78:	e8e8cb23 dddda17c 7474e89c 1f1f3e21     #...|.....tt!>..
    3c88:	4b4b96dd bdbd61dc 8b8b0d86 8a8a0f85     ..KK.a..........
    3c98:	7070e090 3e3e7c42 b5b571c4 6666ccaa     ..ppB|>>.q....ff
    3ca8:	484890d8 03030605 f6f6f701 0e0e1c12     ..HH............
    3cb8:	6161c2a3 35356a5f 5757aef9 b9b969d0     ..aa_j55..WW.i..
    3cc8:	86861791 c1c19958 1d1d3a27 9e9e27b9     ....X...':...'..
    3cd8:	e1e1d938 f8f8eb13 98982bb3 11112233     8........+..3"..
    3ce8:	6969d2bb d9d9a970 8e8e0789 949433a7     ..iip........3..
    3cf8:	9b9b2db6 1e1e3c22 87871592 e9e9c920     .-.."<...... ...
    3d08:	cece8749 5555aaff 28285078 dfdfa57a     I.....UUxP((z...
    3d18:	8c8c038f a1a159f8 89890980 0d0d1a17     .....Y..........
    3d28:	bfbf65da e6e6d731 424284c6 6868d0b8     .e..1.....BB..hh
    3d38:	414182c3 999929b0 2d2d5a77 0f0f1e11     ..AA.)..wZ--....
    3d48:	b0b07bcb 5454a8fc bbbb6dd6 16162c3a     .{....TT.m..:,..

00003d58 <FT2>:
    3d58:	63c6a563 7cf8847c 77ee9977 7bf68d7b     c..c|..|w..w{..{
    3d68:	f2ff0df2 6bd6bd6b 6fdeb16f c59154c5     ....k..ko..o.T..
    3d78:	30605030 01020301 67cea967 2b567d2b     0P`0....g..g+}V+
    3d88:	fee719fe d7b562d7 ab4de6ab 76ec9a76     .....b....M.v..v
    3d98:	ca8f45ca 821f9d82 c98940c9 7dfa877d     .E.......@..}..}
    3da8:	faef15fa 59b2eb59 478ec947 f0fb0bf0     ....Y..YG..G....
    3db8:	ad41ecad d4b367d4 a25ffda2 af45eaaf     ..A..g...._...E.
    3dc8:	9c23bf9c a453f7a4 72e49672 c09b5bc0     ..#...S.r..r.[..
    3dd8:	b775c2b7 fde11cfd 933dae93 264c6a26     ..u.......=.&jL&
    3de8:	366c5a36 3f7e413f f7f502f7 cc834fcc     6Zl6?A~?.....O..
    3df8:	34685c34 a551f4a5 e5d134e5 f1f908f1     4\h4..Q..4......
    3e08:	71e29371 d8ab73d8 31625331 152a3f15     q..q.s..1Sb1.?*.
    3e18:	04080c04 c79552c7 23466523 c39d5ec3     .....R..#eF#.^..
    3e28:	18302818 9637a196 050a0f05 9a2fb59a     .(0...7......./.
    3e38:	070e0907 12243612 801b9b80 e2df3de2     .....6$......=..
    3e48:	ebcd26eb 274e6927 b27fcdb2 75ea9f75     .&..'iN'....u..u
    3e58:	09121b09 831d9e83 2c58742c 1a342e1a     ........,tX,..4.
    3e68:	1b362d1b 6edcb26e 5ab4ee5a a05bfba0     .-6.n..nZ..Z..[.
    3e78:	52a4f652 3b764d3b d6b761d6 b37dceb3     R..R;Mv;.a....}.
    3e88:	29527b29 e3dd3ee3 2f5e712f 84139784     ){R).>../q^/....
    3e98:	53a6f553 d1b968d1 00000000 edc12ced     S..S.h.......,..
    3ea8:	20406020 fce31ffc b179c8b1 5bb6ed5b      `@ ......y.[..[
    3eb8:	6ad4be6a cb8d46cb be67d9be 39724b39     j..j.F....g.9Kr9
    3ec8:	4a94de4a 4c98d44c 58b0e858 cf854acf     J..JL..LX..X.J..
    3ed8:	d0bb6bd0 efc52aef aa4fe5aa fbed16fb     .k...*....O.....
    3ee8:	4386c543 4d9ad74d 33665533 85119485     C..CM..M3Uf3....
    3ef8:	458acf45 f9e910f9 02040602 7ffe817f     E..E............
    3f08:	50a0f050 3c78443c 9f25ba9f a84be3a8     P..P<Dx<..%...K.
    3f18:	51a2f351 a35dfea3 4080c040 8f058a8f     Q..Q..].@..@....
    3f28:	923fad92 9d21bc9d 38704838 f5f104f5     ..?...!.8Hp8....
    3f38:	bc63dfbc b677c1b6 daaf75da 21426321     ..c...w..u..!cB!
    3f48:	10203010 ffe51aff f3fd0ef3 d2bf6dd2     .0 ..........m..
    3f58:	cd814ccd 0c18140c 13263513 ecc32fec     .L.......5&../..
    3f68:	5fbee15f 9735a297 4488cc44 172e3917     _.._..5.D..D.9..
    3f78:	c49357c4 a755f2a7 7efc827e 3d7a473d     .W....U.~..~=Gz=
    3f88:	64c8ac64 5dbae75d 19322b19 73e69573     d..d]..].+2.s..s
    3f98:	60c0a060 81199881 4f9ed14f dca37fdc     `..`....O..O....
    3fa8:	22446622 2a547e2a 903bab90 880b8388     "fD"*~T*..;.....
    3fb8:	468cca46 eec729ee b86bd3b8 14283c14     F..F.)....k..<(.
    3fc8:	dea779de 5ebce25e 0b161d0b dbad76db     .y..^..^.....v..
    3fd8:	e0db3be0 32645632 3a744e3a 0a141e0a     .;..2Vd2:Nt:....
    3fe8:	4992db49 060c0a06 24486c24 5cb8e45c     I..I....$lH$\..\
    3ff8:	c29f5dc2 d3bd6ed3 ac43efac 62c4a662     .]...n....C.b..b
    4008:	9139a891 9531a495 e4d337e4 79f28b79     ..9...1..7..y..y
    4018:	e7d532e7 c88b43c8 376e5937 6ddab76d     .2...C..7Yn7m..m
    4028:	8d018c8d d5b164d5 4e9cd24e a949e0a9     .....d..N..N..I.
    4038:	6cd8b46c 56acfa56 f4f307f4 eacf25ea     l..lV..V.....%..
    4048:	65caaf65 7af48e7a ae47e9ae 08101808     e..ez..z..G.....
    4058:	ba6fd5ba 78f08878 254a6f25 2e5c722e     ..o.x..x%oJ%.r\.
    4068:	1c38241c a657f1a6 b473c7b4 c69751c6     .$8...W...s..Q..
    4078:	e8cb23e8 dda17cdd 74e89c74 1f3e211f     .#...|..t..t.!>.
    4088:	4b96dd4b bd61dcbd 8b0d868b 8a0f858a     K..K..a.........
    4098:	70e09070 3e7c423e b571c4b5 66ccaa66     p..p>B|>..q.f..f
    40a8:	4890d848 03060503 f6f701f6 0e1c120e     H..H............
    40b8:	61c2a361 356a5f35 57aef957 b969d0b9     a..a5_j5W..W..i.
    40c8:	86179186 c19958c1 1d3a271d 9e27b99e     .....X...':...'.
    40d8:	e1d938e1 f8eb13f8 982bb398 11223311     .8........+..3".
    40e8:	69d2bb69 d9a970d9 8e07898e 9433a794     i..i.p........3.
    40f8:	9b2db69b 1e3c221e 87159287 e9c920e9     ..-.."<...... ..
    4108:	ce8749ce 55aaff55 28507828 dfa57adf     .I..U..U(xP(.z..
    4118:	8c038f8c a159f8a1 89098089 0d1a170d     ......Y.........
    4128:	bf65dabf e6d731e6 4284c642 68d0b868     ..e..1..B..Bh..h
    4138:	4182c341 9929b099 2d5a772d 0f1e110f     A..A..).-wZ-....
    4148:	b07bcbb0 54a8fc54 bb6dd6bb 162c3a16     ..{.T..T..m..:,.

00004158 <RSb>:
    4158:	d56a0952 38a53630 9ea340bf fbd7f381     R.j.06.8.@......
    4168:	8239e37c 87ff2f9b 44438e34 cbe9dec4     |.9../..4.CD....
    4178:	32947b54 3d23c2a6 0b954cee 4ec3fa42     T{.2..#=.L..B..N
    4188:	66a12e08 b224d928 49a25b76 25d18b6d     ...f(.$.v[.Im..%
    4198:	64f6f872 16986886 cc5ca4d4 92b6655d     r..d.h....\.]e..
    41a8:	5048706c dab9edfd 5746155e 849d8da7     lpHP....^.FW....
    41b8:	00abd890 0ad3bc8c 0558e4f7 0645b3b8     ..........X...E.
    41c8:	8f1e2cd0 020f3fca 03bdafc1 6b8a1301     .,...?.........k
    41d8:	4111913a eadc674f cecff297 73e6b4f0     :..AOg.........s
    41e8:	2274ac96 8535ade7 e837f9e2 6edf751c     ..t"..5...7..u.n
    41f8:	711af147 89c5291d 0e62b76f 1bbe18aa     G..q.)..o.b.....
    4208:	4b3e56fc 2079d2c6 fec0db9a f45acd78     .V>K..y ....x.Z.
    4218:	33a8dd1f 31c70788 591012b1 5fec8027     ...3...1...Y'.._
    4228:	a97f5160 0d4ab519 9f7ae52d ef9cc993     `Q....J.-.z.....
    4238:	4d3be0a0 b0f52aae 3cbbebc8 61995383     ..;M.*.....<.S.a
    4248:	7e042b17 26d677ba 631469e1 7d0c2155     .+.~.w.&.i.cU!.}

00004258 <aes_test_cfb128_pt>:
    4258:	e2bec16b 969f402e 117e3de9 2a179373     k....@...=~.s..*
    4268:	578a2dae 9cac031e ac6fb79e 518eaf45     .-.W......o.E..Q
    4278:	461cc830 11e45ca3 19c1fbe5 ef520a1a     0..F.\........R.
    4288:	45249ff6 179b4fdf 7b412bad 10376ce6     ..$E.O...+A{.l7.

00004298 <aes_test_ofb_pt>:
    4298:	e2bec16b 969f402e 117e3de9 2a179373     k....@...=~.s..*
    42a8:	578a2dae 9cac031e ac6fb79e 518eaf45     .-.W......o.E..Q
    42b8:	461cc830 11e45ca3 19c1fbe5 ef520a1a     0..F.\........R.
    42c8:	45249ff6 179b4fdf 7b412bad 10376ce6     ..$E.O...+A{.l7.

000042d8 <aes_test_ecb_dec>:
    42d8:	c26a4144 583cf5d1 7e910333 e0ebe96b     DAj...<X3..~k...
    42e8:	9e1ee348 f2186725 9c312992 a45bf119     H...%g...)1...[.
    42f8:	fdcf8c05 2d38cbbb 58566f1f de4a8a5d     ......8-.oVX].J.

00004308 <aes_test_ecb_enc>:
    4308:	2c054cc3 738ddac0 5ffe1a45 7f29be03     .L.,...sE.._..).
    4318:	2a75f6f3 1183d7e8 5641f038 14b13106     ..u*....8.AV.1..
    4328:	ccee798b 5deea093 eab430ff a46d6321     .y.....].0..!cm.

00004338 <aes_test_cbc_dec>:
    4338:	e037cafa 7353c8b0 736e70df 86afc9f7     ..7...Ss.pns....
    4348:	dd78f65d 754eba17 c66817b6 7b7cefad     ].x...Nu..h...|{
    4358:	81e10448 7529e68f 8ce8a319 13043157     H.....)u....W1..

00004368 <aes_test_cbc_enc>:
    4368:	5efc058a 84f45a09 28d3088a 3d8e68d3     ...^.Z.....(.h.=
    4378:	d566d97b bbc1d83a faadd285 04b17be8     {.f.:........{..
    4388:	65533cfe b5452f3e b288cd6f f08f89cc     .<Se>/E.o.......

00004398 <aes_test_cfb128_key>:
    4398:	16157e2b a6d2ae28 8815f7ab 3c4fcf09     +~..(.........O<
	...
    43b8:	f7b0738e 52640eda 2bf310c8 e5799080     .s....dR...+..y.
    43c8:	d2eaf862 7b6b2c52 00000000 00000000     b...R,k{........
    43d8:	10eb3d60 be71ca15 f0ae732b 81777d85     `=....q.+s...}w.
    43e8:	072c351f d708613b a310982d f4df1409     .5,.;a..-.......

000043f8 <aes_test_cfb128_ct>:
    43f8:	2ed93f3b 20ad2db7 f8493433 4afb3ce8     ;?...-. 34I..<.J
    4408:	3745a6c8 3fa9b3a0 adcde3cd 8be51c9f     ..E7...?........
    4418:	671f7526 40b1cba3 f18c80b1 dff4a487     &u.g...@........
    4428:	35054bc0 0e1c5d7c 6fc6c4ea e6f2f79f     .K.5|].....o....
    4438:	6f0dc8cd ab8cf1dd 0959c234 74419ac9     ...o....4.Y...At
    4448:	7f7fce67 21361781 702b1a96 7a3d1d17     g.....6!..+p..=z
    4458:	1d8a1e2e b1889bd5 ed0fe6c8 c9c4fa1e     ................
    4468:	9c9f5fc0 a04f83a9 ba8fae42 ff094b58     ._....O.B...XK..
    4478:	bf847edc 4b1679da 8684cd7e 60385d98     .~...y.K~....]8`
    4488:	14edff39 c8b1283b 633c1132 7b40e531     9...;(..2.<c1.@{
    4498:	241310df 924be515 a8d03ea1 f9e27a26     ...$..K..>..&z..
    44a8:	7485a375 f8ceb91a 3d623120 71e4b155     u..t.... 1b=U..q

000044b8 <aes_test_cfb128_iv>:
    44b8:	03020100 07060504 0b0a0908 0f0e0d0c     ................

000044c8 <aes_test_ofb_key>:
    44c8:	16157e2b a6d2ae28 8815f7ab 3c4fcf09     +~..(.........O<
	...
    44e8:	f7b0738e 52640eda 2bf310c8 e5799080     .s....dR...+..y.
    44f8:	d2eaf862 7b6b2c52 00000000 00000000     b...R,k{........
    4508:	10eb3d60 be71ca15 f0ae732b 81777d85     `=....q.+s...}w.
    4518:	072c351f d708613b a310982d f4df1409     .5,.;a..-.......

00004528 <aes_test_ofb_ct>:
    4528:	2ed93f3b 20ad2db7 f8493433 4afb3ce8     ;?...-. 34I..<.J
    4538:	8d508977 038f9116 da523cf5 25d84ec5     w.P......<R..N.%
    4548:	1e054097 f6ec5f9c a8f74443 cced6022     .@..._..CD.."`..
    4558:	28654c30 78c759f6 d910a566 5eaed6c1     0Le(.Y.xf......^
    4568:	6f0dc8cd ab8cf1dd 0959c234 74419ac9     ...o....4.Y...At
    4578:	8d8bc2fc 7c83634c 0017e809 010410c1     ....Lc.|........
    4588:	ea9a9a8d 6f59f6c0 4d6d9c55 f2a559af     ......YoU.mM.Y..
    4598:	08209f6d 3e6cca57 4b52ac9c 2ac9acd9     m. .W.l>..RK...*
    45a8:	bf847edc 4b1679da 8684cd7e 60385d98     .~...y.K~....]8`
    45b8:	67dceb4f 3a0bd240 d86a8fc8 8db04f2a     O..g@..:..j.*O..
    45c8:	a047ab71 ed6ee886 5b1c9df3 08c497ba     q.G...n....[....
    45d8:	1d142601 e87bf367 8b5a8f53 84e440e7     .&..g.{.S.Z..@..

000045e8 <aes_test_ctr_nonce_counter>:
    45e8:	30000000 00000000 00000000 01000000     ...0............
    45f8:	dbb66c00 593b54c0 0bd948da 01000000     .l...T;Y.H......
    4608:	7b01e000 3f7f7727 f086174a 01000000     ...{'w.?J.......

00004618 <aes_test_ctr_key>:
    4618:	f85268ae cc671012 76a5f74b 9ef37755     .hR...g.K..vUw..
    4628:	7806247e d7e0fa17 1fced643 63915332     ~$.x....C...2S.c
    4638:	03be9176 a820505e 85616eac dca0f929     v...^P ..na.)...

00004648 <aes_test_ctr_len>:
    4648:	00000010 00000020 00000024              .... ...$...

00004654 <aes_test_ctr_ct>:
    4654:	4f5d09e4 79b3a7b7 a375612d b8111326     ..]O...y-au.&...
	...
    4684:	06a10451 d9728a16 ee410d79 88d3da8e     Q.....r.y.A.....
    4694:	fc1e2eeb c857da46 df30e6fc 28be4191     ....F.W...0..A.(
	...
    46b4:	a848cfc1 d9fd2f9f e95246cf d772dbef     ..H../...FR...r.
    46c4:	2ba44045 36786dde ea5c9ad5 5310f3ae     E@.+.mx6..\....S
    46d4:	2f07b225 00000000 00000000 00000000     %../............

000046e4 <aes_test_ctr_pt>:
    46e4:	676e6953 6220656c 6b636f6c 67736d20     Single block msg
	...
    4714:	03020100 07060504 0b0a0908 0f0e0d0c     ................
    4724:	13121110 17161514 1b1a1918 1f1e1d1c     ................
	...
    4744:	03020100 07060504 0b0a0908 0f0e0d0c     ................
    4754:	13121110 17161514 1b1a1918 1f1e1d1c     ................
    4764:	23222120 00000000 00000000 00000000      !"#............

00004774 <aes_test_xts_key>:
	...
    4794:	11111111 11111111 11111111 11111111     ................
    47a4:	22222222 22222222 22222222 22222222     """"""""""""""""
    47b4:	fcfdfeff f8f9fafb f4f5f6f7 f0f1f2f3     ................
    47c4:	22222222 22222222 22222222 22222222     """"""""""""""""

000047d4 <aes_test_xts_data_unit>:
	...
    47e4:	33333333 00000033 00000000 00000000     33333...........
    47f4:	33333333 00000033 00000000 00000000     33333...........

00004804 <aes_test_xts_ct32>:
    4804:	9ef67c91 ecb268bd a3e99f9b 92a6ddea     .|...h..........
    4814:	f5d243cd 85ed9895 65c2028c 2e92bf2f     .C.........e/...
    4824:	5e1854c4 6e93166a 38403339 8b83efac     .T.^j..n93@8....
    4834:	ff6f18fb c4ad8074 ec829328 f094d3d6     ..o.t...(.......
    4844:	6b3385af 1afc7a59 b22e0b90 d249c91e     ..3kYz........I.
    4854:	044cdf92 53210b7e 97a58621 897a221a     ..L.~.!S!...."z.

00004864 <aes_test_xts_pt32>:
	...
    4884:	44444444 44444444 44444444 44444444     DDDDDDDDDDDDDDDD
    4894:	44444444 44444444 44444444 44444444     DDDDDDDDDDDDDDDD
    48a4:	44444444 44444444 44444444 44444444     DDDDDDDDDDDDDDDD
    48b4:	44444444 44444444 44444444 44444444     DDDDDDDDDDDDDDDD

000048c4 <__sf_fake_stderr>:
	...

000048e4 <__sf_fake_stdin>:
	...

00004904 <__sf_fake_stdout>:
	...

00004924 <_init>:
    4924:	b5f8      	push	{r3, r4, r5, r6, r7, lr}
    4926:	46c0      	nop			; (mov r8, r8)
    4928:	bcf8      	pop	{r3, r4, r5, r6, r7}
    492a:	bc08      	pop	{r3}
    492c:	469e      	mov	lr, r3
    492e:	4770      	bx	lr

00004930 <__init_array_start>:
    4930:	000000dd 	.word	0x000000dd

00004934 <_fini>:
    4934:	b5f8      	push	{r3, r4, r5, r6, r7, lr}
    4936:	46c0      	nop			; (mov r8, r8)
    4938:	bcf8      	pop	{r3, r4, r5, r6, r7}
    493a:	bc08      	pop	{r3}
    493c:	469e      	mov	lr, r3
    493e:	4770      	bx	lr

00004940 <__fini_array_start>:
    4940:	000000b5 	.word	0x000000b5
